
Nucleo-U083RC_experiments.elf:     file format elf32-littlearm

Sections:
Idx Name          Size      VMA       LMA       File off  Algn
  0 .isr_vector   000000c0  08000000  08000000  00001000  2**0
                  CONTENTS, ALLOC, LOAD, READONLY, DATA
  1 .text         00006cbc  080000c0  080000c0  000010c0  2**2
                  CONTENTS, ALLOC, LOAD, READONLY, CODE
  2 .rodata       000001b4  08006d7c  08006d7c  00007d7c  2**2
                  CONTENTS, ALLOC, LOAD, READONLY, DATA
  3 .ARM.extab    00000000  08006f30  08006f30  000080b0  2**0
                  CONTENTS, READONLY
  4 .ARM          00000008  08006f30  08006f30  00007f30  2**2
                  CONTENTS, ALLOC, LOAD, READONLY, DATA
  5 .preinit_array 00000000  08006f38  08006f38  000080b0  2**0
                  CONTENTS, ALLOC, LOAD, DATA
  6 .init_array   00000004  08006f38  08006f38  00007f38  2**2
                  CONTENTS, ALLOC, LOAD, READONLY, DATA
  7 .fini_array   00000004  08006f3c  08006f3c  00007f3c  2**2
                  CONTENTS, ALLOC, LOAD, READONLY, DATA
  8 .data         000000b0  20000000  08006f40  00008000  2**2
                  CONTENTS, ALLOC, LOAD, DATA
  9 .bss          000002c4  200000b0  08006ff0  000080b0  2**2
                  ALLOC
 10 ._user_heap_stack 00000604  20000374  08006ff0  00008374  2**0
                  ALLOC
 11 .ARM.attributes 00000028  00000000  00000000  000080b0  2**0
                  CONTENTS, READONLY
 12 .debug_info   0000f852  00000000  00000000  000080d8  2**0
                  CONTENTS, READONLY, DEBUGGING, OCTETS
 13 .debug_abbrev 000028b5  00000000  00000000  0001792a  2**0
                  CONTENTS, READONLY, DEBUGGING, OCTETS
 14 .debug_aranges 00000d20  00000000  00000000  0001a1e0  2**3
                  CONTENTS, READONLY, DEBUGGING, OCTETS
 15 .debug_rnglists 00000a08  00000000  00000000  0001af00  2**0
                  CONTENTS, READONLY, DEBUGGING, OCTETS
 16 .debug_macro  0001d4f3  00000000  00000000  0001b908  2**0
                  CONTENTS, READONLY, DEBUGGING, OCTETS
 17 .debug_line   00013268  00000000  00000000  00038dfb  2**0
                  CONTENTS, READONLY, DEBUGGING, OCTETS
 18 .debug_str    000b17a2  00000000  00000000  0004c063  2**0
                  CONTENTS, READONLY, DEBUGGING, OCTETS
 19 .comment      00000043  00000000  00000000  000fd805  2**0
                  CONTENTS, READONLY
 20 .debug_frame  000034bc  00000000  00000000  000fd848  2**2
                  CONTENTS, READONLY, DEBUGGING, OCTETS
 21 .debug_line_str 00000074  00000000  00000000  00100d04  2**0
                  CONTENTS, READONLY, DEBUGGING, OCTETS

Disassembly of section .text:

080000c0 <__do_global_dtors_aux>:
 80000c0:	b510      	push	{r4, lr}
 80000c2:	4c06      	ldr	r4, [pc, #24]	@ (80000dc <__do_global_dtors_aux+0x1c>)
 80000c4:	7823      	ldrb	r3, [r4, #0]
 80000c6:	2b00      	cmp	r3, #0
 80000c8:	d107      	bne.n	80000da <__do_global_dtors_aux+0x1a>
 80000ca:	4b05      	ldr	r3, [pc, #20]	@ (80000e0 <__do_global_dtors_aux+0x20>)
 80000cc:	2b00      	cmp	r3, #0
 80000ce:	d002      	beq.n	80000d6 <__do_global_dtors_aux+0x16>
 80000d0:	4804      	ldr	r0, [pc, #16]	@ (80000e4 <__do_global_dtors_aux+0x24>)
 80000d2:	e000      	b.n	80000d6 <__do_global_dtors_aux+0x16>
 80000d4:	bf00      	nop
 80000d6:	2301      	movs	r3, #1
 80000d8:	7023      	strb	r3, [r4, #0]
 80000da:	bd10      	pop	{r4, pc}
 80000dc:	200000b0 	.word	0x200000b0
 80000e0:	00000000 	.word	0x00000000
 80000e4:	08006d64 	.word	0x08006d64

080000e8 <frame_dummy>:
 80000e8:	4b04      	ldr	r3, [pc, #16]	@ (80000fc <frame_dummy+0x14>)
 80000ea:	b510      	push	{r4, lr}
 80000ec:	2b00      	cmp	r3, #0
 80000ee:	d003      	beq.n	80000f8 <frame_dummy+0x10>
 80000f0:	4903      	ldr	r1, [pc, #12]	@ (8000100 <frame_dummy+0x18>)
 80000f2:	4804      	ldr	r0, [pc, #16]	@ (8000104 <frame_dummy+0x1c>)
 80000f4:	e000      	b.n	80000f8 <frame_dummy+0x10>
 80000f6:	bf00      	nop
 80000f8:	bd10      	pop	{r4, pc}
 80000fa:	46c0      	nop			@ (mov r8, r8)
 80000fc:	00000000 	.word	0x00000000
 8000100:	200000b4 	.word	0x200000b4
 8000104:	08006d64 	.word	0x08006d64

08000108 <__gnu_thumb1_case_shi>:
 8000108:	b403      	push	{r0, r1}
 800010a:	4671      	mov	r1, lr
 800010c:	0849      	lsrs	r1, r1, #1
 800010e:	0040      	lsls	r0, r0, #1
 8000110:	0049      	lsls	r1, r1, #1
 8000112:	5e09      	ldrsh	r1, [r1, r0]
 8000114:	0049      	lsls	r1, r1, #1
 8000116:	448e      	add	lr, r1
 8000118:	bc03      	pop	{r0, r1}
 800011a:	4770      	bx	lr

0800011c <__udivsi3>:
 800011c:	2200      	movs	r2, #0
 800011e:	0843      	lsrs	r3, r0, #1
 8000120:	428b      	cmp	r3, r1
 8000122:	d374      	bcc.n	800020e <__udivsi3+0xf2>
 8000124:	0903      	lsrs	r3, r0, #4
 8000126:	428b      	cmp	r3, r1
 8000128:	d35f      	bcc.n	80001ea <__udivsi3+0xce>
 800012a:	0a03      	lsrs	r3, r0, #8
 800012c:	428b      	cmp	r3, r1
 800012e:	d344      	bcc.n	80001ba <__udivsi3+0x9e>
 8000130:	0b03      	lsrs	r3, r0, #12
 8000132:	428b      	cmp	r3, r1
 8000134:	d328      	bcc.n	8000188 <__udivsi3+0x6c>
 8000136:	0c03      	lsrs	r3, r0, #16
 8000138:	428b      	cmp	r3, r1
 800013a:	d30d      	bcc.n	8000158 <__udivsi3+0x3c>
 800013c:	22ff      	movs	r2, #255	@ 0xff
 800013e:	0209      	lsls	r1, r1, #8
 8000140:	ba12      	rev	r2, r2
 8000142:	0c03      	lsrs	r3, r0, #16
 8000144:	428b      	cmp	r3, r1
 8000146:	d302      	bcc.n	800014e <__udivsi3+0x32>
 8000148:	1212      	asrs	r2, r2, #8
 800014a:	0209      	lsls	r1, r1, #8
 800014c:	d065      	beq.n	800021a <__udivsi3+0xfe>
 800014e:	0b03      	lsrs	r3, r0, #12
 8000150:	428b      	cmp	r3, r1
 8000152:	d319      	bcc.n	8000188 <__udivsi3+0x6c>
 8000154:	e000      	b.n	8000158 <__udivsi3+0x3c>
 8000156:	0a09      	lsrs	r1, r1, #8
 8000158:	0bc3      	lsrs	r3, r0, #15
 800015a:	428b      	cmp	r3, r1
 800015c:	d301      	bcc.n	8000162 <__udivsi3+0x46>
 800015e:	03cb      	lsls	r3, r1, #15
 8000160:	1ac0      	subs	r0, r0, r3
 8000162:	4152      	adcs	r2, r2
 8000164:	0b83      	lsrs	r3, r0, #14
 8000166:	428b      	cmp	r3, r1
 8000168:	d301      	bcc.n	800016e <__udivsi3+0x52>
 800016a:	038b      	lsls	r3, r1, #14
 800016c:	1ac0      	subs	r0, r0, r3
 800016e:	4152      	adcs	r2, r2
 8000170:	0b43      	lsrs	r3, r0, #13
 8000172:	428b      	cmp	r3, r1
 8000174:	d301      	bcc.n	800017a <__udivsi3+0x5e>
 8000176:	034b      	lsls	r3, r1, #13
 8000178:	1ac0      	subs	r0, r0, r3
 800017a:	4152      	adcs	r2, r2
 800017c:	0b03      	lsrs	r3, r0, #12
 800017e:	428b      	cmp	r3, r1
 8000180:	d301      	bcc.n	8000186 <__udivsi3+0x6a>
 8000182:	030b      	lsls	r3, r1, #12
 8000184:	1ac0      	subs	r0, r0, r3
 8000186:	4152      	adcs	r2, r2
 8000188:	0ac3      	lsrs	r3, r0, #11
 800018a:	428b      	cmp	r3, r1
 800018c:	d301      	bcc.n	8000192 <__udivsi3+0x76>
 800018e:	02cb      	lsls	r3, r1, #11
 8000190:	1ac0      	subs	r0, r0, r3
 8000192:	4152      	adcs	r2, r2
 8000194:	0a83      	lsrs	r3, r0, #10
 8000196:	428b      	cmp	r3, r1
 8000198:	d301      	bcc.n	800019e <__udivsi3+0x82>
 800019a:	028b      	lsls	r3, r1, #10
 800019c:	1ac0      	subs	r0, r0, r3
 800019e:	4152      	adcs	r2, r2
 80001a0:	0a43      	lsrs	r3, r0, #9
 80001a2:	428b      	cmp	r3, r1
 80001a4:	d301      	bcc.n	80001aa <__udivsi3+0x8e>
 80001a6:	024b      	lsls	r3, r1, #9
 80001a8:	1ac0      	subs	r0, r0, r3
 80001aa:	4152      	adcs	r2, r2
 80001ac:	0a03      	lsrs	r3, r0, #8
 80001ae:	428b      	cmp	r3, r1
 80001b0:	d301      	bcc.n	80001b6 <__udivsi3+0x9a>
 80001b2:	020b      	lsls	r3, r1, #8
 80001b4:	1ac0      	subs	r0, r0, r3
 80001b6:	4152      	adcs	r2, r2
 80001b8:	d2cd      	bcs.n	8000156 <__udivsi3+0x3a>
 80001ba:	09c3      	lsrs	r3, r0, #7
 80001bc:	428b      	cmp	r3, r1
 80001be:	d301      	bcc.n	80001c4 <__udivsi3+0xa8>
 80001c0:	01cb      	lsls	r3, r1, #7
 80001c2:	1ac0      	subs	r0, r0, r3
 80001c4:	4152      	adcs	r2, r2
 80001c6:	0983      	lsrs	r3, r0, #6
 80001c8:	428b      	cmp	r3, r1
 80001ca:	d301      	bcc.n	80001d0 <__udivsi3+0xb4>
 80001cc:	018b      	lsls	r3, r1, #6
 80001ce:	1ac0      	subs	r0, r0, r3
 80001d0:	4152      	adcs	r2, r2
 80001d2:	0943      	lsrs	r3, r0, #5
 80001d4:	428b      	cmp	r3, r1
 80001d6:	d301      	bcc.n	80001dc <__udivsi3+0xc0>
 80001d8:	014b      	lsls	r3, r1, #5
 80001da:	1ac0      	subs	r0, r0, r3
 80001dc:	4152      	adcs	r2, r2
 80001de:	0903      	lsrs	r3, r0, #4
 80001e0:	428b      	cmp	r3, r1
 80001e2:	d301      	bcc.n	80001e8 <__udivsi3+0xcc>
 80001e4:	010b      	lsls	r3, r1, #4
 80001e6:	1ac0      	subs	r0, r0, r3
 80001e8:	4152      	adcs	r2, r2
 80001ea:	08c3      	lsrs	r3, r0, #3
 80001ec:	428b      	cmp	r3, r1
 80001ee:	d301      	bcc.n	80001f4 <__udivsi3+0xd8>
 80001f0:	00cb      	lsls	r3, r1, #3
 80001f2:	1ac0      	subs	r0, r0, r3
 80001f4:	4152      	adcs	r2, r2
 80001f6:	0883      	lsrs	r3, r0, #2
 80001f8:	428b      	cmp	r3, r1
 80001fa:	d301      	bcc.n	8000200 <__udivsi3+0xe4>
 80001fc:	008b      	lsls	r3, r1, #2
 80001fe:	1ac0      	subs	r0, r0, r3
 8000200:	4152      	adcs	r2, r2
 8000202:	0843      	lsrs	r3, r0, #1
 8000204:	428b      	cmp	r3, r1
 8000206:	d301      	bcc.n	800020c <__udivsi3+0xf0>
 8000208:	004b      	lsls	r3, r1, #1
 800020a:	1ac0      	subs	r0, r0, r3
 800020c:	4152      	adcs	r2, r2
 800020e:	1a41      	subs	r1, r0, r1
 8000210:	d200      	bcs.n	8000214 <__udivsi3+0xf8>
 8000212:	4601      	mov	r1, r0
 8000214:	4152      	adcs	r2, r2
 8000216:	4610      	mov	r0, r2
 8000218:	4770      	bx	lr
 800021a:	e7ff      	b.n	800021c <__udivsi3+0x100>
 800021c:	b501      	push	{r0, lr}
 800021e:	2000      	movs	r0, #0
 8000220:	f000 f806 	bl	8000230 <__aeabi_idiv0>
 8000224:	bd02      	pop	{r1, pc}
 8000226:	46c0      	nop			@ (mov r8, r8)

08000228 <__aeabi_uidivmod>:
 8000228:	2900      	cmp	r1, #0
 800022a:	d0f7      	beq.n	800021c <__udivsi3+0x100>
 800022c:	e776      	b.n	800011c <__udivsi3>
 800022e:	4770      	bx	lr

08000230 <__aeabi_idiv0>:
 8000230:	4770      	bx	lr
 8000232:	46c0      	nop			@ (mov r8, r8)

08000234 <__aeabi_uldivmod>:
 8000234:	2b00      	cmp	r3, #0
 8000236:	d111      	bne.n	800025c <__aeabi_uldivmod+0x28>
 8000238:	2a00      	cmp	r2, #0
 800023a:	d10f      	bne.n	800025c <__aeabi_uldivmod+0x28>
 800023c:	2900      	cmp	r1, #0
 800023e:	d100      	bne.n	8000242 <__aeabi_uldivmod+0xe>
 8000240:	2800      	cmp	r0, #0
 8000242:	d002      	beq.n	800024a <__aeabi_uldivmod+0x16>
 8000244:	2100      	movs	r1, #0
 8000246:	43c9      	mvns	r1, r1
 8000248:	0008      	movs	r0, r1
 800024a:	b407      	push	{r0, r1, r2}
 800024c:	4802      	ldr	r0, [pc, #8]	@ (8000258 <__aeabi_uldivmod+0x24>)
 800024e:	a102      	add	r1, pc, #8	@ (adr r1, 8000258 <__aeabi_uldivmod+0x24>)
 8000250:	1840      	adds	r0, r0, r1
 8000252:	9002      	str	r0, [sp, #8]
 8000254:	bd03      	pop	{r0, r1, pc}
 8000256:	46c0      	nop			@ (mov r8, r8)
 8000258:	ffffffd9 	.word	0xffffffd9
 800025c:	b403      	push	{r0, r1}
 800025e:	4668      	mov	r0, sp
 8000260:	b501      	push	{r0, lr}
 8000262:	9802      	ldr	r0, [sp, #8]
 8000264:	f000 f806 	bl	8000274 <__udivmoddi4>
 8000268:	9b01      	ldr	r3, [sp, #4]
 800026a:	469e      	mov	lr, r3
 800026c:	b002      	add	sp, #8
 800026e:	bc0c      	pop	{r2, r3}
 8000270:	4770      	bx	lr
 8000272:	46c0      	nop			@ (mov r8, r8)

08000274 <__udivmoddi4>:
 8000274:	b5f0      	push	{r4, r5, r6, r7, lr}
 8000276:	4657      	mov	r7, sl
 8000278:	464e      	mov	r6, r9
 800027a:	4645      	mov	r5, r8
 800027c:	46de      	mov	lr, fp
 800027e:	b5e0      	push	{r5, r6, r7, lr}
 8000280:	0004      	movs	r4, r0
 8000282:	000d      	movs	r5, r1
 8000284:	4692      	mov	sl, r2
 8000286:	4699      	mov	r9, r3
 8000288:	b083      	sub	sp, #12
 800028a:	428b      	cmp	r3, r1
 800028c:	d830      	bhi.n	80002f0 <__udivmoddi4+0x7c>
 800028e:	d02d      	beq.n	80002ec <__udivmoddi4+0x78>
 8000290:	4649      	mov	r1, r9
 8000292:	4650      	mov	r0, sl
 8000294:	f000 f8ba 	bl	800040c <__clzdi2>
 8000298:	0029      	movs	r1, r5
 800029a:	0006      	movs	r6, r0
 800029c:	0020      	movs	r0, r4
 800029e:	f000 f8b5 	bl	800040c <__clzdi2>
 80002a2:	1a33      	subs	r3, r6, r0
 80002a4:	4698      	mov	r8, r3
 80002a6:	3b20      	subs	r3, #32
 80002a8:	d434      	bmi.n	8000314 <__udivmoddi4+0xa0>
 80002aa:	469b      	mov	fp, r3
 80002ac:	4653      	mov	r3, sl
 80002ae:	465a      	mov	r2, fp
 80002b0:	4093      	lsls	r3, r2
 80002b2:	4642      	mov	r2, r8
 80002b4:	001f      	movs	r7, r3
 80002b6:	4653      	mov	r3, sl
 80002b8:	4093      	lsls	r3, r2
 80002ba:	001e      	movs	r6, r3
 80002bc:	42af      	cmp	r7, r5
 80002be:	d83b      	bhi.n	8000338 <__udivmoddi4+0xc4>
 80002c0:	42af      	cmp	r7, r5
 80002c2:	d100      	bne.n	80002c6 <__udivmoddi4+0x52>
 80002c4:	e079      	b.n	80003ba <__udivmoddi4+0x146>
 80002c6:	465b      	mov	r3, fp
 80002c8:	1ba4      	subs	r4, r4, r6
 80002ca:	41bd      	sbcs	r5, r7
 80002cc:	2b00      	cmp	r3, #0
 80002ce:	da00      	bge.n	80002d2 <__udivmoddi4+0x5e>
 80002d0:	e076      	b.n	80003c0 <__udivmoddi4+0x14c>
 80002d2:	2200      	movs	r2, #0
 80002d4:	2300      	movs	r3, #0
 80002d6:	9200      	str	r2, [sp, #0]
 80002d8:	9301      	str	r3, [sp, #4]
 80002da:	2301      	movs	r3, #1
 80002dc:	465a      	mov	r2, fp
 80002de:	4093      	lsls	r3, r2
 80002e0:	9301      	str	r3, [sp, #4]
 80002e2:	2301      	movs	r3, #1
 80002e4:	4642      	mov	r2, r8
 80002e6:	4093      	lsls	r3, r2
 80002e8:	9300      	str	r3, [sp, #0]
 80002ea:	e029      	b.n	8000340 <__udivmoddi4+0xcc>
 80002ec:	4282      	cmp	r2, r0
 80002ee:	d9cf      	bls.n	8000290 <__udivmoddi4+0x1c>
 80002f0:	2200      	movs	r2, #0
 80002f2:	2300      	movs	r3, #0
 80002f4:	9200      	str	r2, [sp, #0]
 80002f6:	9301      	str	r3, [sp, #4]
 80002f8:	9b0c      	ldr	r3, [sp, #48]	@ 0x30
 80002fa:	2b00      	cmp	r3, #0
 80002fc:	d001      	beq.n	8000302 <__udivmoddi4+0x8e>
 80002fe:	601c      	str	r4, [r3, #0]
 8000300:	605d      	str	r5, [r3, #4]
 8000302:	9800      	ldr	r0, [sp, #0]
 8000304:	9901      	ldr	r1, [sp, #4]
 8000306:	b003      	add	sp, #12
 8000308:	bcf0      	pop	{r4, r5, r6, r7}
 800030a:	46bb      	mov	fp, r7
 800030c:	46b2      	mov	sl, r6
 800030e:	46a9      	mov	r9, r5
 8000310:	46a0      	mov	r8, r4
 8000312:	bdf0      	pop	{r4, r5, r6, r7, pc}
 8000314:	4642      	mov	r2, r8
 8000316:	469b      	mov	fp, r3
 8000318:	2320      	movs	r3, #32
 800031a:	1a9b      	subs	r3, r3, r2
 800031c:	4652      	mov	r2, sl
 800031e:	40da      	lsrs	r2, r3
 8000320:	4641      	mov	r1, r8
 8000322:	0013      	movs	r3, r2
 8000324:	464a      	mov	r2, r9
 8000326:	408a      	lsls	r2, r1
 8000328:	0017      	movs	r7, r2
 800032a:	4642      	mov	r2, r8
 800032c:	431f      	orrs	r7, r3
 800032e:	4653      	mov	r3, sl
 8000330:	4093      	lsls	r3, r2
 8000332:	001e      	movs	r6, r3
 8000334:	42af      	cmp	r7, r5
 8000336:	d9c3      	bls.n	80002c0 <__udivmoddi4+0x4c>
 8000338:	2200      	movs	r2, #0
 800033a:	2300      	movs	r3, #0
 800033c:	9200      	str	r2, [sp, #0]
 800033e:	9301      	str	r3, [sp, #4]
 8000340:	4643      	mov	r3, r8
 8000342:	2b00      	cmp	r3, #0
 8000344:	d0d8      	beq.n	80002f8 <__udivmoddi4+0x84>
 8000346:	07fb      	lsls	r3, r7, #31
 8000348:	0872      	lsrs	r2, r6, #1
 800034a:	431a      	orrs	r2, r3
 800034c:	4646      	mov	r6, r8
 800034e:	087b      	lsrs	r3, r7, #1
 8000350:	e00e      	b.n	8000370 <__udivmoddi4+0xfc>
 8000352:	42ab      	cmp	r3, r5
 8000354:	d101      	bne.n	800035a <__udivmoddi4+0xe6>
 8000356:	42a2      	cmp	r2, r4
 8000358:	d80c      	bhi.n	8000374 <__udivmoddi4+0x100>
 800035a:	1aa4      	subs	r4, r4, r2
 800035c:	419d      	sbcs	r5, r3
 800035e:	2001      	movs	r0, #1
 8000360:	1924      	adds	r4, r4, r4
 8000362:	416d      	adcs	r5, r5
 8000364:	2100      	movs	r1, #0
 8000366:	3e01      	subs	r6, #1
 8000368:	1824      	adds	r4, r4, r0
 800036a:	414d      	adcs	r5, r1
 800036c:	2e00      	cmp	r6, #0
 800036e:	d006      	beq.n	800037e <__udivmoddi4+0x10a>
 8000370:	42ab      	cmp	r3, r5
 8000372:	d9ee      	bls.n	8000352 <__udivmoddi4+0xde>
 8000374:	3e01      	subs	r6, #1
 8000376:	1924      	adds	r4, r4, r4
 8000378:	416d      	adcs	r5, r5
 800037a:	2e00      	cmp	r6, #0
 800037c:	d1f8      	bne.n	8000370 <__udivmoddi4+0xfc>
 800037e:	9800      	ldr	r0, [sp, #0]
 8000380:	9901      	ldr	r1, [sp, #4]
 8000382:	465b      	mov	r3, fp
 8000384:	1900      	adds	r0, r0, r4
 8000386:	4169      	adcs	r1, r5
 8000388:	2b00      	cmp	r3, #0
 800038a:	db24      	blt.n	80003d6 <__udivmoddi4+0x162>
 800038c:	002b      	movs	r3, r5
 800038e:	465a      	mov	r2, fp
 8000390:	4646      	mov	r6, r8
 8000392:	40d3      	lsrs	r3, r2
 8000394:	002a      	movs	r2, r5
 8000396:	001c      	movs	r4, r3
 8000398:	40f2      	lsrs	r2, r6
 800039a:	465b      	mov	r3, fp
 800039c:	0015      	movs	r5, r2
 800039e:	2b00      	cmp	r3, #0
 80003a0:	db2a      	blt.n	80003f8 <__udivmoddi4+0x184>
 80003a2:	0026      	movs	r6, r4
 80003a4:	409e      	lsls	r6, r3
 80003a6:	0033      	movs	r3, r6
 80003a8:	0026      	movs	r6, r4
 80003aa:	4647      	mov	r7, r8
 80003ac:	40be      	lsls	r6, r7
 80003ae:	0032      	movs	r2, r6
 80003b0:	1a80      	subs	r0, r0, r2
 80003b2:	4199      	sbcs	r1, r3
 80003b4:	9000      	str	r0, [sp, #0]
 80003b6:	9101      	str	r1, [sp, #4]
 80003b8:	e79e      	b.n	80002f8 <__udivmoddi4+0x84>
 80003ba:	42a3      	cmp	r3, r4
 80003bc:	d8bc      	bhi.n	8000338 <__udivmoddi4+0xc4>
 80003be:	e782      	b.n	80002c6 <__udivmoddi4+0x52>
 80003c0:	4642      	mov	r2, r8
 80003c2:	2320      	movs	r3, #32
 80003c4:	2100      	movs	r1, #0
 80003c6:	1a9b      	subs	r3, r3, r2
 80003c8:	2200      	movs	r2, #0
 80003ca:	9100      	str	r1, [sp, #0]
 80003cc:	9201      	str	r2, [sp, #4]
 80003ce:	2201      	movs	r2, #1
 80003d0:	40da      	lsrs	r2, r3
 80003d2:	9201      	str	r2, [sp, #4]
 80003d4:	e785      	b.n	80002e2 <__udivmoddi4+0x6e>
 80003d6:	4642      	mov	r2, r8
 80003d8:	2320      	movs	r3, #32
 80003da:	1a9b      	subs	r3, r3, r2
 80003dc:	002a      	movs	r2, r5
 80003de:	4646      	mov	r6, r8
 80003e0:	409a      	lsls	r2, r3
 80003e2:	0023      	movs	r3, r4
 80003e4:	40f3      	lsrs	r3, r6
 80003e6:	4646      	mov	r6, r8
 80003e8:	4313      	orrs	r3, r2
 80003ea:	002a      	movs	r2, r5
 80003ec:	001c      	movs	r4, r3
 80003ee:	40f2      	lsrs	r2, r6
 80003f0:	465b      	mov	r3, fp
 80003f2:	0015      	movs	r5, r2
 80003f4:	2b00      	cmp	r3, #0
 80003f6:	dad4      	bge.n	80003a2 <__udivmoddi4+0x12e>
 80003f8:	2320      	movs	r3, #32
 80003fa:	4642      	mov	r2, r8
 80003fc:	002f      	movs	r7, r5
 80003fe:	1b9b      	subs	r3, r3, r6
 8000400:	4097      	lsls	r7, r2
 8000402:	0026      	movs	r6, r4
 8000404:	40de      	lsrs	r6, r3
 8000406:	003b      	movs	r3, r7
 8000408:	4333      	orrs	r3, r6
 800040a:	e7cd      	b.n	80003a8 <__udivmoddi4+0x134>

0800040c <__clzdi2>:
 800040c:	b510      	push	{r4, lr}
 800040e:	2900      	cmp	r1, #0
 8000410:	d103      	bne.n	800041a <__clzdi2+0xe>
 8000412:	f000 f807 	bl	8000424 <__clzsi2>
 8000416:	3020      	adds	r0, #32
 8000418:	e002      	b.n	8000420 <__clzdi2+0x14>
 800041a:	0008      	movs	r0, r1
 800041c:	f000 f802 	bl	8000424 <__clzsi2>
 8000420:	bd10      	pop	{r4, pc}
 8000422:	46c0      	nop			@ (mov r8, r8)

08000424 <__clzsi2>:
 8000424:	211c      	movs	r1, #28
 8000426:	2301      	movs	r3, #1
 8000428:	041b      	lsls	r3, r3, #16
 800042a:	4298      	cmp	r0, r3
 800042c:	d301      	bcc.n	8000432 <__clzsi2+0xe>
 800042e:	0c00      	lsrs	r0, r0, #16
 8000430:	3910      	subs	r1, #16
 8000432:	0a1b      	lsrs	r3, r3, #8
 8000434:	4298      	cmp	r0, r3
 8000436:	d301      	bcc.n	800043c <__clzsi2+0x18>
 8000438:	0a00      	lsrs	r0, r0, #8
 800043a:	3908      	subs	r1, #8
 800043c:	091b      	lsrs	r3, r3, #4
 800043e:	4298      	cmp	r0, r3
 8000440:	d301      	bcc.n	8000446 <__clzsi2+0x22>
 8000442:	0900      	lsrs	r0, r0, #4
 8000444:	3904      	subs	r1, #4
 8000446:	a202      	add	r2, pc, #8	@ (adr r2, 8000450 <__clzsi2+0x2c>)
 8000448:	5c10      	ldrb	r0, [r2, r0]
 800044a:	1840      	adds	r0, r0, r1
 800044c:	4770      	bx	lr
 800044e:	46c0      	nop			@ (mov r8, r8)
 8000450:	02020304 	.word	0x02020304
 8000454:	01010101 	.word	0x01010101
	...

08000460 <MX_AES_Init>:
uint32_t pKeyAES[4] = {0x2B7E1516,0x28AED2A6,0xABF71588,0x09CF4F3C};
uint32_t pInitVectAES[4] = {0x00010203,0x04050607,0x08090A0B,0x0C0D0E0F};

/* AES init function */
void MX_AES_Init(void)
{
 8000460:	b580      	push	{r7, lr}
 8000462:	af00      	add	r7, sp, #0
  /* USER CODE END AES_Init 0 */

  /* USER CODE BEGIN AES_Init 1 */

  /* USER CODE END AES_Init 1 */
  hcryp.Instance = AES;
 8000464:	4b12      	ldr	r3, [pc, #72]	@ (80004b0 <MX_AES_Init+0x50>)
 8000466:	4a13      	ldr	r2, [pc, #76]	@ (80004b4 <MX_AES_Init+0x54>)
 8000468:	601a      	str	r2, [r3, #0]
  hcryp.Init.DataType = CRYP_DATATYPE_8B;
 800046a:	4b11      	ldr	r3, [pc, #68]	@ (80004b0 <MX_AES_Init+0x50>)
 800046c:	2204      	movs	r2, #4
 800046e:	605a      	str	r2, [r3, #4]
  hcryp.Init.KeySize = CRYP_KEYSIZE_128B;
 8000470:	4b0f      	ldr	r3, [pc, #60]	@ (80004b0 <MX_AES_Init+0x50>)
 8000472:	2200      	movs	r2, #0
 8000474:	609a      	str	r2, [r3, #8]
  hcryp.Init.pKey = (uint32_t *)pKeyAES;
 8000476:	4b0e      	ldr	r3, [pc, #56]	@ (80004b0 <MX_AES_Init+0x50>)
 8000478:	4a0f      	ldr	r2, [pc, #60]	@ (80004b8 <MX_AES_Init+0x58>)
 800047a:	60da      	str	r2, [r3, #12]
  hcryp.Init.pInitVect = (uint32_t *)pInitVectAES;
 800047c:	4b0c      	ldr	r3, [pc, #48]	@ (80004b0 <MX_AES_Init+0x50>)
 800047e:	4a0f      	ldr	r2, [pc, #60]	@ (80004bc <MX_AES_Init+0x5c>)
 8000480:	611a      	str	r2, [r3, #16]
  hcryp.Init.Algorithm = CRYP_AES_CBC;
 8000482:	4b0b      	ldr	r3, [pc, #44]	@ (80004b0 <MX_AES_Init+0x50>)
 8000484:	2220      	movs	r2, #32
 8000486:	615a      	str	r2, [r3, #20]
  hcryp.Init.DataWidthUnit = CRYP_DATAWIDTHUNIT_BYTE;
 8000488:	4b09      	ldr	r3, [pc, #36]	@ (80004b0 <MX_AES_Init+0x50>)
 800048a:	2201      	movs	r2, #1
 800048c:	625a      	str	r2, [r3, #36]	@ 0x24
  hcryp.Init.HeaderWidthUnit = CRYP_HEADERWIDTHUNIT_BYTE;
 800048e:	4b08      	ldr	r3, [pc, #32]	@ (80004b0 <MX_AES_Init+0x50>)
 8000490:	2201      	movs	r2, #1
 8000492:	629a      	str	r2, [r3, #40]	@ 0x28
  hcryp.Init.KeyIVConfigSkip = CRYP_KEYIVCONFIG_ALWAYS;
 8000494:	4b06      	ldr	r3, [pc, #24]	@ (80004b0 <MX_AES_Init+0x50>)
 8000496:	2200      	movs	r2, #0
 8000498:	62da      	str	r2, [r3, #44]	@ 0x2c
  if (HAL_CRYP_Init(&hcryp) != HAL_OK)
 800049a:	4b05      	ldr	r3, [pc, #20]	@ (80004b0 <MX_AES_Init+0x50>)
 800049c:	0018      	movs	r0, r3
 800049e:	f000 fefb 	bl	8001298 <HAL_CRYP_Init>
 80004a2:	1e03      	subs	r3, r0, #0
 80004a4:	d001      	beq.n	80004aa <MX_AES_Init+0x4a>
  {
    Error_Handler();
 80004a6:	f000 f9b1 	bl	800080c <Error_Handler>
  }
  /* USER CODE BEGIN AES_Init 2 */

  /* USER CODE END AES_Init 2 */

}
 80004aa:	46c0      	nop			@ (mov r8, r8)
 80004ac:	46bd      	mov	sp, r7
 80004ae:	bd80      	pop	{r7, pc}
 80004b0:	200000ec 	.word	0x200000ec
 80004b4:	40026000 	.word	0x40026000
 80004b8:	20000014 	.word	0x20000014
 80004bc:	20000024 	.word	0x20000024

080004c0 <HAL_CRYP_MspInit>:

void HAL_CRYP_MspInit(CRYP_HandleTypeDef* crypHandle)
{
 80004c0:	b580      	push	{r7, lr}
 80004c2:	b084      	sub	sp, #16
 80004c4:	af00      	add	r7, sp, #0
 80004c6:	6078      	str	r0, [r7, #4]

  if(crypHandle->Instance==AES)
 80004c8:	687b      	ldr	r3, [r7, #4]
 80004ca:	681b      	ldr	r3, [r3, #0]
 80004cc:	4a0e      	ldr	r2, [pc, #56]	@ (8000508 <HAL_CRYP_MspInit+0x48>)
 80004ce:	4293      	cmp	r3, r2
 80004d0:	d115      	bne.n	80004fe <HAL_CRYP_MspInit+0x3e>
  {
  /* USER CODE BEGIN AES_MspInit 0 */

  /* USER CODE END AES_MspInit 0 */
    /* AES clock enable */
    __HAL_RCC_AES_CLK_ENABLE();
 80004d2:	4b0e      	ldr	r3, [pc, #56]	@ (800050c <HAL_CRYP_MspInit+0x4c>)
 80004d4:	6c9a      	ldr	r2, [r3, #72]	@ 0x48
 80004d6:	4b0d      	ldr	r3, [pc, #52]	@ (800050c <HAL_CRYP_MspInit+0x4c>)
 80004d8:	2180      	movs	r1, #128	@ 0x80
 80004da:	0249      	lsls	r1, r1, #9
 80004dc:	430a      	orrs	r2, r1
 80004de:	649a      	str	r2, [r3, #72]	@ 0x48
 80004e0:	4b0a      	ldr	r3, [pc, #40]	@ (800050c <HAL_CRYP_MspInit+0x4c>)
 80004e2:	6c9a      	ldr	r2, [r3, #72]	@ 0x48
 80004e4:	2380      	movs	r3, #128	@ 0x80
 80004e6:	025b      	lsls	r3, r3, #9
 80004e8:	4013      	ands	r3, r2
 80004ea:	60fb      	str	r3, [r7, #12]
 80004ec:	68fb      	ldr	r3, [r7, #12]

    /* AES interrupt Init */
    HAL_NVIC_SetPriority(RNG_CRYP_IRQn, 0, 0);
 80004ee:	2200      	movs	r2, #0
 80004f0:	2100      	movs	r1, #0
 80004f2:	201f      	movs	r0, #31
 80004f4:	f000 fe9e 	bl	8001234 <HAL_NVIC_SetPriority>
    HAL_NVIC_EnableIRQ(RNG_CRYP_IRQn);
 80004f8:	201f      	movs	r0, #31
 80004fa:	f000 feb0 	bl	800125e <HAL_NVIC_EnableIRQ>
  /* USER CODE BEGIN AES_MspInit 1 */

  /* USER CODE END AES_MspInit 1 */
  }
}
 80004fe:	46c0      	nop			@ (mov r8, r8)
 8000500:	46bd      	mov	sp, r7
 8000502:	b004      	add	sp, #16
 8000504:	bd80      	pop	{r7, pc}
 8000506:	46c0      	nop			@ (mov r8, r8)
 8000508:	40026000 	.word	0x40026000
 800050c:	40021000 	.word	0x40021000

08000510 <HAL_CRYP_MspDeInit>:

void HAL_CRYP_MspDeInit(CRYP_HandleTypeDef* crypHandle)
{
 8000510:	b580      	push	{r7, lr}
 8000512:	b082      	sub	sp, #8
 8000514:	af00      	add	r7, sp, #0
 8000516:	6078      	str	r0, [r7, #4]

  if(crypHandle->Instance==AES)
 8000518:	687b      	ldr	r3, [r7, #4]
 800051a:	681b      	ldr	r3, [r3, #0]
 800051c:	4a06      	ldr	r2, [pc, #24]	@ (8000538 <HAL_CRYP_MspDeInit+0x28>)
 800051e:	4293      	cmp	r3, r2
 8000520:	d105      	bne.n	800052e <HAL_CRYP_MspDeInit+0x1e>
  {
  /* USER CODE BEGIN AES_MspDeInit 0 */

  /* USER CODE END AES_MspDeInit 0 */
    /* Peripheral clock disable */
    __HAL_RCC_AES_CLK_DISABLE();
 8000522:	4b06      	ldr	r3, [pc, #24]	@ (800053c <HAL_CRYP_MspDeInit+0x2c>)
 8000524:	6c9a      	ldr	r2, [r3, #72]	@ 0x48
 8000526:	4b05      	ldr	r3, [pc, #20]	@ (800053c <HAL_CRYP_MspDeInit+0x2c>)
 8000528:	4905      	ldr	r1, [pc, #20]	@ (8000540 <HAL_CRYP_MspDeInit+0x30>)
 800052a:	400a      	ands	r2, r1
 800052c:	649a      	str	r2, [r3, #72]	@ 0x48

  /* USER CODE BEGIN AES_MspDeInit 1 */

  /* USER CODE END AES_MspDeInit 1 */
  }
}
 800052e:	46c0      	nop			@ (mov r8, r8)
 8000530:	46bd      	mov	sp, r7
 8000532:	b002      	add	sp, #8
 8000534:	bd80      	pop	{r7, pc}
 8000536:	46c0      	nop			@ (mov r8, r8)
 8000538:	40026000 	.word	0x40026000
 800053c:	40021000 	.word	0x40021000
 8000540:	fffeffff 	.word	0xfffeffff

08000544 <SecureComms_EncryptPayload>:

/* USER CODE BEGIN 1 */

void SecureComms_EncryptPayload(void) {
 8000544:	b580      	push	{r7, lr}
 8000546:	b082      	sub	sp, #8
 8000548:	af02      	add	r7, sp, #8

	if ( HAL_CRYP_Encrypt(&hcryp, (uint32_t*) PlaintxtData,
 800054a:	4a08      	ldr	r2, [pc, #32]	@ (800056c <SecureComms_EncryptPayload+0x28>)
 800054c:	4908      	ldr	r1, [pc, #32]	@ (8000570 <SecureComms_EncryptPayload+0x2c>)
 800054e:	4809      	ldr	r0, [pc, #36]	@ (8000574 <SecureComms_EncryptPayload+0x30>)
 8000550:	2301      	movs	r3, #1
 8000552:	425b      	negs	r3, r3
 8000554:	9300      	str	r3, [sp, #0]
 8000556:	0013      	movs	r3, r2
 8000558:	2210      	movs	r2, #16
 800055a:	f000 ff0b 	bl	8001374 <HAL_CRYP_Encrypt>
 800055e:	1e03      	subs	r3, r0, #0
 8000560:	d001      	beq.n	8000566 <SecureComms_EncryptPayload+0x22>
		 16, (uint32_t*) CipherOutput, HAL_MAX_DELAY) != HAL_OK) {

		Error_Handler();
 8000562:	f000 f953 	bl	800080c <Error_Handler>
	}
}
 8000566:	46c0      	nop			@ (mov r8, r8)
 8000568:	46bd      	mov	sp, r7
 800056a:	bd80      	pop	{r7, pc}
 800056c:	200000cc 	.word	0x200000cc
 8000570:	20000000 	.word	0x20000000
 8000574:	200000ec 	.word	0x200000ec

08000578 <SecureComms_DecryptPayload>:

void SecureComms_DecryptPayload(void) {
 8000578:	b580      	push	{r7, lr}
 800057a:	b082      	sub	sp, #8
 800057c:	af02      	add	r7, sp, #8
	/* CBC requires reinitialisation for summary symmetry */
	HAL_CRYP_DeInit(&hcryp);
 800057e:	4b0b      	ldr	r3, [pc, #44]	@ (80005ac <SecureComms_DecryptPayload+0x34>)
 8000580:	0018      	movs	r0, r3
 8000582:	f000 fec7 	bl	8001314 <HAL_CRYP_DeInit>
	MX_AES_Init();
 8000586:	f7ff ff6b 	bl	8000460 <MX_AES_Init>

	if (HAL_CRYP_Decrypt(&hcryp, (uint32_t*) CipherOutput, 16,
 800058a:	4a09      	ldr	r2, [pc, #36]	@ (80005b0 <SecureComms_DecryptPayload+0x38>)
 800058c:	4909      	ldr	r1, [pc, #36]	@ (80005b4 <SecureComms_DecryptPayload+0x3c>)
 800058e:	4807      	ldr	r0, [pc, #28]	@ (80005ac <SecureComms_DecryptPayload+0x34>)
 8000590:	2301      	movs	r3, #1
 8000592:	425b      	negs	r3, r3
 8000594:	9300      	str	r3, [sp, #0]
 8000596:	0013      	movs	r3, r2
 8000598:	2210      	movs	r2, #16
 800059a:	f000 ff9f 	bl	80014dc <HAL_CRYP_Decrypt>
 800059e:	1e03      	subs	r3, r0, #0
 80005a0:	d001      	beq.n	80005a6 <SecureComms_DecryptPayload+0x2e>
			(uint32_t*) DecryptedData, HAL_MAX_DELAY) != HAL_OK) {
		Error_Handler();
 80005a2:	f000 f933 	bl	800080c <Error_Handler>
	}

}
 80005a6:	46c0      	nop			@ (mov r8, r8)
 80005a8:	46bd      	mov	sp, r7
 80005aa:	bd80      	pop	{r7, pc}
 80005ac:	200000ec 	.word	0x200000ec
 80005b0:	200000dc 	.word	0x200000dc
 80005b4:	200000cc 	.word	0x200000cc

080005b8 <MX_GPIO_Init>:
     PA3   ------> USART2_RX
     PA13 (SWDIO)   ------> DEBUG_JTMS-SWDIO
     PA14 (SWCLK)   ------> DEBUG_JTCK-SWCLK
*/
void MX_GPIO_Init(void)
{
 80005b8:	b590      	push	{r4, r7, lr}
 80005ba:	b089      	sub	sp, #36	@ 0x24
 80005bc:	af00      	add	r7, sp, #0

  GPIO_InitTypeDef GPIO_InitStruct = {0};
 80005be:	240c      	movs	r4, #12
 80005c0:	193b      	adds	r3, r7, r4
 80005c2:	0018      	movs	r0, r3
 80005c4:	2314      	movs	r3, #20
 80005c6:	001a      	movs	r2, r3
 80005c8:	2100      	movs	r1, #0
 80005ca:	f005 fe33 	bl	8006234 <memset>

  /* GPIO Ports Clock Enable */
  __HAL_RCC_GPIOC_CLK_ENABLE();
 80005ce:	4b1f      	ldr	r3, [pc, #124]	@ (800064c <MX_GPIO_Init+0x94>)
 80005d0:	6cda      	ldr	r2, [r3, #76]	@ 0x4c
 80005d2:	4b1e      	ldr	r3, [pc, #120]	@ (800064c <MX_GPIO_Init+0x94>)
 80005d4:	2104      	movs	r1, #4
 80005d6:	430a      	orrs	r2, r1
 80005d8:	64da      	str	r2, [r3, #76]	@ 0x4c
 80005da:	4b1c      	ldr	r3, [pc, #112]	@ (800064c <MX_GPIO_Init+0x94>)
 80005dc:	6cdb      	ldr	r3, [r3, #76]	@ 0x4c
 80005de:	2204      	movs	r2, #4
 80005e0:	4013      	ands	r3, r2
 80005e2:	60bb      	str	r3, [r7, #8]
 80005e4:	68bb      	ldr	r3, [r7, #8]
  __HAL_RCC_GPIOF_CLK_ENABLE();
 80005e6:	4b19      	ldr	r3, [pc, #100]	@ (800064c <MX_GPIO_Init+0x94>)
 80005e8:	6cda      	ldr	r2, [r3, #76]	@ 0x4c
 80005ea:	4b18      	ldr	r3, [pc, #96]	@ (800064c <MX_GPIO_Init+0x94>)
 80005ec:	2120      	movs	r1, #32
 80005ee:	430a      	orrs	r2, r1
 80005f0:	64da      	str	r2, [r3, #76]	@ 0x4c
 80005f2:	4b16      	ldr	r3, [pc, #88]	@ (800064c <MX_GPIO_Init+0x94>)
 80005f4:	6cdb      	ldr	r3, [r3, #76]	@ 0x4c
 80005f6:	2220      	movs	r2, #32
 80005f8:	4013      	ands	r3, r2
 80005fa:	607b      	str	r3, [r7, #4]
 80005fc:	687b      	ldr	r3, [r7, #4]
  __HAL_RCC_GPIOA_CLK_ENABLE();
 80005fe:	4b13      	ldr	r3, [pc, #76]	@ (800064c <MX_GPIO_Init+0x94>)
 8000600:	6cda      	ldr	r2, [r3, #76]	@ 0x4c
 8000602:	4b12      	ldr	r3, [pc, #72]	@ (800064c <MX_GPIO_Init+0x94>)
 8000604:	2101      	movs	r1, #1
 8000606:	430a      	orrs	r2, r1
 8000608:	64da      	str	r2, [r3, #76]	@ 0x4c
 800060a:	4b10      	ldr	r3, [pc, #64]	@ (800064c <MX_GPIO_Init+0x94>)
 800060c:	6cdb      	ldr	r3, [r3, #76]	@ 0x4c
 800060e:	2201      	movs	r2, #1
 8000610:	4013      	ands	r3, r2
 8000612:	603b      	str	r3, [r7, #0]
 8000614:	683b      	ldr	r3, [r7, #0]

  /*Configure GPIO pins : PA2 PA3 */
  GPIO_InitStruct.Pin = GPIO_PIN_2|GPIO_PIN_3;
 8000616:	0021      	movs	r1, r4
 8000618:	187b      	adds	r3, r7, r1
 800061a:	220c      	movs	r2, #12
 800061c:	601a      	str	r2, [r3, #0]
  GPIO_InitStruct.Mode = GPIO_MODE_AF_PP;
 800061e:	187b      	adds	r3, r7, r1
 8000620:	2202      	movs	r2, #2
 8000622:	605a      	str	r2, [r3, #4]
  GPIO_InitStruct.Pull = GPIO_NOPULL;
 8000624:	187b      	adds	r3, r7, r1
 8000626:	2200      	movs	r2, #0
 8000628:	609a      	str	r2, [r3, #8]
  GPIO_InitStruct.Speed = GPIO_SPEED_FREQ_LOW;
 800062a:	187b      	adds	r3, r7, r1
 800062c:	2200      	movs	r2, #0
 800062e:	60da      	str	r2, [r3, #12]
  GPIO_InitStruct.Alternate = GPIO_AF7_USART2;
 8000630:	187b      	adds	r3, r7, r1
 8000632:	2207      	movs	r2, #7
 8000634:	611a      	str	r2, [r3, #16]
  HAL_GPIO_Init(GPIOA, &GPIO_InitStruct);
 8000636:	187a      	adds	r2, r7, r1
 8000638:	23a0      	movs	r3, #160	@ 0xa0
 800063a:	05db      	lsls	r3, r3, #23
 800063c:	0011      	movs	r1, r2
 800063e:	0018      	movs	r0, r3
 8000640:	f002 fd0c 	bl	800305c <HAL_GPIO_Init>

}
 8000644:	46c0      	nop			@ (mov r8, r8)
 8000646:	46bd      	mov	sp, r7
 8000648:	b009      	add	sp, #36	@ 0x24
 800064a:	bd90      	pop	{r4, r7, pc}
 800064c:	40021000 	.word	0x40021000

08000650 <main>:
/**
  * @brief  The application entry point.
  * @retval int
  */
int main(void)
{
 8000650:	b580      	push	{r7, lr}
 8000652:	af00      	add	r7, sp, #0
  /* USER CODE END 1 */

  /* MCU Configuration--------------------------------------------------------*/

  /* Reset of all peripherals, Initializes the Flash interface and the Systick. */
  HAL_Init();
 8000654:	f000 fcc4 	bl	8000fe0 <HAL_Init>
  /* USER CODE BEGIN Init */

  /* USER CODE END Init */

  /* Configure the system clock */
  SystemClock_Config();
 8000658:	f000 f85c 	bl	8000714 <SystemClock_Config>
  /* USER CODE BEGIN SysInit */

  /* USER CODE END SysInit */

  /* Initialize all configured peripherals */
  MX_GPIO_Init();
 800065c:	f7ff ffac 	bl	80005b8 <MX_GPIO_Init>
  MX_AES_Init();
 8000660:	f7ff fefe 	bl	8000460 <MX_AES_Init>
  MX_RNG_Init();
 8000664:	f000 f8d8 	bl	8000818 <MX_RNG_Init>
  /* USER CODE BEGIN 2 */

  /* USER CODE END 2 */

  /* Initialize leds */
  BSP_LED_Init(LED_GREEN);
 8000668:	2000      	movs	r0, #0
 800066a:	f000 fabb 	bl	8000be4 <BSP_LED_Init>

  /* Initialize USER push-button, will be used to trigger an interrupt each time it's pressed.*/
  BSP_PB_Init(BUTTON_USER, BUTTON_MODE_EXTI);
 800066e:	2101      	movs	r1, #1
 8000670:	2000      	movs	r0, #0
 8000672:	f000 fb39 	bl	8000ce8 <BSP_PB_Init>

  /* Initialize COM1 port (115200, 8 bits (7-bit data + 1 stop bit), no parity */
  BspCOMInit.BaudRate   = 115200;
 8000676:	4b21      	ldr	r3, [pc, #132]	@ (80006fc <main+0xac>)
 8000678:	22e1      	movs	r2, #225	@ 0xe1
 800067a:	0252      	lsls	r2, r2, #9
 800067c:	601a      	str	r2, [r3, #0]
  BspCOMInit.WordLength = COM_WORDLENGTH_8B;
 800067e:	4b1f      	ldr	r3, [pc, #124]	@ (80006fc <main+0xac>)
 8000680:	2200      	movs	r2, #0
 8000682:	605a      	str	r2, [r3, #4]
  BspCOMInit.StopBits   = COM_STOPBITS_1;
 8000684:	4b1d      	ldr	r3, [pc, #116]	@ (80006fc <main+0xac>)
 8000686:	2200      	movs	r2, #0
 8000688:	811a      	strh	r2, [r3, #8]
  BspCOMInit.Parity     = COM_PARITY_NONE;
 800068a:	4b1c      	ldr	r3, [pc, #112]	@ (80006fc <main+0xac>)
 800068c:	2200      	movs	r2, #0
 800068e:	815a      	strh	r2, [r3, #10]
  BspCOMInit.HwFlowCtl  = COM_HWCONTROL_NONE;
 8000690:	4b1a      	ldr	r3, [pc, #104]	@ (80006fc <main+0xac>)
 8000692:	2200      	movs	r2, #0
 8000694:	819a      	strh	r2, [r3, #12]
  if (BSP_COM_Init(COM1, &BspCOMInit) != BSP_ERROR_NONE)
 8000696:	4b19      	ldr	r3, [pc, #100]	@ (80006fc <main+0xac>)
 8000698:	0019      	movs	r1, r3
 800069a:	2000      	movs	r0, #0
 800069c:	f000 fbbe 	bl	8000e1c <BSP_COM_Init>
 80006a0:	1e03      	subs	r3, r0, #0
 80006a2:	d001      	beq.n	80006a8 <main+0x58>
  {
    Error_Handler();
 80006a4:	f000 f8b2 	bl	800080c <Error_Handler>
  }

  /* USER CODE BEGIN BSP */

  /* -- Sample board code to send message over COM1 port ---- */
  printf("Welcome to STM32 world !\r\n");
 80006a8:	4b15      	ldr	r3, [pc, #84]	@ (8000700 <main+0xb0>)
 80006aa:	0018      	movs	r0, r3
 80006ac:	f005 fcd0 	bl	8006050 <puts>

  /* -- Sample board code to switch on leds ---- */
  BSP_LED_On(LED_GREEN);
 80006b0:	2000      	movs	r0, #0
 80006b2:	f000 fad5 	bl	8000c60 <BSP_LED_On>
  /* Infinite loop */
  /* USER CODE BEGIN WHILE */
  while (1) {

    /* -- Sample board code for User push-button in interrupt mode ---- */
    if (BspButtonState == BUTTON_PRESSED) {
 80006b6:	4b13      	ldr	r3, [pc, #76]	@ (8000704 <main+0xb4>)
 80006b8:	681b      	ldr	r3, [r3, #0]
 80006ba:	2b01      	cmp	r3, #1
 80006bc:	d10e      	bne.n	80006dc <main+0x8c>
      /* Update button state */
      BspButtonState = BUTTON_RELEASED;
 80006be:	4b11      	ldr	r3, [pc, #68]	@ (8000704 <main+0xb4>)
 80006c0:	2200      	movs	r2, #0
 80006c2:	601a      	str	r2, [r3, #0]
      /* -- Sample board code to toggle leds ---- */
      BSP_LED_Toggle(LED_GREEN);
 80006c4:	2000      	movs	r0, #0
 80006c6:	f000 faed 	bl	8000ca4 <BSP_LED_Toggle>

#ifndef RNG_VIA_INTERRUPT
      randomSeed=Security_GetRandomSeed();
#else
      randomSeedReady = 0;
 80006ca:	4b0f      	ldr	r3, [pc, #60]	@ (8000708 <main+0xb8>)
 80006cc:	2200      	movs	r2, #0
 80006ce:	701a      	strb	r2, [r3, #0]
      Security_GetRandomSeed_IT();
 80006d0:	f000 f8fa 	bl	80008c8 <Security_GetRandomSeed_IT>
#endif

      SecureComms_EncryptPayload();
 80006d4:	f7ff ff36 	bl	8000544 <SecureComms_EncryptPayload>
      SecureComms_DecryptPayload();
 80006d8:	f7ff ff4e 	bl	8000578 <SecureComms_DecryptPayload>

    }

#ifdef RNG_VIA_INTERRUPT
    if (randomSeedReady == 1) {
 80006dc:	4b0a      	ldr	r3, [pc, #40]	@ (8000708 <main+0xb8>)
 80006de:	781b      	ldrb	r3, [r3, #0]
 80006e0:	b2db      	uxtb	r3, r3
 80006e2:	2b01      	cmp	r3, #1
 80006e4:	d1e7      	bne.n	80006b6 <main+0x66>
	  randomSeedReady = 0;
 80006e6:	4b08      	ldr	r3, [pc, #32]	@ (8000708 <main+0xb8>)
 80006e8:	2200      	movs	r2, #0
 80006ea:	701a      	strb	r2, [r3, #0]
	  printf("Wygenerowano seed: %lu\r\n", randomSeed);
 80006ec:	4b07      	ldr	r3, [pc, #28]	@ (800070c <main+0xbc>)
 80006ee:	681a      	ldr	r2, [r3, #0]
 80006f0:	4b07      	ldr	r3, [pc, #28]	@ (8000710 <main+0xc0>)
 80006f2:	0011      	movs	r1, r2
 80006f4:	0018      	movs	r0, r3
 80006f6:	f005 fc45 	bl	8005f84 <iprintf>
    if (BspButtonState == BUTTON_PRESSED) {
 80006fa:	e7dc      	b.n	80006b6 <main+0x66>
 80006fc:	2000014c 	.word	0x2000014c
 8000700:	08006d7c 	.word	0x08006d7c
 8000704:	2000015c 	.word	0x2000015c
 8000708:	20000164 	.word	0x20000164
 800070c:	20000160 	.word	0x20000160
 8000710:	08006d98 	.word	0x08006d98

08000714 <SystemClock_Config>:
/**
  * @brief System Clock Configuration
  * @retval None
  */
void SystemClock_Config(void)
{
 8000714:	b590      	push	{r4, r7, lr}
 8000716:	b099      	sub	sp, #100	@ 0x64
 8000718:	af00      	add	r7, sp, #0
  RCC_OscInitTypeDef RCC_OscInitStruct = {0};
 800071a:	2414      	movs	r4, #20
 800071c:	193b      	adds	r3, r7, r4
 800071e:	0018      	movs	r0, r3
 8000720:	234c      	movs	r3, #76	@ 0x4c
 8000722:	001a      	movs	r2, r3
 8000724:	2100      	movs	r1, #0
 8000726:	f005 fd85 	bl	8006234 <memset>
  RCC_ClkInitTypeDef RCC_ClkInitStruct = {0};
 800072a:	1d3b      	adds	r3, r7, #4
 800072c:	0018      	movs	r0, r3
 800072e:	2310      	movs	r3, #16
 8000730:	001a      	movs	r2, r3
 8000732:	2100      	movs	r1, #0
 8000734:	f005 fd7e 	bl	8006234 <memset>

  /** Configure the main internal regulator output voltage
  */
  HAL_PWREx_ControlVoltageScaling(PWR_REGULATOR_VOLTAGE_SCALE1);
 8000738:	2380      	movs	r3, #128	@ 0x80
 800073a:	009b      	lsls	r3, r3, #2
 800073c:	0018      	movs	r0, r3
 800073e:	f002 fe39 	bl	80033b4 <HAL_PWREx_ControlVoltageScaling>

  /** Initializes the RCC Oscillators according to the specified parameters
  * in the RCC_OscInitTypeDef structure.
  */
  RCC_OscInitStruct.OscillatorType = RCC_OSCILLATORTYPE_HSI|RCC_OSCILLATORTYPE_HSI48
 8000742:	193b      	adds	r3, r7, r4
 8000744:	2232      	movs	r2, #50	@ 0x32
 8000746:	601a      	str	r2, [r3, #0]
                              |RCC_OSCILLATORTYPE_MSI;
  RCC_OscInitStruct.HSIState = RCC_HSI_ON;
 8000748:	193b      	adds	r3, r7, r4
 800074a:	2280      	movs	r2, #128	@ 0x80
 800074c:	0052      	lsls	r2, r2, #1
 800074e:	60da      	str	r2, [r3, #12]
  RCC_OscInitStruct.HSICalibrationValue = RCC_HSICALIBRATION_DEFAULT;
 8000750:	0021      	movs	r1, r4
 8000752:	187b      	adds	r3, r7, r1
 8000754:	2240      	movs	r2, #64	@ 0x40
 8000756:	611a      	str	r2, [r3, #16]
  RCC_OscInitStruct.MSIState = RCC_MSI_ON;
 8000758:	187b      	adds	r3, r7, r1
 800075a:	2201      	movs	r2, #1
 800075c:	61da      	str	r2, [r3, #28]
  RCC_OscInitStruct.MSICalibrationValue = RCC_MSICALIBRATION_DEFAULT;
 800075e:	187b      	adds	r3, r7, r1
 8000760:	2200      	movs	r2, #0
 8000762:	621a      	str	r2, [r3, #32]
  RCC_OscInitStruct.MSIClockRange = RCC_MSIRANGE_11;
 8000764:	187b      	adds	r3, r7, r1
 8000766:	22b0      	movs	r2, #176	@ 0xb0
 8000768:	625a      	str	r2, [r3, #36]	@ 0x24
  RCC_OscInitStruct.HSI48State = RCC_HSI48_ON;
 800076a:	187b      	adds	r3, r7, r1
 800076c:	2201      	movs	r2, #1
 800076e:	629a      	str	r2, [r3, #40]	@ 0x28
  RCC_OscInitStruct.PLL.PLLState = RCC_PLL_ON;
 8000770:	187b      	adds	r3, r7, r1
 8000772:	2202      	movs	r2, #2
 8000774:	62da      	str	r2, [r3, #44]	@ 0x2c
  RCC_OscInitStruct.PLL.PLLSource = RCC_PLLSOURCE_HSI;
 8000776:	187b      	adds	r3, r7, r1
 8000778:	2202      	movs	r2, #2
 800077a:	631a      	str	r2, [r3, #48]	@ 0x30
  RCC_OscInitStruct.PLL.PLLM = RCC_PLLM_DIV1;
 800077c:	187b      	adds	r3, r7, r1
 800077e:	2200      	movs	r2, #0
 8000780:	635a      	str	r2, [r3, #52]	@ 0x34
  RCC_OscInitStruct.PLL.PLLN = 7;
 8000782:	187b      	adds	r3, r7, r1
 8000784:	2207      	movs	r2, #7
 8000786:	639a      	str	r2, [r3, #56]	@ 0x38
  RCC_OscInitStruct.PLL.PLLP = RCC_PLLP_DIV2;
 8000788:	187b      	adds	r3, r7, r1
 800078a:	2280      	movs	r2, #128	@ 0x80
 800078c:	0292      	lsls	r2, r2, #10
 800078e:	63da      	str	r2, [r3, #60]	@ 0x3c
  RCC_OscInitStruct.PLL.PLLQ = RCC_PLLQ_DIV2;
 8000790:	187b      	adds	r3, r7, r1
 8000792:	2280      	movs	r2, #128	@ 0x80
 8000794:	0492      	lsls	r2, r2, #18
 8000796:	641a      	str	r2, [r3, #64]	@ 0x40
  RCC_OscInitStruct.PLL.PLLR = RCC_PLLR_DIV2;
 8000798:	187b      	adds	r3, r7, r1
 800079a:	2280      	movs	r2, #128	@ 0x80
 800079c:	0592      	lsls	r2, r2, #22
 800079e:	645a      	str	r2, [r3, #68]	@ 0x44
  if (HAL_RCC_OscConfig(&RCC_OscInitStruct) != HAL_OK)
 80007a0:	187b      	adds	r3, r7, r1
 80007a2:	0018      	movs	r0, r3
 80007a4:	f002 fe72 	bl	800348c <HAL_RCC_OscConfig>
 80007a8:	1e03      	subs	r3, r0, #0
 80007aa:	d001      	beq.n	80007b0 <SystemClock_Config+0x9c>
  {
    Error_Handler();
 80007ac:	f000 f82e 	bl	800080c <Error_Handler>
  }

  /** Initializes the CPU, AHB and APB buses clocks
  */
  RCC_ClkInitStruct.ClockType = RCC_CLOCKTYPE_HCLK|RCC_CLOCKTYPE_SYSCLK
 80007b0:	1d3b      	adds	r3, r7, #4
 80007b2:	2207      	movs	r2, #7
 80007b4:	601a      	str	r2, [r3, #0]
                              |RCC_CLOCKTYPE_PCLK1;
  RCC_ClkInitStruct.SYSCLKSource = RCC_SYSCLKSOURCE_PLLCLK;
 80007b6:	1d3b      	adds	r3, r7, #4
 80007b8:	2203      	movs	r2, #3
 80007ba:	605a      	str	r2, [r3, #4]
  RCC_ClkInitStruct.AHBCLKDivider = RCC_SYSCLK_DIV1;
 80007bc:	1d3b      	adds	r3, r7, #4
 80007be:	2200      	movs	r2, #0
 80007c0:	609a      	str	r2, [r3, #8]
  RCC_ClkInitStruct.APB1CLKDivider = RCC_HCLK_DIV1;
 80007c2:	1d3b      	adds	r3, r7, #4
 80007c4:	2200      	movs	r2, #0
 80007c6:	60da      	str	r2, [r3, #12]

  if (HAL_RCC_ClockConfig(&RCC_ClkInitStruct, FLASH_LATENCY_2) != HAL_OK)
 80007c8:	1d3b      	adds	r3, r7, #4
 80007ca:	2102      	movs	r1, #2
 80007cc:	0018      	movs	r0, r3
 80007ce:	f003 fa87 	bl	8003ce0 <HAL_RCC_ClockConfig>
 80007d2:	1e03      	subs	r3, r0, #0
 80007d4:	d001      	beq.n	80007da <SystemClock_Config+0xc6>
  {
    Error_Handler();
 80007d6:	f000 f819 	bl	800080c <Error_Handler>
  }
}
 80007da:	46c0      	nop			@ (mov r8, r8)
 80007dc:	46bd      	mov	sp, r7
 80007de:	b019      	add	sp, #100	@ 0x64
 80007e0:	bd90      	pop	{r4, r7, pc}
	...

080007e4 <BSP_PB_Callback>:
  * @brief  BSP Push Button callback
  * @param  Button Specifies the pressed button
  * @retval None
  */
void BSP_PB_Callback(Button_TypeDef Button)
{
 80007e4:	b580      	push	{r7, lr}
 80007e6:	b082      	sub	sp, #8
 80007e8:	af00      	add	r7, sp, #0
 80007ea:	0002      	movs	r2, r0
 80007ec:	1dfb      	adds	r3, r7, #7
 80007ee:	701a      	strb	r2, [r3, #0]
  if (Button == BUTTON_USER)
 80007f0:	1dfb      	adds	r3, r7, #7
 80007f2:	781b      	ldrb	r3, [r3, #0]
 80007f4:	2b00      	cmp	r3, #0
 80007f6:	d102      	bne.n	80007fe <BSP_PB_Callback+0x1a>
  {
    BspButtonState = BUTTON_PRESSED;
 80007f8:	4b03      	ldr	r3, [pc, #12]	@ (8000808 <BSP_PB_Callback+0x24>)
 80007fa:	2201      	movs	r2, #1
 80007fc:	601a      	str	r2, [r3, #0]
  }
}
 80007fe:	46c0      	nop			@ (mov r8, r8)
 8000800:	46bd      	mov	sp, r7
 8000802:	b002      	add	sp, #8
 8000804:	bd80      	pop	{r7, pc}
 8000806:	46c0      	nop			@ (mov r8, r8)
 8000808:	2000015c 	.word	0x2000015c

0800080c <Error_Handler>:
/**
  * @brief  This function is executed in case of error occurrence.
  * @retval None
  */
void Error_Handler(void)
{
 800080c:	b580      	push	{r7, lr}
 800080e:	af00      	add	r7, sp, #0
  \details Disables IRQ interrupts by setting special-purpose register PRIMASK.
           Can only be executed in Privileged modes.
 */
__STATIC_FORCEINLINE void __disable_irq(void)
{
  __ASM volatile ("cpsid i" : : : "memory");
 8000810:	b672      	cpsid	i
}
 8000812:	46c0      	nop			@ (mov r8, r8)
  /* USER CODE BEGIN Error_Handler_Debug */
  /* User can add his own implementation to report the HAL error return state */
  __disable_irq();
  while (1)
 8000814:	46c0      	nop			@ (mov r8, r8)
 8000816:	e7fd      	b.n	8000814 <Error_Handler+0x8>

08000818 <MX_RNG_Init>:

RNG_HandleTypeDef hrng;

/* RNG init function */
void MX_RNG_Init(void)
{
 8000818:	b580      	push	{r7, lr}
 800081a:	af00      	add	r7, sp, #0
  /* USER CODE END RNG_Init 0 */

  /* USER CODE BEGIN RNG_Init 1 */

  /* USER CODE END RNG_Init 1 */
  hrng.Instance = RNG;
 800081c:	4b08      	ldr	r3, [pc, #32]	@ (8000840 <MX_RNG_Init+0x28>)
 800081e:	4a09      	ldr	r2, [pc, #36]	@ (8000844 <MX_RNG_Init+0x2c>)
 8000820:	601a      	str	r2, [r3, #0]
  hrng.Init.ClockErrorDetection = RNG_CED_ENABLE;
 8000822:	4b07      	ldr	r3, [pc, #28]	@ (8000840 <MX_RNG_Init+0x28>)
 8000824:	2200      	movs	r2, #0
 8000826:	605a      	str	r2, [r3, #4]
  if (HAL_RNG_Init(&hrng) != HAL_OK)
 8000828:	4b05      	ldr	r3, [pc, #20]	@ (8000840 <MX_RNG_Init+0x28>)
 800082a:	0018      	movs	r0, r3
 800082c:	f004 fc9e 	bl	800516c <HAL_RNG_Init>
 8000830:	1e03      	subs	r3, r0, #0
 8000832:	d001      	beq.n	8000838 <MX_RNG_Init+0x20>
  {
    Error_Handler();
 8000834:	f7ff ffea 	bl	800080c <Error_Handler>
  }
  /* USER CODE BEGIN RNG_Init 2 */

  /* USER CODE END RNG_Init 2 */

}
 8000838:	46c0      	nop			@ (mov r8, r8)
 800083a:	46bd      	mov	sp, r7
 800083c:	bd80      	pop	{r7, pc}
 800083e:	46c0      	nop			@ (mov r8, r8)
 8000840:	20000168 	.word	0x20000168
 8000844:	40025000 	.word	0x40025000

08000848 <HAL_RNG_MspInit>:

void HAL_RNG_MspInit(RNG_HandleTypeDef* rngHandle)
{
 8000848:	b590      	push	{r4, r7, lr}
 800084a:	b095      	sub	sp, #84	@ 0x54
 800084c:	af00      	add	r7, sp, #0
 800084e:	6078      	str	r0, [r7, #4]

  RCC_PeriphCLKInitTypeDef PeriphClkInit = {0};
 8000850:	240c      	movs	r4, #12
 8000852:	193b      	adds	r3, r7, r4
 8000854:	0018      	movs	r0, r3
 8000856:	2344      	movs	r3, #68	@ 0x44
 8000858:	001a      	movs	r2, r3
 800085a:	2100      	movs	r1, #0
 800085c:	f005 fcea 	bl	8006234 <memset>
  if(rngHandle->Instance==RNG)
 8000860:	687b      	ldr	r3, [r7, #4]
 8000862:	681b      	ldr	r3, [r3, #0]
 8000864:	4a16      	ldr	r2, [pc, #88]	@ (80008c0 <HAL_RNG_MspInit+0x78>)
 8000866:	4293      	cmp	r3, r2
 8000868:	d125      	bne.n	80008b6 <HAL_RNG_MspInit+0x6e>

  /* USER CODE END RNG_MspInit 0 */

  /** Initializes the peripherals clocks
  */
    PeriphClkInit.PeriphClockSelection = RCC_PERIPHCLK_RNG;
 800086a:	193b      	adds	r3, r7, r4
 800086c:	2280      	movs	r2, #128	@ 0x80
 800086e:	0192      	lsls	r2, r2, #6
 8000870:	601a      	str	r2, [r3, #0]
    PeriphClkInit.RngClockSelection = RCC_RNGCLKSOURCE_HSI48;
 8000872:	193b      	adds	r3, r7, r4
 8000874:	22c0      	movs	r2, #192	@ 0xc0
 8000876:	0512      	lsls	r2, r2, #20
 8000878:	639a      	str	r2, [r3, #56]	@ 0x38
    if (HAL_RCCEx_PeriphCLKConfig(&PeriphClkInit) != HAL_OK)
 800087a:	193b      	adds	r3, r7, r4
 800087c:	0018      	movs	r0, r3
 800087e:	f003 fc45 	bl	800410c <HAL_RCCEx_PeriphCLKConfig>
 8000882:	1e03      	subs	r3, r0, #0
 8000884:	d001      	beq.n	800088a <HAL_RNG_MspInit+0x42>
    {
      Error_Handler();
 8000886:	f7ff ffc1 	bl	800080c <Error_Handler>
    }

    /* RNG clock enable */
    __HAL_RCC_RNG_CLK_ENABLE();
 800088a:	4b0e      	ldr	r3, [pc, #56]	@ (80008c4 <HAL_RNG_MspInit+0x7c>)
 800088c:	6c9a      	ldr	r2, [r3, #72]	@ 0x48
 800088e:	4b0d      	ldr	r3, [pc, #52]	@ (80008c4 <HAL_RNG_MspInit+0x7c>)
 8000890:	2180      	movs	r1, #128	@ 0x80
 8000892:	02c9      	lsls	r1, r1, #11
 8000894:	430a      	orrs	r2, r1
 8000896:	649a      	str	r2, [r3, #72]	@ 0x48
 8000898:	4b0a      	ldr	r3, [pc, #40]	@ (80008c4 <HAL_RNG_MspInit+0x7c>)
 800089a:	6c9a      	ldr	r2, [r3, #72]	@ 0x48
 800089c:	2380      	movs	r3, #128	@ 0x80
 800089e:	02db      	lsls	r3, r3, #11
 80008a0:	4013      	ands	r3, r2
 80008a2:	60bb      	str	r3, [r7, #8]
 80008a4:	68bb      	ldr	r3, [r7, #8]

    /* RNG interrupt Init */
    HAL_NVIC_SetPriority(RNG_CRYP_IRQn, 0, 0);
 80008a6:	2200      	movs	r2, #0
 80008a8:	2100      	movs	r1, #0
 80008aa:	201f      	movs	r0, #31
 80008ac:	f000 fcc2 	bl	8001234 <HAL_NVIC_SetPriority>
    HAL_NVIC_EnableIRQ(RNG_CRYP_IRQn);
 80008b0:	201f      	movs	r0, #31
 80008b2:	f000 fcd4 	bl	800125e <HAL_NVIC_EnableIRQ>
  /* USER CODE BEGIN RNG_MspInit 1 */

  /* USER CODE END RNG_MspInit 1 */
  }
}
 80008b6:	46c0      	nop			@ (mov r8, r8)
 80008b8:	46bd      	mov	sp, r7
 80008ba:	b015      	add	sp, #84	@ 0x54
 80008bc:	bd90      	pop	{r4, r7, pc}
 80008be:	46c0      	nop			@ (mov r8, r8)
 80008c0:	40025000 	.word	0x40025000
 80008c4:	40021000 	.word	0x40021000

080008c8 <Security_GetRandomSeed_IT>:
	}
}

/* --- */

uint32_t Security_GetRandomSeed_IT(void) {
 80008c8:	b590      	push	{r4, r7, lr}
 80008ca:	b083      	sub	sp, #12
 80008cc:	af00      	add	r7, sp, #0

	HAL_StatusTypeDef status = HAL_RNG_GenerateRandomNumber_IT(&hrng);
 80008ce:	1dfc      	adds	r4, r7, #7
 80008d0:	4b08      	ldr	r3, [pc, #32]	@ (80008f4 <Security_GetRandomSeed_IT+0x2c>)
 80008d2:	0018      	movs	r0, r3
 80008d4:	f004 fcee 	bl	80052b4 <HAL_RNG_GenerateRandomNumber_IT>
 80008d8:	0003      	movs	r3, r0
 80008da:	7023      	strb	r3, [r4, #0]

	if (status != HAL_OK) {
 80008dc:	1dfb      	adds	r3, r7, #7
 80008de:	781b      	ldrb	r3, [r3, #0]
 80008e0:	2b00      	cmp	r3, #0
 80008e2:	d001      	beq.n	80008e8 <Security_GetRandomSeed_IT+0x20>
		Error_Handler();
 80008e4:	f7ff ff92 	bl	800080c <Error_Handler>
	}

	return status;
 80008e8:	1dfb      	adds	r3, r7, #7
 80008ea:	781b      	ldrb	r3, [r3, #0]
}
 80008ec:	0018      	movs	r0, r3
 80008ee:	46bd      	mov	sp, r7
 80008f0:	b003      	add	sp, #12
 80008f2:	bd90      	pop	{r4, r7, pc}
 80008f4:	20000168 	.word	0x20000168

080008f8 <HAL_RNG_ReadyDataCallback>:

void HAL_RNG_ReadyDataCallback(RNG_HandleTypeDef *hrng, uint32_t random32bit) {
 80008f8:	b580      	push	{r7, lr}
 80008fa:	b082      	sub	sp, #8
 80008fc:	af00      	add	r7, sp, #0
 80008fe:	6078      	str	r0, [r7, #4]
 8000900:	6039      	str	r1, [r7, #0]
	if (hrng->Instance == RNG) {
 8000902:	687b      	ldr	r3, [r7, #4]
 8000904:	681b      	ldr	r3, [r3, #0]
 8000906:	4a06      	ldr	r2, [pc, #24]	@ (8000920 <HAL_RNG_ReadyDataCallback+0x28>)
 8000908:	4293      	cmp	r3, r2
 800090a:	d105      	bne.n	8000918 <HAL_RNG_ReadyDataCallback+0x20>
		randomSeed = random32bit;
 800090c:	4b05      	ldr	r3, [pc, #20]	@ (8000924 <HAL_RNG_ReadyDataCallback+0x2c>)
 800090e:	683a      	ldr	r2, [r7, #0]
 8000910:	601a      	str	r2, [r3, #0]
		randomSeedReady = 1;
 8000912:	4b05      	ldr	r3, [pc, #20]	@ (8000928 <HAL_RNG_ReadyDataCallback+0x30>)
 8000914:	2201      	movs	r2, #1
 8000916:	701a      	strb	r2, [r3, #0]
	}
}
 8000918:	46c0      	nop			@ (mov r8, r8)
 800091a:	46bd      	mov	sp, r7
 800091c:	b002      	add	sp, #8
 800091e:	bd80      	pop	{r7, pc}
 8000920:	40025000 	.word	0x40025000
 8000924:	20000160 	.word	0x20000160
 8000928:	20000164 	.word	0x20000164

0800092c <HAL_RNG_ErrorCallback>:

void HAL_RNG_ErrorCallback(RNG_HandleTypeDef *hrng) {
 800092c:	b580      	push	{r7, lr}
 800092e:	b082      	sub	sp, #8
 8000930:	af00      	add	r7, sp, #0
 8000932:	6078      	str	r0, [r7, #4]
	if (hrng->Instance == RNG) {
 8000934:	687b      	ldr	r3, [r7, #4]
 8000936:	681b      	ldr	r3, [r3, #0]
 8000938:	4a04      	ldr	r2, [pc, #16]	@ (800094c <HAL_RNG_ErrorCallback+0x20>)
 800093a:	4293      	cmp	r3, r2
 800093c:	d101      	bne.n	8000942 <HAL_RNG_ErrorCallback+0x16>
		Error_Handler();
 800093e:	f7ff ff65 	bl	800080c <Error_Handler>
	}
}
 8000942:	46c0      	nop			@ (mov r8, r8)
 8000944:	46bd      	mov	sp, r7
 8000946:	b002      	add	sp, #8
 8000948:	bd80      	pop	{r7, pc}
 800094a:	46c0      	nop			@ (mov r8, r8)
 800094c:	40025000 	.word	0x40025000

08000950 <HAL_MspInit>:
/* USER CODE END 0 */
/**
  * Initializes the Global MSP.
  */
void HAL_MspInit(void)
{
 8000950:	b580      	push	{r7, lr}
 8000952:	b082      	sub	sp, #8
 8000954:	af00      	add	r7, sp, #0

  /* USER CODE BEGIN MspInit 0 */

  /* USER CODE END MspInit 0 */

  __HAL_RCC_PWR_CLK_ENABLE();
 8000956:	4b0f      	ldr	r3, [pc, #60]	@ (8000994 <HAL_MspInit+0x44>)
 8000958:	6d9a      	ldr	r2, [r3, #88]	@ 0x58
 800095a:	4b0e      	ldr	r3, [pc, #56]	@ (8000994 <HAL_MspInit+0x44>)
 800095c:	2180      	movs	r1, #128	@ 0x80
 800095e:	0549      	lsls	r1, r1, #21
 8000960:	430a      	orrs	r2, r1
 8000962:	659a      	str	r2, [r3, #88]	@ 0x58
 8000964:	4b0b      	ldr	r3, [pc, #44]	@ (8000994 <HAL_MspInit+0x44>)
 8000966:	6d9a      	ldr	r2, [r3, #88]	@ 0x58
 8000968:	2380      	movs	r3, #128	@ 0x80
 800096a:	055b      	lsls	r3, r3, #21
 800096c:	4013      	ands	r3, r2
 800096e:	607b      	str	r3, [r7, #4]
 8000970:	687b      	ldr	r3, [r7, #4]
  __HAL_RCC_SYSCFG_CLK_ENABLE();
 8000972:	4b08      	ldr	r3, [pc, #32]	@ (8000994 <HAL_MspInit+0x44>)
 8000974:	6e1a      	ldr	r2, [r3, #96]	@ 0x60
 8000976:	4b07      	ldr	r3, [pc, #28]	@ (8000994 <HAL_MspInit+0x44>)
 8000978:	2101      	movs	r1, #1
 800097a:	430a      	orrs	r2, r1
 800097c:	661a      	str	r2, [r3, #96]	@ 0x60
 800097e:	4b05      	ldr	r3, [pc, #20]	@ (8000994 <HAL_MspInit+0x44>)
 8000980:	6e1b      	ldr	r3, [r3, #96]	@ 0x60
 8000982:	2201      	movs	r2, #1
 8000984:	4013      	ands	r3, r2
 8000986:	603b      	str	r3, [r7, #0]
 8000988:	683b      	ldr	r3, [r7, #0]
  /* System interrupt init*/

  /* USER CODE BEGIN MspInit 1 */

  /* USER CODE END MspInit 1 */
}
 800098a:	46c0      	nop			@ (mov r8, r8)
 800098c:	46bd      	mov	sp, r7
 800098e:	b002      	add	sp, #8
 8000990:	bd80      	pop	{r7, pc}
 8000992:	46c0      	nop			@ (mov r8, r8)
 8000994:	40021000 	.word	0x40021000

08000998 <NMI_Handler>:
/******************************************************************************/
/**
  * @brief This function handles Non maskable interrupt.
  */
void NMI_Handler(void)
{
 8000998:	b580      	push	{r7, lr}
 800099a:	af00      	add	r7, sp, #0
  /* USER CODE BEGIN NonMaskableInt_IRQn 0 */

  /* USER CODE END NonMaskableInt_IRQn 0 */
  /* USER CODE BEGIN NonMaskableInt_IRQn 1 */
   while (1)
 800099c:	46c0      	nop			@ (mov r8, r8)
 800099e:	e7fd      	b.n	800099c <NMI_Handler+0x4>

080009a0 <HardFault_Handler>:

/**
  * @brief This function handles Hard fault interrupt.
  */
void HardFault_Handler(void)
{
 80009a0:	b580      	push	{r7, lr}
 80009a2:	af00      	add	r7, sp, #0
  /* USER CODE BEGIN HardFault_IRQn 0 */

  /* USER CODE END HardFault_IRQn 0 */
  while (1)
 80009a4:	46c0      	nop			@ (mov r8, r8)
 80009a6:	e7fd      	b.n	80009a4 <HardFault_Handler+0x4>

080009a8 <SVC_Handler>:

/**
  * @brief This function handles System service call via SVC instruction.
  */
void SVC_Handler(void)
{
 80009a8:	b580      	push	{r7, lr}
 80009aa:	af00      	add	r7, sp, #0

  /* USER CODE END SVCall_IRQn 0 */
  /* USER CODE BEGIN SVCall_IRQn 1 */

  /* USER CODE END SVCall_IRQn 1 */
}
 80009ac:	46c0      	nop			@ (mov r8, r8)
 80009ae:	46bd      	mov	sp, r7
 80009b0:	bd80      	pop	{r7, pc}

080009b2 <PendSV_Handler>:

/**
  * @brief This function handles Pendable request for system service.
  */
void PendSV_Handler(void)
{
 80009b2:	b580      	push	{r7, lr}
 80009b4:	af00      	add	r7, sp, #0

  /* USER CODE END PendSV_IRQn 0 */
  /* USER CODE BEGIN PendSV_IRQn 1 */

  /* USER CODE END PendSV_IRQn 1 */
}
 80009b6:	46c0      	nop			@ (mov r8, r8)
 80009b8:	46bd      	mov	sp, r7
 80009ba:	bd80      	pop	{r7, pc}

080009bc <SysTick_Handler>:

/**
  * @brief This function handles System tick timer.
  */
void SysTick_Handler(void)
{
 80009bc:	b580      	push	{r7, lr}
 80009be:	af00      	add	r7, sp, #0
  /* USER CODE BEGIN SysTick_IRQn 0 */

  /* USER CODE END SysTick_IRQn 0 */
  HAL_IncTick();
 80009c0:	f000 fb70 	bl	80010a4 <HAL_IncTick>
  /* USER CODE BEGIN SysTick_IRQn 1 */

  /* USER CODE END SysTick_IRQn 1 */
}
 80009c4:	46c0      	nop			@ (mov r8, r8)
 80009c6:	46bd      	mov	sp, r7
 80009c8:	bd80      	pop	{r7, pc}

080009ca <EXTI4_15_IRQHandler>:

/**
  * @brief This function handles EXTI line 4 to 15 interrupts.
  */
void EXTI4_15_IRQHandler(void)
{
 80009ca:	b580      	push	{r7, lr}
 80009cc:	af00      	add	r7, sp, #0
  /* USER CODE BEGIN EXTI4_15_IRQn 0 */

  /* USER CODE END EXTI4_15_IRQn 0 */
  BSP_PB_IRQHandler(BUTTON_USER);
 80009ce:	2000      	movs	r0, #0
 80009d0:	f000 fa0c 	bl	8000dec <BSP_PB_IRQHandler>
  /* USER CODE BEGIN EXTI4_15_IRQn 1 */

  /* USER CODE END EXTI4_15_IRQn 1 */
}
 80009d4:	46c0      	nop			@ (mov r8, r8)
 80009d6:	46bd      	mov	sp, r7
 80009d8:	bd80      	pop	{r7, pc}
	...

080009dc <RNG_CRYP_IRQHandler>:

/**
  * @brief This function handles RNG + CRYPTO global interrupt.
  */
void RNG_CRYP_IRQHandler(void)
{
 80009dc:	b580      	push	{r7, lr}
 80009de:	af00      	add	r7, sp, #0
  /* USER CODE BEGIN RNG_CRYP_IRQn 0 */

  /* USER CODE END RNG_CRYP_IRQn 0 */
  HAL_CRYP_IRQHandler(&hcryp);
 80009e0:	4b05      	ldr	r3, [pc, #20]	@ (80009f8 <RNG_CRYP_IRQHandler+0x1c>)
 80009e2:	0018      	movs	r0, r3
 80009e4:	f000 fe30 	bl	8001648 <HAL_CRYP_IRQHandler>
  HAL_RNG_IRQHandler(&hrng);
 80009e8:	4b04      	ldr	r3, [pc, #16]	@ (80009fc <RNG_CRYP_IRQHandler+0x20>)
 80009ea:	0018      	movs	r0, r3
 80009ec:	f004 fc95 	bl	800531a <HAL_RNG_IRQHandler>
  /* USER CODE BEGIN RNG_CRYP_IRQn 1 */

  /* USER CODE END RNG_CRYP_IRQn 1 */
}
 80009f0:	46c0      	nop			@ (mov r8, r8)
 80009f2:	46bd      	mov	sp, r7
 80009f4:	bd80      	pop	{r7, pc}
 80009f6:	46c0      	nop			@ (mov r8, r8)
 80009f8:	200000ec 	.word	0x200000ec
 80009fc:	20000168 	.word	0x20000168

08000a00 <_read>:
  _kill(status, -1);
  while (1) {}    /* Make sure we hang here */
}

__attribute__((weak)) int _read(int file, char *ptr, int len)
{
 8000a00:	b580      	push	{r7, lr}
 8000a02:	b086      	sub	sp, #24
 8000a04:	af00      	add	r7, sp, #0
 8000a06:	60f8      	str	r0, [r7, #12]
 8000a08:	60b9      	str	r1, [r7, #8]
 8000a0a:	607a      	str	r2, [r7, #4]
  (void)file;
  int DataIdx;

  for (DataIdx = 0; DataIdx < len; DataIdx++)
 8000a0c:	2300      	movs	r3, #0
 8000a0e:	617b      	str	r3, [r7, #20]
 8000a10:	e00a      	b.n	8000a28 <_read+0x28>
  {
    *ptr++ = __io_getchar();
 8000a12:	e000      	b.n	8000a16 <_read+0x16>
 8000a14:	bf00      	nop
 8000a16:	0001      	movs	r1, r0
 8000a18:	68bb      	ldr	r3, [r7, #8]
 8000a1a:	1c5a      	adds	r2, r3, #1
 8000a1c:	60ba      	str	r2, [r7, #8]
 8000a1e:	b2ca      	uxtb	r2, r1
 8000a20:	701a      	strb	r2, [r3, #0]
  for (DataIdx = 0; DataIdx < len; DataIdx++)
 8000a22:	697b      	ldr	r3, [r7, #20]
 8000a24:	3301      	adds	r3, #1
 8000a26:	617b      	str	r3, [r7, #20]
 8000a28:	697a      	ldr	r2, [r7, #20]
 8000a2a:	687b      	ldr	r3, [r7, #4]
 8000a2c:	429a      	cmp	r2, r3
 8000a2e:	dbf0      	blt.n	8000a12 <_read+0x12>
  }

  return len;
 8000a30:	687b      	ldr	r3, [r7, #4]
}
 8000a32:	0018      	movs	r0, r3
 8000a34:	46bd      	mov	sp, r7
 8000a36:	b006      	add	sp, #24
 8000a38:	bd80      	pop	{r7, pc}

08000a3a <_write>:

__attribute__((weak)) int _write(int file, char *ptr, int len)
{
 8000a3a:	b580      	push	{r7, lr}
 8000a3c:	b086      	sub	sp, #24
 8000a3e:	af00      	add	r7, sp, #0
 8000a40:	60f8      	str	r0, [r7, #12]
 8000a42:	60b9      	str	r1, [r7, #8]
 8000a44:	607a      	str	r2, [r7, #4]
  (void)file;
  int DataIdx;

  for (DataIdx = 0; DataIdx < len; DataIdx++)
 8000a46:	2300      	movs	r3, #0
 8000a48:	617b      	str	r3, [r7, #20]
 8000a4a:	e009      	b.n	8000a60 <_write+0x26>
  {
    __io_putchar(*ptr++);
 8000a4c:	68bb      	ldr	r3, [r7, #8]
 8000a4e:	1c5a      	adds	r2, r3, #1
 8000a50:	60ba      	str	r2, [r7, #8]
 8000a52:	781b      	ldrb	r3, [r3, #0]
 8000a54:	0018      	movs	r0, r3
 8000a56:	f000 fa49 	bl	8000eec <__io_putchar>
  for (DataIdx = 0; DataIdx < len; DataIdx++)
 8000a5a:	697b      	ldr	r3, [r7, #20]
 8000a5c:	3301      	adds	r3, #1
 8000a5e:	617b      	str	r3, [r7, #20]
 8000a60:	697a      	ldr	r2, [r7, #20]
 8000a62:	687b      	ldr	r3, [r7, #4]
 8000a64:	429a      	cmp	r2, r3
 8000a66:	dbf1      	blt.n	8000a4c <_write+0x12>
  }
  return len;
 8000a68:	687b      	ldr	r3, [r7, #4]
}
 8000a6a:	0018      	movs	r0, r3
 8000a6c:	46bd      	mov	sp, r7
 8000a6e:	b006      	add	sp, #24
 8000a70:	bd80      	pop	{r7, pc}

08000a72 <_close>:

int _close(int file)
{
 8000a72:	b580      	push	{r7, lr}
 8000a74:	b082      	sub	sp, #8
 8000a76:	af00      	add	r7, sp, #0
 8000a78:	6078      	str	r0, [r7, #4]
  (void)file;
  return -1;
 8000a7a:	2301      	movs	r3, #1
 8000a7c:	425b      	negs	r3, r3
}
 8000a7e:	0018      	movs	r0, r3
 8000a80:	46bd      	mov	sp, r7
 8000a82:	b002      	add	sp, #8
 8000a84:	bd80      	pop	{r7, pc}

08000a86 <_fstat>:


int _fstat(int file, struct stat *st)
{
 8000a86:	b580      	push	{r7, lr}
 8000a88:	b082      	sub	sp, #8
 8000a8a:	af00      	add	r7, sp, #0
 8000a8c:	6078      	str	r0, [r7, #4]
 8000a8e:	6039      	str	r1, [r7, #0]
  (void)file;
  st->st_mode = S_IFCHR;
 8000a90:	683b      	ldr	r3, [r7, #0]
 8000a92:	2280      	movs	r2, #128	@ 0x80
 8000a94:	0192      	lsls	r2, r2, #6
 8000a96:	605a      	str	r2, [r3, #4]
  return 0;
 8000a98:	2300      	movs	r3, #0
}
 8000a9a:	0018      	movs	r0, r3
 8000a9c:	46bd      	mov	sp, r7
 8000a9e:	b002      	add	sp, #8
 8000aa0:	bd80      	pop	{r7, pc}

08000aa2 <_isatty>:

int _isatty(int file)
{
 8000aa2:	b580      	push	{r7, lr}
 8000aa4:	b082      	sub	sp, #8
 8000aa6:	af00      	add	r7, sp, #0
 8000aa8:	6078      	str	r0, [r7, #4]
  (void)file;
  return 1;
 8000aaa:	2301      	movs	r3, #1
}
 8000aac:	0018      	movs	r0, r3
 8000aae:	46bd      	mov	sp, r7
 8000ab0:	b002      	add	sp, #8
 8000ab2:	bd80      	pop	{r7, pc}

08000ab4 <_lseek>:

int _lseek(int file, int ptr, int dir)
{
 8000ab4:	b580      	push	{r7, lr}
 8000ab6:	b084      	sub	sp, #16
 8000ab8:	af00      	add	r7, sp, #0
 8000aba:	60f8      	str	r0, [r7, #12]
 8000abc:	60b9      	str	r1, [r7, #8]
 8000abe:	607a      	str	r2, [r7, #4]
  (void)file;
  (void)ptr;
  (void)dir;
  return 0;
 8000ac0:	2300      	movs	r3, #0
}
 8000ac2:	0018      	movs	r0, r3
 8000ac4:	46bd      	mov	sp, r7
 8000ac6:	b004      	add	sp, #16
 8000ac8:	bd80      	pop	{r7, pc}
	...

08000acc <_sbrk>:
 *
 * @param incr Memory size
 * @return Pointer to allocated memory
 */
void *_sbrk(ptrdiff_t incr)
{
 8000acc:	b580      	push	{r7, lr}
 8000ace:	b086      	sub	sp, #24
 8000ad0:	af00      	add	r7, sp, #0
 8000ad2:	6078      	str	r0, [r7, #4]
  extern uint8_t _end; /* Symbol defined in the linker script */
  extern uint8_t _estack; /* Symbol defined in the linker script */
  extern uint32_t _Min_Stack_Size; /* Symbol defined in the linker script */
  const uint32_t stack_limit = (uint32_t)&_estack - (uint32_t)&_Min_Stack_Size;
 8000ad4:	4a14      	ldr	r2, [pc, #80]	@ (8000b28 <_sbrk+0x5c>)
 8000ad6:	4b15      	ldr	r3, [pc, #84]	@ (8000b2c <_sbrk+0x60>)
 8000ad8:	1ad3      	subs	r3, r2, r3
 8000ada:	617b      	str	r3, [r7, #20]
  const uint8_t *max_heap = (uint8_t *)stack_limit;
 8000adc:	697b      	ldr	r3, [r7, #20]
 8000ade:	613b      	str	r3, [r7, #16]
  uint8_t *prev_heap_end;

  /* Initialize heap end at first call */
  if (NULL == __sbrk_heap_end)
 8000ae0:	4b13      	ldr	r3, [pc, #76]	@ (8000b30 <_sbrk+0x64>)
 8000ae2:	681b      	ldr	r3, [r3, #0]
 8000ae4:	2b00      	cmp	r3, #0
 8000ae6:	d102      	bne.n	8000aee <_sbrk+0x22>
  {
    __sbrk_heap_end = &_end;
 8000ae8:	4b11      	ldr	r3, [pc, #68]	@ (8000b30 <_sbrk+0x64>)
 8000aea:	4a12      	ldr	r2, [pc, #72]	@ (8000b34 <_sbrk+0x68>)
 8000aec:	601a      	str	r2, [r3, #0]
  }

  /* Protect heap from growing into the reserved MSP stack */
  if (__sbrk_heap_end + incr > max_heap)
 8000aee:	4b10      	ldr	r3, [pc, #64]	@ (8000b30 <_sbrk+0x64>)
 8000af0:	681a      	ldr	r2, [r3, #0]
 8000af2:	687b      	ldr	r3, [r7, #4]
 8000af4:	18d3      	adds	r3, r2, r3
 8000af6:	693a      	ldr	r2, [r7, #16]
 8000af8:	429a      	cmp	r2, r3
 8000afa:	d207      	bcs.n	8000b0c <_sbrk+0x40>
  {
    errno = ENOMEM;
 8000afc:	f005 fbf0 	bl	80062e0 <__errno>
 8000b00:	0003      	movs	r3, r0
 8000b02:	220c      	movs	r2, #12
 8000b04:	601a      	str	r2, [r3, #0]
    return (void *)-1;
 8000b06:	2301      	movs	r3, #1
 8000b08:	425b      	negs	r3, r3
 8000b0a:	e009      	b.n	8000b20 <_sbrk+0x54>
  }

  prev_heap_end = __sbrk_heap_end;
 8000b0c:	4b08      	ldr	r3, [pc, #32]	@ (8000b30 <_sbrk+0x64>)
 8000b0e:	681b      	ldr	r3, [r3, #0]
 8000b10:	60fb      	str	r3, [r7, #12]
  __sbrk_heap_end += incr;
 8000b12:	4b07      	ldr	r3, [pc, #28]	@ (8000b30 <_sbrk+0x64>)
 8000b14:	681a      	ldr	r2, [r3, #0]
 8000b16:	687b      	ldr	r3, [r7, #4]
 8000b18:	18d2      	adds	r2, r2, r3
 8000b1a:	4b05      	ldr	r3, [pc, #20]	@ (8000b30 <_sbrk+0x64>)
 8000b1c:	601a      	str	r2, [r3, #0]

  return (void *)prev_heap_end;
 8000b1e:	68fb      	ldr	r3, [r7, #12]
}
 8000b20:	0018      	movs	r0, r3
 8000b22:	46bd      	mov	sp, r7
 8000b24:	b006      	add	sp, #24
 8000b26:	bd80      	pop	{r7, pc}
 8000b28:	2000a000 	.word	0x2000a000
 8000b2c:	00000400 	.word	0x00000400
 8000b30:	2000017c 	.word	0x2000017c
 8000b34:	20000378 	.word	0x20000378

08000b38 <SystemInit>:
  * @param  None
  * @retval None
  */

void SystemInit(void)
{
 8000b38:	b580      	push	{r7, lr}
 8000b3a:	b082      	sub	sp, #8
 8000b3c:	af00      	add	r7, sp, #0
#endif /* ENABLE_DBG_SWEN */
  /* Configure the Vector Table location add offset address ------------------*/
#ifdef VECT_TAB_SRAM
  SCB->VTOR = SRAM1_BASE | VECT_TAB_OFFSET; /* Vector Table Relocation in Internal SRAM */
#else
  SCB->VTOR = FLASH_BASE | VECT_TAB_OFFSET; /* Vector Table Relocation in Internal FLASH */
 8000b3e:	4b12      	ldr	r3, [pc, #72]	@ (8000b88 <SystemInit+0x50>)
 8000b40:	2280      	movs	r2, #128	@ 0x80
 8000b42:	0512      	lsls	r2, r2, #20
 8000b44:	609a      	str	r2, [r3, #8]
#endif /* VECT_TAB_SRAM */

/* Software workaround added to keep Debug enabled after Boot_Lock activation and RDP=1  */
#ifdef ENABLE_DBG_SWEN
  tmp_seccr = FLASH->SECR;
 8000b46:	4a11      	ldr	r2, [pc, #68]	@ (8000b8c <SystemInit+0x54>)
 8000b48:	2380      	movs	r3, #128	@ 0x80
 8000b4a:	58d3      	ldr	r3, [r2, r3]
 8000b4c:	607b      	str	r3, [r7, #4]
  tmp_optr = FLASH->OPTR;
 8000b4e:	4b0f      	ldr	r3, [pc, #60]	@ (8000b8c <SystemInit+0x54>)
 8000b50:	6a1b      	ldr	r3, [r3, #32]
 8000b52:	603b      	str	r3, [r7, #0]
  if (((tmp_seccr & FLASH_SECR_BOOT_LOCK) == FLASH_SECR_BOOT_LOCK)         \
 8000b54:	687a      	ldr	r2, [r7, #4]
 8000b56:	2380      	movs	r3, #128	@ 0x80
 8000b58:	025b      	lsls	r3, r3, #9
 8000b5a:	4013      	ands	r3, r2
 8000b5c:	d010      	beq.n	8000b80 <SystemInit+0x48>
      && (((tmp_optr & FLASH_OPTR_RDP) != 0xCCU)                           \
 8000b5e:	683b      	ldr	r3, [r7, #0]
 8000b60:	22ff      	movs	r2, #255	@ 0xff
 8000b62:	4013      	ands	r3, r2
 8000b64:	2bcc      	cmp	r3, #204	@ 0xcc
 8000b66:	d00b      	beq.n	8000b80 <SystemInit+0x48>
      && ((tmp_optr & FLASH_OPTR_RDP) != 0xAAU)))
 8000b68:	683b      	ldr	r3, [r7, #0]
 8000b6a:	22ff      	movs	r2, #255	@ 0xff
 8000b6c:	4013      	ands	r3, r2
 8000b6e:	2baa      	cmp	r3, #170	@ 0xaa
 8000b70:	d006      	beq.n	8000b80 <SystemInit+0x48>
  {
    FLASH->ACR |= FLASH_ACR_DBG_SWEN;  /* Debug access software enabled to avoid the chip
 8000b72:	4b06      	ldr	r3, [pc, #24]	@ (8000b8c <SystemInit+0x54>)
 8000b74:	681a      	ldr	r2, [r3, #0]
 8000b76:	4b05      	ldr	r3, [pc, #20]	@ (8000b8c <SystemInit+0x54>)
 8000b78:	2180      	movs	r1, #128	@ 0x80
 8000b7a:	02c9      	lsls	r1, r1, #11
 8000b7c:	430a      	orrs	r2, r1
 8000b7e:	601a      	str	r2, [r3, #0]
                                          to be locked when RDP=1 and Boot_Lock=1        */
  }
#endif /* ENABLE_DBG_SWEN */
}
 8000b80:	46c0      	nop			@ (mov r8, r8)
 8000b82:	46bd      	mov	sp, r7
 8000b84:	b002      	add	sp, #8
 8000b86:	bd80      	pop	{r7, pc}
 8000b88:	e000ed00 	.word	0xe000ed00
 8000b8c:	40022000 	.word	0x40022000

08000b90 <Reset_Handler>:

  .section .text.Reset_Handler
  .weak Reset_Handler
  .type Reset_Handler, %function
Reset_Handler:
  ldr   r0, =_estack
 8000b90:	480d      	ldr	r0, [pc, #52]	@ (8000bc8 <LoopForever+0x2>)
  mov   sp, r0          /* set stack pointer */
 8000b92:	4685      	mov	sp, r0
/* Call the clock system initialization function.*/
  bl  SystemInit
 8000b94:	f7ff ffd0 	bl	8000b38 <SystemInit>

/* Copy the data segment initializers from flash to SRAM */
  ldr r0, =_sdata
 8000b98:	480c      	ldr	r0, [pc, #48]	@ (8000bcc <LoopForever+0x6>)
  ldr r1, =_edata
 8000b9a:	490d      	ldr	r1, [pc, #52]	@ (8000bd0 <LoopForever+0xa>)
  ldr r2, =_sidata
 8000b9c:	4a0d      	ldr	r2, [pc, #52]	@ (8000bd4 <LoopForever+0xe>)
  movs r3, #0
 8000b9e:	2300      	movs	r3, #0
  b LoopCopyDataInit
 8000ba0:	e002      	b.n	8000ba8 <LoopCopyDataInit>

08000ba2 <CopyDataInit>:

CopyDataInit:
  ldr r4, [r2, r3]
 8000ba2:	58d4      	ldr	r4, [r2, r3]
  str r4, [r0, r3]
 8000ba4:	50c4      	str	r4, [r0, r3]
  adds r3, r3, #4
 8000ba6:	3304      	adds	r3, #4

08000ba8 <LoopCopyDataInit>:

LoopCopyDataInit:
  adds r4, r0, r3
 8000ba8:	18c4      	adds	r4, r0, r3
  cmp r4, r1
 8000baa:	428c      	cmp	r4, r1
  bcc CopyDataInit
 8000bac:	d3f9      	bcc.n	8000ba2 <CopyDataInit>

/* Zero fill the bss segment. */
  ldr r2, =_sbss
 8000bae:	4a0a      	ldr	r2, [pc, #40]	@ (8000bd8 <LoopForever+0x12>)
  ldr r4, =_ebss
 8000bb0:	4c0a      	ldr	r4, [pc, #40]	@ (8000bdc <LoopForever+0x16>)
  movs r3, #0
 8000bb2:	2300      	movs	r3, #0
  b LoopFillZerobss
 8000bb4:	e001      	b.n	8000bba <LoopFillZerobss>

08000bb6 <FillZerobss>:

FillZerobss:
  str  r3, [r2]
 8000bb6:	6013      	str	r3, [r2, #0]
  adds r2, r2, #4
 8000bb8:	3204      	adds	r2, #4

08000bba <LoopFillZerobss>:

LoopFillZerobss:
  cmp r2, r4
 8000bba:	42a2      	cmp	r2, r4
  bcc FillZerobss
 8000bbc:	d3fb      	bcc.n	8000bb6 <FillZerobss>

/* Call static constructors */
  bl __libc_init_array
 8000bbe:	f005 fb95 	bl	80062ec <__libc_init_array>
/* Call the application's entry point.*/
  bl main
 8000bc2:	f7ff fd45 	bl	8000650 <main>

08000bc6 <LoopForever>:

LoopForever:
  b LoopForever
 8000bc6:	e7fe      	b.n	8000bc6 <LoopForever>
  ldr   r0, =_estack
 8000bc8:	2000a000 	.word	0x2000a000
  ldr r0, =_sdata
 8000bcc:	20000000 	.word	0x20000000
  ldr r1, =_edata
 8000bd0:	200000b0 	.word	0x200000b0
  ldr r2, =_sidata
 8000bd4:	08006f40 	.word	0x08006f40
  ldr r2, =_sbss
 8000bd8:	200000b0 	.word	0x200000b0
  ldr r4, =_ebss
 8000bdc:	20000374 	.word	0x20000374

08000be0 <ADC_COMP1_2_IRQHandler>:
 * @retval : None
*/
  .section .text.Default_Handler,"ax",%progbits
Default_Handler:
Infinite_Loop:
  b Infinite_Loop
 8000be0:	e7fe      	b.n	8000be0 <ADC_COMP1_2_IRQHandler>
	...

08000be4 <BSP_LED_Init>:
  *   This parameter can be one of following parameters:
  *     @arg  LED4
  * @retval BSP status
  */
int32_t BSP_LED_Init(Led_TypeDef Led)
{
 8000be4:	b580      	push	{r7, lr}
 8000be6:	b08a      	sub	sp, #40	@ 0x28
 8000be8:	af00      	add	r7, sp, #0
 8000bea:	0002      	movs	r2, r0
 8000bec:	1dfb      	adds	r3, r7, #7
 8000bee:	701a      	strb	r2, [r3, #0]
  int32_t ret = BSP_ERROR_NONE;
 8000bf0:	2300      	movs	r3, #0
 8000bf2:	627b      	str	r3, [r7, #36]	@ 0x24
  GPIO_InitTypeDef  gpio_init_structure;

  if (Led != LED4)
 8000bf4:	1dfb      	adds	r3, r7, #7
 8000bf6:	781b      	ldrb	r3, [r3, #0]
 8000bf8:	2b00      	cmp	r3, #0
 8000bfa:	d003      	beq.n	8000c04 <BSP_LED_Init+0x20>
  {
    ret = BSP_ERROR_WRONG_PARAM;
 8000bfc:	2302      	movs	r3, #2
 8000bfe:	425b      	negs	r3, r3
 8000c00:	627b      	str	r3, [r7, #36]	@ 0x24
 8000c02:	e023      	b.n	8000c4c <BSP_LED_Init+0x68>
  }
  else
  {
    LED4_GPIO_CLK_ENABLE();
 8000c04:	4b14      	ldr	r3, [pc, #80]	@ (8000c58 <BSP_LED_Init+0x74>)
 8000c06:	6cda      	ldr	r2, [r3, #76]	@ 0x4c
 8000c08:	4b13      	ldr	r3, [pc, #76]	@ (8000c58 <BSP_LED_Init+0x74>)
 8000c0a:	2101      	movs	r1, #1
 8000c0c:	430a      	orrs	r2, r1
 8000c0e:	64da      	str	r2, [r3, #76]	@ 0x4c
 8000c10:	4b11      	ldr	r3, [pc, #68]	@ (8000c58 <BSP_LED_Init+0x74>)
 8000c12:	6cdb      	ldr	r3, [r3, #76]	@ 0x4c
 8000c14:	2201      	movs	r2, #1
 8000c16:	4013      	ands	r3, r2
 8000c18:	60fb      	str	r3, [r7, #12]
 8000c1a:	68fb      	ldr	r3, [r7, #12]

    /* Configure the GPIO_LED pin */
    gpio_init_structure.Pin   = LED_PIN[Led];
 8000c1c:	2320      	movs	r3, #32
 8000c1e:	001a      	movs	r2, r3
 8000c20:	2110      	movs	r1, #16
 8000c22:	187b      	adds	r3, r7, r1
 8000c24:	601a      	str	r2, [r3, #0]
    gpio_init_structure.Mode  = GPIO_MODE_OUTPUT_PP;
 8000c26:	187b      	adds	r3, r7, r1
 8000c28:	2201      	movs	r2, #1
 8000c2a:	605a      	str	r2, [r3, #4]
    gpio_init_structure.Pull  = GPIO_NOPULL;
 8000c2c:	187b      	adds	r3, r7, r1
 8000c2e:	2200      	movs	r2, #0
 8000c30:	609a      	str	r2, [r3, #8]
    gpio_init_structure.Speed = GPIO_SPEED_FREQ_VERY_HIGH;
 8000c32:	187b      	adds	r3, r7, r1
 8000c34:	2203      	movs	r2, #3
 8000c36:	60da      	str	r2, [r3, #12]

    HAL_GPIO_Init(LED_PORT[Led], &gpio_init_structure);
 8000c38:	1dfb      	adds	r3, r7, #7
 8000c3a:	781a      	ldrb	r2, [r3, #0]
 8000c3c:	4b07      	ldr	r3, [pc, #28]	@ (8000c5c <BSP_LED_Init+0x78>)
 8000c3e:	0092      	lsls	r2, r2, #2
 8000c40:	58d3      	ldr	r3, [r2, r3]
 8000c42:	187a      	adds	r2, r7, r1
 8000c44:	0011      	movs	r1, r2
 8000c46:	0018      	movs	r0, r3
 8000c48:	f002 fa08 	bl	800305c <HAL_GPIO_Init>
  }
  return ret;
 8000c4c:	6a7b      	ldr	r3, [r7, #36]	@ 0x24
}
 8000c4e:	0018      	movs	r0, r3
 8000c50:	46bd      	mov	sp, r7
 8000c52:	b00a      	add	sp, #40	@ 0x28
 8000c54:	bd80      	pop	{r7, pc}
 8000c56:	46c0      	nop			@ (mov r8, r8)
 8000c58:	40021000 	.word	0x40021000
 8000c5c:	2000003c 	.word	0x2000003c

08000c60 <BSP_LED_On>:
  *   This parameter can be one of following parameters:
  *     @arg  LED4
  * @retval BSP status
  */
int32_t BSP_LED_On(Led_TypeDef Led)
{
 8000c60:	b580      	push	{r7, lr}
 8000c62:	b084      	sub	sp, #16
 8000c64:	af00      	add	r7, sp, #0
 8000c66:	0002      	movs	r2, r0
 8000c68:	1dfb      	adds	r3, r7, #7
 8000c6a:	701a      	strb	r2, [r3, #0]
  int32_t ret = BSP_ERROR_NONE;
 8000c6c:	2300      	movs	r3, #0
 8000c6e:	60fb      	str	r3, [r7, #12]

  if (Led != LED4)
 8000c70:	1dfb      	adds	r3, r7, #7
 8000c72:	781b      	ldrb	r3, [r3, #0]
 8000c74:	2b00      	cmp	r3, #0
 8000c76:	d003      	beq.n	8000c80 <BSP_LED_On+0x20>
  {
    ret = BSP_ERROR_WRONG_PARAM;
 8000c78:	2302      	movs	r3, #2
 8000c7a:	425b      	negs	r3, r3
 8000c7c:	60fb      	str	r3, [r7, #12]
 8000c7e:	e009      	b.n	8000c94 <BSP_LED_On+0x34>
  }
  else
  {
    HAL_GPIO_WritePin(LED_PORT[Led], LED_PIN[Led], GPIO_PIN_SET);
 8000c80:	1dfb      	adds	r3, r7, #7
 8000c82:	781a      	ldrb	r2, [r3, #0]
 8000c84:	4b06      	ldr	r3, [pc, #24]	@ (8000ca0 <BSP_LED_On+0x40>)
 8000c86:	0092      	lsls	r2, r2, #2
 8000c88:	58d3      	ldr	r3, [r2, r3]
 8000c8a:	2120      	movs	r1, #32
 8000c8c:	2201      	movs	r2, #1
 8000c8e:	0018      	movs	r0, r3
 8000c90:	f002 fb58 	bl	8003344 <HAL_GPIO_WritePin>
  }

  return ret;
 8000c94:	68fb      	ldr	r3, [r7, #12]
}
 8000c96:	0018      	movs	r0, r3
 8000c98:	46bd      	mov	sp, r7
 8000c9a:	b004      	add	sp, #16
 8000c9c:	bd80      	pop	{r7, pc}
 8000c9e:	46c0      	nop			@ (mov r8, r8)
 8000ca0:	2000003c 	.word	0x2000003c

08000ca4 <BSP_LED_Toggle>:
  *   This parameter can be one of following parameters:
  *     @arg  LED4
  * @retval BSP status
  */
int32_t BSP_LED_Toggle(Led_TypeDef Led)
{
 8000ca4:	b580      	push	{r7, lr}
 8000ca6:	b084      	sub	sp, #16
 8000ca8:	af00      	add	r7, sp, #0
 8000caa:	0002      	movs	r2, r0
 8000cac:	1dfb      	adds	r3, r7, #7
 8000cae:	701a      	strb	r2, [r3, #0]
  int32_t ret = BSP_ERROR_NONE;
 8000cb0:	2300      	movs	r3, #0
 8000cb2:	60fb      	str	r3, [r7, #12]

  if (Led != LED4)
 8000cb4:	1dfb      	adds	r3, r7, #7
 8000cb6:	781b      	ldrb	r3, [r3, #0]
 8000cb8:	2b00      	cmp	r3, #0
 8000cba:	d003      	beq.n	8000cc4 <BSP_LED_Toggle+0x20>
  {
    ret = BSP_ERROR_WRONG_PARAM;
 8000cbc:	2302      	movs	r3, #2
 8000cbe:	425b      	negs	r3, r3
 8000cc0:	60fb      	str	r3, [r7, #12]
 8000cc2:	e009      	b.n	8000cd8 <BSP_LED_Toggle+0x34>
  }
  else
  {
    HAL_GPIO_TogglePin(LED_PORT[Led], LED_PIN[Led]);
 8000cc4:	1dfb      	adds	r3, r7, #7
 8000cc6:	781a      	ldrb	r2, [r3, #0]
 8000cc8:	4b06      	ldr	r3, [pc, #24]	@ (8000ce4 <BSP_LED_Toggle+0x40>)
 8000cca:	0092      	lsls	r2, r2, #2
 8000ccc:	58d3      	ldr	r3, [r2, r3]
 8000cce:	2220      	movs	r2, #32
 8000cd0:	0011      	movs	r1, r2
 8000cd2:	0018      	movs	r0, r3
 8000cd4:	f002 fb53 	bl	800337e <HAL_GPIO_TogglePin>
  }

  return ret;
 8000cd8:	68fb      	ldr	r3, [r7, #12]
}
 8000cda:	0018      	movs	r0, r3
 8000cdc:	46bd      	mov	sp, r7
 8000cde:	b004      	add	sp, #16
 8000ce0:	bd80      	pop	{r7, pc}
 8000ce2:	46c0      	nop			@ (mov r8, r8)
 8000ce4:	2000003c 	.word	0x2000003c

08000ce8 <BSP_PB_Init>:
  *            @arg  BUTTON_MODE_GPIO: Button will be used as simple IO
  *            @arg  BUTTON_MODE_EXTI: Button will be connected to EXTI line
  *                                    with interrupt generation capability
  */
int32_t BSP_PB_Init(Button_TypeDef Button, ButtonMode_TypeDef ButtonMode)
{
 8000ce8:	b580      	push	{r7, lr}
 8000cea:	b088      	sub	sp, #32
 8000cec:	af00      	add	r7, sp, #0
 8000cee:	0002      	movs	r2, r0
 8000cf0:	1dfb      	adds	r3, r7, #7
 8000cf2:	701a      	strb	r2, [r3, #0]
 8000cf4:	1dbb      	adds	r3, r7, #6
 8000cf6:	1c0a      	adds	r2, r1, #0
 8000cf8:	701a      	strb	r2, [r3, #0]
  static BSP_EXTI_LineCallback ButtonCallback[BUTTONn] = {BUTTON_USER_EXTI_Callback};
  static uint32_t  BSP_BUTTON_PRIO [BUTTONn] = {BSP_BUTTON_USER_IT_PRIORITY};
  static const uint32_t BUTTON_EXTI_LINE[BUTTONn] = {BUTTON_USER_EXTI_LINE};

  /* Enable the BUTTON clock */
  BUTTON_USER_GPIO_CLK_ENABLE();
 8000cfa:	4b36      	ldr	r3, [pc, #216]	@ (8000dd4 <BSP_PB_Init+0xec>)
 8000cfc:	6cda      	ldr	r2, [r3, #76]	@ 0x4c
 8000cfe:	4b35      	ldr	r3, [pc, #212]	@ (8000dd4 <BSP_PB_Init+0xec>)
 8000d00:	2104      	movs	r1, #4
 8000d02:	430a      	orrs	r2, r1
 8000d04:	64da      	str	r2, [r3, #76]	@ 0x4c
 8000d06:	4b33      	ldr	r3, [pc, #204]	@ (8000dd4 <BSP_PB_Init+0xec>)
 8000d08:	6cdb      	ldr	r3, [r3, #76]	@ 0x4c
 8000d0a:	2204      	movs	r2, #4
 8000d0c:	4013      	ands	r3, r2
 8000d0e:	60bb      	str	r3, [r7, #8]
 8000d10:	68bb      	ldr	r3, [r7, #8]

  gpio_init_structure.Pin   = BUTTON_PIN [Button];
 8000d12:	2380      	movs	r3, #128	@ 0x80
 8000d14:	019b      	lsls	r3, r3, #6
 8000d16:	001a      	movs	r2, r3
 8000d18:	210c      	movs	r1, #12
 8000d1a:	187b      	adds	r3, r7, r1
 8000d1c:	601a      	str	r2, [r3, #0]
  gpio_init_structure.Pull  = GPIO_PULLUP;
 8000d1e:	187b      	adds	r3, r7, r1
 8000d20:	2201      	movs	r2, #1
 8000d22:	609a      	str	r2, [r3, #8]
  gpio_init_structure.Speed = GPIO_SPEED_FREQ_HIGH;
 8000d24:	187b      	adds	r3, r7, r1
 8000d26:	2202      	movs	r2, #2
 8000d28:	60da      	str	r2, [r3, #12]

  if (ButtonMode == BUTTON_MODE_GPIO)
 8000d2a:	1dbb      	adds	r3, r7, #6
 8000d2c:	781b      	ldrb	r3, [r3, #0]
 8000d2e:	2b00      	cmp	r3, #0
 8000d30:	d10d      	bne.n	8000d4e <BSP_PB_Init+0x66>
  {
    /* Configure Button pin as input */
    gpio_init_structure.Mode = GPIO_MODE_INPUT;
 8000d32:	187b      	adds	r3, r7, r1
 8000d34:	2200      	movs	r2, #0
 8000d36:	605a      	str	r2, [r3, #4]
    HAL_GPIO_Init(BUTTON_PORT [Button], &gpio_init_structure);
 8000d38:	1dfb      	adds	r3, r7, #7
 8000d3a:	781a      	ldrb	r2, [r3, #0]
 8000d3c:	4b26      	ldr	r3, [pc, #152]	@ (8000dd8 <BSP_PB_Init+0xf0>)
 8000d3e:	0092      	lsls	r2, r2, #2
 8000d40:	58d3      	ldr	r3, [r2, r3]
 8000d42:	187a      	adds	r2, r7, r1
 8000d44:	0011      	movs	r1, r2
 8000d46:	0018      	movs	r0, r3
 8000d48:	f002 f988 	bl	800305c <HAL_GPIO_Init>
 8000d4c:	e03d      	b.n	8000dca <BSP_PB_Init+0xe2>
  }
  else /* (ButtonMode == BUTTON_MODE_EXTI) */
  {
    /* Configure Button pin as input with External interrupt */
    gpio_init_structure.Mode = GPIO_MODE_IT_FALLING;
 8000d4e:	210c      	movs	r1, #12
 8000d50:	187b      	adds	r3, r7, r1
 8000d52:	2284      	movs	r2, #132	@ 0x84
 8000d54:	0392      	lsls	r2, r2, #14
 8000d56:	605a      	str	r2, [r3, #4]

    HAL_GPIO_Init(BUTTON_PORT[Button], &gpio_init_structure);
 8000d58:	1dfb      	adds	r3, r7, #7
 8000d5a:	781a      	ldrb	r2, [r3, #0]
 8000d5c:	4b1e      	ldr	r3, [pc, #120]	@ (8000dd8 <BSP_PB_Init+0xf0>)
 8000d5e:	0092      	lsls	r2, r2, #2
 8000d60:	58d3      	ldr	r3, [r2, r3]
 8000d62:	187a      	adds	r2, r7, r1
 8000d64:	0011      	movs	r1, r2
 8000d66:	0018      	movs	r0, r3
 8000d68:	f002 f978 	bl	800305c <HAL_GPIO_Init>

    (void)HAL_EXTI_GetHandle(&hpb_exti[Button], BUTTON_EXTI_LINE[Button]);
 8000d6c:	1dfb      	adds	r3, r7, #7
 8000d6e:	781a      	ldrb	r2, [r3, #0]
 8000d70:	0013      	movs	r3, r2
 8000d72:	005b      	lsls	r3, r3, #1
 8000d74:	189b      	adds	r3, r3, r2
 8000d76:	009b      	lsls	r3, r3, #2
 8000d78:	4a18      	ldr	r2, [pc, #96]	@ (8000ddc <BSP_PB_Init+0xf4>)
 8000d7a:	1898      	adds	r0, r3, r2
 8000d7c:	1dfb      	adds	r3, r7, #7
 8000d7e:	781a      	ldrb	r2, [r3, #0]
 8000d80:	4b17      	ldr	r3, [pc, #92]	@ (8000de0 <BSP_PB_Init+0xf8>)
 8000d82:	0092      	lsls	r2, r2, #2
 8000d84:	58d3      	ldr	r3, [r2, r3]
 8000d86:	0019      	movs	r1, r3
 8000d88:	f002 f90b 	bl	8002fa2 <HAL_EXTI_GetHandle>
    (void)HAL_EXTI_RegisterCallback(&hpb_exti[Button],  HAL_EXTI_COMMON_CB_ID, ButtonCallback[Button]);
 8000d8c:	1dfb      	adds	r3, r7, #7
 8000d8e:	781a      	ldrb	r2, [r3, #0]
 8000d90:	0013      	movs	r3, r2
 8000d92:	005b      	lsls	r3, r3, #1
 8000d94:	189b      	adds	r3, r3, r2
 8000d96:	009b      	lsls	r3, r3, #2
 8000d98:	4a10      	ldr	r2, [pc, #64]	@ (8000ddc <BSP_PB_Init+0xf4>)
 8000d9a:	1898      	adds	r0, r3, r2
 8000d9c:	1dfb      	adds	r3, r7, #7
 8000d9e:	781a      	ldrb	r2, [r3, #0]
 8000da0:	4b10      	ldr	r3, [pc, #64]	@ (8000de4 <BSP_PB_Init+0xfc>)
 8000da2:	0092      	lsls	r2, r2, #2
 8000da4:	58d3      	ldr	r3, [r2, r3]
 8000da6:	001a      	movs	r2, r3
 8000da8:	2100      	movs	r1, #0
 8000daa:	f002 f8c8 	bl	8002f3e <HAL_EXTI_RegisterCallback>

    /* Enable and set Button EXTI Interrupt to the lowest priority */
    HAL_NVIC_SetPriority((BUTTON_IRQn[Button]), BSP_BUTTON_PRIO[Button], 0x00);
 8000dae:	2007      	movs	r0, #7
 8000db0:	1dfb      	adds	r3, r7, #7
 8000db2:	781a      	ldrb	r2, [r3, #0]
 8000db4:	4b0c      	ldr	r3, [pc, #48]	@ (8000de8 <BSP_PB_Init+0x100>)
 8000db6:	0092      	lsls	r2, r2, #2
 8000db8:	58d3      	ldr	r3, [r2, r3]
 8000dba:	2200      	movs	r2, #0
 8000dbc:	0019      	movs	r1, r3
 8000dbe:	f000 fa39 	bl	8001234 <HAL_NVIC_SetPriority>
    HAL_NVIC_EnableIRQ((BUTTON_IRQn[Button]));
 8000dc2:	2307      	movs	r3, #7
 8000dc4:	0018      	movs	r0, r3
 8000dc6:	f000 fa4a 	bl	800125e <HAL_NVIC_EnableIRQ>
  }

  return BSP_ERROR_NONE;
 8000dca:	2300      	movs	r3, #0
}
 8000dcc:	0018      	movs	r0, r3
 8000dce:	46bd      	mov	sp, r7
 8000dd0:	b008      	add	sp, #32
 8000dd2:	bd80      	pop	{r7, pc}
 8000dd4:	40021000 	.word	0x40021000
 8000dd8:	20000040 	.word	0x20000040
 8000ddc:	20000180 	.word	0x20000180
 8000de0:	08006dfc 	.word	0x08006dfc
 8000de4:	20000044 	.word	0x20000044
 8000de8:	20000048 	.word	0x20000048

08000dec <BSP_PB_IRQHandler>:
  * @brief  BSP Button IRQ handler
  * @param  Button Can only be BUTTON_USER
  * @retval None
  */
void BSP_PB_IRQHandler(Button_TypeDef Button)
{
 8000dec:	b580      	push	{r7, lr}
 8000dee:	b082      	sub	sp, #8
 8000df0:	af00      	add	r7, sp, #0
 8000df2:	0002      	movs	r2, r0
 8000df4:	1dfb      	adds	r3, r7, #7
 8000df6:	701a      	strb	r2, [r3, #0]
  HAL_EXTI_IRQHandler(&hpb_exti[Button]);
 8000df8:	1dfb      	adds	r3, r7, #7
 8000dfa:	781a      	ldrb	r2, [r3, #0]
 8000dfc:	0013      	movs	r3, r2
 8000dfe:	005b      	lsls	r3, r3, #1
 8000e00:	189b      	adds	r3, r3, r2
 8000e02:	009b      	lsls	r3, r3, #2
 8000e04:	4a04      	ldr	r2, [pc, #16]	@ (8000e18 <BSP_PB_IRQHandler+0x2c>)
 8000e06:	189b      	adds	r3, r3, r2
 8000e08:	0018      	movs	r0, r3
 8000e0a:	f002 f8dd 	bl	8002fc8 <HAL_EXTI_IRQHandler>
}
 8000e0e:	46c0      	nop			@ (mov r8, r8)
 8000e10:	46bd      	mov	sp, r7
 8000e12:	b002      	add	sp, #8
 8000e14:	bd80      	pop	{r7, pc}
 8000e16:	46c0      	nop			@ (mov r8, r8)
 8000e18:	20000180 	.word	0x20000180

08000e1c <BSP_COM_Init>:
  * @param  COM_Init Pointer to a UART_HandleTypeDef structure that contains the
  *                  configuration information for the specified USART peripheral.
  * @retval BSP error code
  */
int32_t BSP_COM_Init(COM_TypeDef COM, COM_InitTypeDef *COM_Init)
{
 8000e1c:	b580      	push	{r7, lr}
 8000e1e:	b084      	sub	sp, #16
 8000e20:	af00      	add	r7, sp, #0
 8000e22:	0002      	movs	r2, r0
 8000e24:	6039      	str	r1, [r7, #0]
 8000e26:	1dfb      	adds	r3, r7, #7
 8000e28:	701a      	strb	r2, [r3, #0]
  int32_t ret = BSP_ERROR_NONE;
 8000e2a:	2300      	movs	r3, #0
 8000e2c:	60fb      	str	r3, [r7, #12]

  if (COM >= COMn)
 8000e2e:	1dfb      	adds	r3, r7, #7
 8000e30:	781b      	ldrb	r3, [r3, #0]
 8000e32:	2b00      	cmp	r3, #0
 8000e34:	d003      	beq.n	8000e3e <BSP_COM_Init+0x22>
  {
    ret = BSP_ERROR_WRONG_PARAM;
 8000e36:	2302      	movs	r3, #2
 8000e38:	425b      	negs	r3, r3
 8000e3a:	60fb      	str	r3, [r7, #12]
 8000e3c:	e018      	b.n	8000e70 <BSP_COM_Init+0x54>
  }
  else
  {
#if (USE_HAL_UART_REGISTER_CALLBACKS == 0)
    /* Init the UART Msp */
    COM1_MspInit(&hcom_uart[COM]);
 8000e3e:	1dfb      	adds	r3, r7, #7
 8000e40:	781b      	ldrb	r3, [r3, #0]
 8000e42:	2294      	movs	r2, #148	@ 0x94
 8000e44:	435a      	muls	r2, r3
 8000e46:	4b0d      	ldr	r3, [pc, #52]	@ (8000e7c <BSP_COM_Init+0x60>)
 8000e48:	18d3      	adds	r3, r2, r3
 8000e4a:	0018      	movs	r0, r3
 8000e4c:	f000 f870 	bl	8000f30 <COM1_MspInit>
        return BSP_ERROR_MSP_FAILURE;
      }
    }
#endif /* (USE_HAL_UART_REGISTER_CALLBACKS == 0) */

    if (MX_USART2_Init(&hcom_uart[COM], COM_Init) != HAL_OK)
 8000e50:	1dfb      	adds	r3, r7, #7
 8000e52:	781b      	ldrb	r3, [r3, #0]
 8000e54:	2294      	movs	r2, #148	@ 0x94
 8000e56:	435a      	muls	r2, r3
 8000e58:	4b08      	ldr	r3, [pc, #32]	@ (8000e7c <BSP_COM_Init+0x60>)
 8000e5a:	18d3      	adds	r3, r2, r3
 8000e5c:	683a      	ldr	r2, [r7, #0]
 8000e5e:	0011      	movs	r1, r2
 8000e60:	0018      	movs	r0, r3
 8000e62:	f000 f80d 	bl	8000e80 <MX_USART2_Init>
 8000e66:	1e03      	subs	r3, r0, #0
 8000e68:	d002      	beq.n	8000e70 <BSP_COM_Init+0x54>
    {
      ret = BSP_ERROR_PERIPH_FAILURE;
 8000e6a:	2304      	movs	r3, #4
 8000e6c:	425b      	negs	r3, r3
 8000e6e:	60fb      	str	r3, [r7, #12]
    }
  }

  return ret;
 8000e70:	68fb      	ldr	r3, [r7, #12]
}
 8000e72:	0018      	movs	r0, r3
 8000e74:	46bd      	mov	sp, r7
 8000e76:	b004      	add	sp, #16
 8000e78:	bd80      	pop	{r7, pc}
 8000e7a:	46c0      	nop			@ (mov r8, r8)
 8000e7c:	2000018c 	.word	0x2000018c

08000e80 <MX_USART2_Init>:
  * @param  COM_Init Pointer to a UART_HandleTypeDef structure that contains the
  *                  configuration information for the specified USART peripheral.
  * @retval HAL error code
  */
__weak HAL_StatusTypeDef MX_USART2_Init(UART_HandleTypeDef *huart, MX_UART_InitTypeDef *COM_Init)
{
 8000e80:	b580      	push	{r7, lr}
 8000e82:	b082      	sub	sp, #8
 8000e84:	af00      	add	r7, sp, #0
 8000e86:	6078      	str	r0, [r7, #4]
 8000e88:	6039      	str	r1, [r7, #0]
  /* USART configuration */
  huart->Instance                = COM_USART[COM1];
 8000e8a:	4b17      	ldr	r3, [pc, #92]	@ (8000ee8 <MX_USART2_Init+0x68>)
 8000e8c:	681a      	ldr	r2, [r3, #0]
 8000e8e:	687b      	ldr	r3, [r7, #4]
 8000e90:	601a      	str	r2, [r3, #0]
  huart->Init.BaudRate           = COM_Init->BaudRate;
 8000e92:	683b      	ldr	r3, [r7, #0]
 8000e94:	681a      	ldr	r2, [r3, #0]
 8000e96:	687b      	ldr	r3, [r7, #4]
 8000e98:	605a      	str	r2, [r3, #4]
  huart->Init.Mode               = UART_MODE_TX_RX;
 8000e9a:	687b      	ldr	r3, [r7, #4]
 8000e9c:	220c      	movs	r2, #12
 8000e9e:	615a      	str	r2, [r3, #20]
  huart->Init.Parity             = (uint32_t)COM_Init->Parity;
 8000ea0:	683b      	ldr	r3, [r7, #0]
 8000ea2:	895b      	ldrh	r3, [r3, #10]
 8000ea4:	001a      	movs	r2, r3
 8000ea6:	687b      	ldr	r3, [r7, #4]
 8000ea8:	611a      	str	r2, [r3, #16]
  huart->Init.WordLength         = (uint32_t)COM_Init->WordLength;
 8000eaa:	683b      	ldr	r3, [r7, #0]
 8000eac:	685a      	ldr	r2, [r3, #4]
 8000eae:	687b      	ldr	r3, [r7, #4]
 8000eb0:	609a      	str	r2, [r3, #8]
  huart->Init.StopBits           = (uint32_t)COM_Init->StopBits;
 8000eb2:	683b      	ldr	r3, [r7, #0]
 8000eb4:	891b      	ldrh	r3, [r3, #8]
 8000eb6:	001a      	movs	r2, r3
 8000eb8:	687b      	ldr	r3, [r7, #4]
 8000eba:	60da      	str	r2, [r3, #12]
  huart->Init.HwFlowCtl          = (uint32_t)COM_Init->HwFlowCtl;
 8000ebc:	683b      	ldr	r3, [r7, #0]
 8000ebe:	899b      	ldrh	r3, [r3, #12]
 8000ec0:	001a      	movs	r2, r3
 8000ec2:	687b      	ldr	r3, [r7, #4]
 8000ec4:	619a      	str	r2, [r3, #24]
  huart->Init.OverSampling       = UART_OVERSAMPLING_8;
 8000ec6:	687b      	ldr	r3, [r7, #4]
 8000ec8:	2280      	movs	r2, #128	@ 0x80
 8000eca:	0212      	lsls	r2, r2, #8
 8000ecc:	61da      	str	r2, [r3, #28]
  huart->Init.ClockPrescaler     = UART_PRESCALER_DIV1;
 8000ece:	687b      	ldr	r3, [r7, #4]
 8000ed0:	2200      	movs	r2, #0
 8000ed2:	625a      	str	r2, [r3, #36]	@ 0x24
  return HAL_UART_Init(huart);
 8000ed4:	687b      	ldr	r3, [r7, #4]
 8000ed6:	0018      	movs	r0, r3
 8000ed8:	f004 fa88 	bl	80053ec <HAL_UART_Init>
 8000edc:	0003      	movs	r3, r0
}
 8000ede:	0018      	movs	r0, r3
 8000ee0:	46bd      	mov	sp, r7
 8000ee2:	b002      	add	sp, #8
 8000ee4:	bd80      	pop	{r7, pc}
 8000ee6:	46c0      	nop			@ (mov r8, r8)
 8000ee8:	20000038 	.word	0x20000038

08000eec <__io_putchar>:
  }
  return len;
}
#endif /* __ICCARM__ */
PUTCHAR_PROTOTYPE
{
 8000eec:	b580      	push	{r7, lr}
 8000eee:	b082      	sub	sp, #8
 8000ef0:	af00      	add	r7, sp, #0
 8000ef2:	6078      	str	r0, [r7, #4]
  HAL_UART_Transmit(&hcom_uart [COM_ActiveLogPort], (uint8_t *) &ch, 1, COM_POLL_TIMEOUT);
 8000ef4:	4b08      	ldr	r3, [pc, #32]	@ (8000f18 <__io_putchar+0x2c>)
 8000ef6:	781b      	ldrb	r3, [r3, #0]
 8000ef8:	001a      	movs	r2, r3
 8000efa:	2394      	movs	r3, #148	@ 0x94
 8000efc:	435a      	muls	r2, r3
 8000efe:	4b07      	ldr	r3, [pc, #28]	@ (8000f1c <__io_putchar+0x30>)
 8000f00:	18d0      	adds	r0, r2, r3
 8000f02:	23fa      	movs	r3, #250	@ 0xfa
 8000f04:	009b      	lsls	r3, r3, #2
 8000f06:	1d39      	adds	r1, r7, #4
 8000f08:	2201      	movs	r2, #1
 8000f0a:	f004 facd 	bl	80054a8 <HAL_UART_Transmit>
  return ch;
 8000f0e:	687b      	ldr	r3, [r7, #4]
}
 8000f10:	0018      	movs	r0, r3
 8000f12:	46bd      	mov	sp, r7
 8000f14:	b002      	add	sp, #8
 8000f16:	bd80      	pop	{r7, pc}
 8000f18:	20000220 	.word	0x20000220
 8000f1c:	2000018c 	.word	0x2000018c

08000f20 <BUTTON_USER_EXTI_Callback>:
/**
  * @brief  Key EXTI line detection callbacks.
  * @retval BSP status
  */
static void BUTTON_USER_EXTI_Callback(void)
{
 8000f20:	b580      	push	{r7, lr}
 8000f22:	af00      	add	r7, sp, #0
  BSP_PB_Callback(BUTTON_USER);
 8000f24:	2000      	movs	r0, #0
 8000f26:	f7ff fc5d 	bl	80007e4 <BSP_PB_Callback>
}
 8000f2a:	46c0      	nop			@ (mov r8, r8)
 8000f2c:	46bd      	mov	sp, r7
 8000f2e:	bd80      	pop	{r7, pc}

08000f30 <COM1_MspInit>:
  * @brief  Initializes UART MSP.
  * @param  huart UART handle
  * @retval BSP status
  */
static void COM1_MspInit(UART_HandleTypeDef *huart)
{
 8000f30:	b590      	push	{r4, r7, lr}
 8000f32:	b08b      	sub	sp, #44	@ 0x2c
 8000f34:	af00      	add	r7, sp, #0
 8000f36:	6078      	str	r0, [r7, #4]

  /* Prevent unused argument(s) compilation warning */
  UNUSED(huart);

  /* Enable GPIO clock */
  COM1_TX_GPIO_CLK_ENABLE();
 8000f38:	4b28      	ldr	r3, [pc, #160]	@ (8000fdc <COM1_MspInit+0xac>)
 8000f3a:	6cda      	ldr	r2, [r3, #76]	@ 0x4c
 8000f3c:	4b27      	ldr	r3, [pc, #156]	@ (8000fdc <COM1_MspInit+0xac>)
 8000f3e:	2101      	movs	r1, #1
 8000f40:	430a      	orrs	r2, r1
 8000f42:	64da      	str	r2, [r3, #76]	@ 0x4c
 8000f44:	4b25      	ldr	r3, [pc, #148]	@ (8000fdc <COM1_MspInit+0xac>)
 8000f46:	6cdb      	ldr	r3, [r3, #76]	@ 0x4c
 8000f48:	2201      	movs	r2, #1
 8000f4a:	4013      	ands	r3, r2
 8000f4c:	613b      	str	r3, [r7, #16]
 8000f4e:	693b      	ldr	r3, [r7, #16]
  COM1_RX_GPIO_CLK_ENABLE();
 8000f50:	4b22      	ldr	r3, [pc, #136]	@ (8000fdc <COM1_MspInit+0xac>)
 8000f52:	6cda      	ldr	r2, [r3, #76]	@ 0x4c
 8000f54:	4b21      	ldr	r3, [pc, #132]	@ (8000fdc <COM1_MspInit+0xac>)
 8000f56:	2101      	movs	r1, #1
 8000f58:	430a      	orrs	r2, r1
 8000f5a:	64da      	str	r2, [r3, #76]	@ 0x4c
 8000f5c:	4b1f      	ldr	r3, [pc, #124]	@ (8000fdc <COM1_MspInit+0xac>)
 8000f5e:	6cdb      	ldr	r3, [r3, #76]	@ 0x4c
 8000f60:	2201      	movs	r2, #1
 8000f62:	4013      	ands	r3, r2
 8000f64:	60fb      	str	r3, [r7, #12]
 8000f66:	68fb      	ldr	r3, [r7, #12]

  /* Enable USART clock */
  COM1_CLK_ENABLE();
 8000f68:	4b1c      	ldr	r3, [pc, #112]	@ (8000fdc <COM1_MspInit+0xac>)
 8000f6a:	6d9a      	ldr	r2, [r3, #88]	@ 0x58
 8000f6c:	4b1b      	ldr	r3, [pc, #108]	@ (8000fdc <COM1_MspInit+0xac>)
 8000f6e:	2180      	movs	r1, #128	@ 0x80
 8000f70:	0289      	lsls	r1, r1, #10
 8000f72:	430a      	orrs	r2, r1
 8000f74:	659a      	str	r2, [r3, #88]	@ 0x58
 8000f76:	4b19      	ldr	r3, [pc, #100]	@ (8000fdc <COM1_MspInit+0xac>)
 8000f78:	6d9a      	ldr	r2, [r3, #88]	@ 0x58
 8000f7a:	2380      	movs	r3, #128	@ 0x80
 8000f7c:	029b      	lsls	r3, r3, #10
 8000f7e:	4013      	ands	r3, r2
 8000f80:	60bb      	str	r3, [r7, #8]
 8000f82:	68bb      	ldr	r3, [r7, #8]

  /* Configure USART Tx as alternate function */
  gpio_init_structure.Pin       = COM1_TX_PIN;
 8000f84:	2414      	movs	r4, #20
 8000f86:	193b      	adds	r3, r7, r4
 8000f88:	2204      	movs	r2, #4
 8000f8a:	601a      	str	r2, [r3, #0]
  gpio_init_structure.Mode      = GPIO_MODE_AF_PP;
 8000f8c:	193b      	adds	r3, r7, r4
 8000f8e:	2202      	movs	r2, #2
 8000f90:	605a      	str	r2, [r3, #4]
  gpio_init_structure.Speed     = GPIO_SPEED_FREQ_HIGH;
 8000f92:	193b      	adds	r3, r7, r4
 8000f94:	2202      	movs	r2, #2
 8000f96:	60da      	str	r2, [r3, #12]
  gpio_init_structure.Pull      = GPIO_PULLUP;
 8000f98:	193b      	adds	r3, r7, r4
 8000f9a:	2201      	movs	r2, #1
 8000f9c:	609a      	str	r2, [r3, #8]
  gpio_init_structure.Alternate = COM1_TX_AF;
 8000f9e:	193b      	adds	r3, r7, r4
 8000fa0:	2207      	movs	r2, #7
 8000fa2:	611a      	str	r2, [r3, #16]
  HAL_GPIO_Init(COM1_TX_GPIO_PORT, &gpio_init_structure);
 8000fa4:	193a      	adds	r2, r7, r4
 8000fa6:	23a0      	movs	r3, #160	@ 0xa0
 8000fa8:	05db      	lsls	r3, r3, #23
 8000faa:	0011      	movs	r1, r2
 8000fac:	0018      	movs	r0, r3
 8000fae:	f002 f855 	bl	800305c <HAL_GPIO_Init>

  /* Configure USART Rx as alternate function */
  gpio_init_structure.Pin       = COM1_RX_PIN;
 8000fb2:	193b      	adds	r3, r7, r4
 8000fb4:	2208      	movs	r2, #8
 8000fb6:	601a      	str	r2, [r3, #0]
  gpio_init_structure.Mode      = GPIO_MODE_AF_PP;
 8000fb8:	193b      	adds	r3, r7, r4
 8000fba:	2202      	movs	r2, #2
 8000fbc:	605a      	str	r2, [r3, #4]
  gpio_init_structure.Alternate = COM1_RX_AF;
 8000fbe:	193b      	adds	r3, r7, r4
 8000fc0:	2207      	movs	r2, #7
 8000fc2:	611a      	str	r2, [r3, #16]
  HAL_GPIO_Init(COM1_RX_GPIO_PORT, &gpio_init_structure);
 8000fc4:	193a      	adds	r2, r7, r4
 8000fc6:	23a0      	movs	r3, #160	@ 0xa0
 8000fc8:	05db      	lsls	r3, r3, #23
 8000fca:	0011      	movs	r1, r2
 8000fcc:	0018      	movs	r0, r3
 8000fce:	f002 f845 	bl	800305c <HAL_GPIO_Init>
}
 8000fd2:	46c0      	nop			@ (mov r8, r8)
 8000fd4:	46bd      	mov	sp, r7
 8000fd6:	b00b      	add	sp, #44	@ 0x2c
 8000fd8:	bd90      	pop	{r4, r7, pc}
 8000fda:	46c0      	nop			@ (mov r8, r8)
 8000fdc:	40021000 	.word	0x40021000

08000fe0 <HAL_Init>:
  *         each 1ms in the SysTick_Handler() interrupt handler.
  *
  * @retval HAL status
  */
HAL_StatusTypeDef HAL_Init(void)
{
 8000fe0:	b580      	push	{r7, lr}
 8000fe2:	b082      	sub	sp, #8
 8000fe4:	af00      	add	r7, sp, #0
  HAL_StatusTypeDef  status = HAL_OK;
 8000fe6:	1dfb      	adds	r3, r7, #7
 8000fe8:	2200      	movs	r2, #0
 8000fea:	701a      	strb	r2, [r3, #0]
#if (PREFETCH_ENABLE != 0U)
  __HAL_FLASH_PREFETCH_BUFFER_ENABLE();
#endif /* PREFETCH_ENABLE */

  /* Use SysTick as time base source and configure 1ms tick (default clock after Reset is HSI) */
  if (HAL_InitTick(TICK_INT_PRIORITY) != HAL_OK)
 8000fec:	2003      	movs	r0, #3
 8000fee:	f000 f80f 	bl	8001010 <HAL_InitTick>
 8000ff2:	1e03      	subs	r3, r0, #0
 8000ff4:	d003      	beq.n	8000ffe <HAL_Init+0x1e>
  {
    status = HAL_ERROR;
 8000ff6:	1dfb      	adds	r3, r7, #7
 8000ff8:	2201      	movs	r2, #1
 8000ffa:	701a      	strb	r2, [r3, #0]
 8000ffc:	e001      	b.n	8001002 <HAL_Init+0x22>
  }
  else
  {
    /* Init the low level hardware */
    HAL_MspInit();
 8000ffe:	f7ff fca7 	bl	8000950 <HAL_MspInit>
  }

  /* Return function status */
  return status;
 8001002:	1dfb      	adds	r3, r7, #7
 8001004:	781b      	ldrb	r3, [r3, #0]
}
 8001006:	0018      	movs	r0, r3
 8001008:	46bd      	mov	sp, r7
 800100a:	b002      	add	sp, #8
 800100c:	bd80      	pop	{r7, pc}
	...

08001010 <HAL_InitTick>:
  *       implementation  in user file.
  * @param TickPriority Tick interrupt priority.
  * @retval HAL status
  */
__weak HAL_StatusTypeDef HAL_InitTick(uint32_t TickPriority)
{
 8001010:	b590      	push	{r4, r7, lr}
 8001012:	b085      	sub	sp, #20
 8001014:	af00      	add	r7, sp, #0
 8001016:	6078      	str	r0, [r7, #4]
  HAL_StatusTypeDef  status = HAL_OK;
 8001018:	230f      	movs	r3, #15
 800101a:	18fb      	adds	r3, r7, r3
 800101c:	2200      	movs	r2, #0
 800101e:	701a      	strb	r2, [r3, #0]

  if ((uint32_t)uwTickFreq != 0U)
 8001020:	4b1d      	ldr	r3, [pc, #116]	@ (8001098 <HAL_InitTick+0x88>)
 8001022:	781b      	ldrb	r3, [r3, #0]
 8001024:	2b00      	cmp	r3, #0
 8001026:	d02b      	beq.n	8001080 <HAL_InitTick+0x70>
  {
    /*Configure the SysTick to have interrupt in 1ms time basis*/
    if (HAL_SYSTICK_Config(SystemCoreClock / (1000U / (uint32_t)uwTickFreq)) == 0U)
 8001028:	4b1c      	ldr	r3, [pc, #112]	@ (800109c <HAL_InitTick+0x8c>)
 800102a:	681c      	ldr	r4, [r3, #0]
 800102c:	4b1a      	ldr	r3, [pc, #104]	@ (8001098 <HAL_InitTick+0x88>)
 800102e:	781b      	ldrb	r3, [r3, #0]
 8001030:	0019      	movs	r1, r3
 8001032:	23fa      	movs	r3, #250	@ 0xfa
 8001034:	0098      	lsls	r0, r3, #2
 8001036:	f7ff f871 	bl	800011c <__udivsi3>
 800103a:	0003      	movs	r3, r0
 800103c:	0019      	movs	r1, r3
 800103e:	0020      	movs	r0, r4
 8001040:	f7ff f86c 	bl	800011c <__udivsi3>
 8001044:	0003      	movs	r3, r0
 8001046:	0018      	movs	r0, r3
 8001048:	f000 f919 	bl	800127e <HAL_SYSTICK_Config>
 800104c:	1e03      	subs	r3, r0, #0
 800104e:	d112      	bne.n	8001076 <HAL_InitTick+0x66>
    {
      /* Configure the SysTick IRQ priority */
      if (TickPriority < (1UL << __NVIC_PRIO_BITS))
 8001050:	687b      	ldr	r3, [r7, #4]
 8001052:	2b03      	cmp	r3, #3
 8001054:	d80a      	bhi.n	800106c <HAL_InitTick+0x5c>
      {
        HAL_NVIC_SetPriority(SysTick_IRQn, TickPriority, 0U);
 8001056:	6879      	ldr	r1, [r7, #4]
 8001058:	2301      	movs	r3, #1
 800105a:	425b      	negs	r3, r3
 800105c:	2200      	movs	r2, #0
 800105e:	0018      	movs	r0, r3
 8001060:	f000 f8e8 	bl	8001234 <HAL_NVIC_SetPriority>
        uwTickPrio = TickPriority;
 8001064:	4b0e      	ldr	r3, [pc, #56]	@ (80010a0 <HAL_InitTick+0x90>)
 8001066:	687a      	ldr	r2, [r7, #4]
 8001068:	601a      	str	r2, [r3, #0]
 800106a:	e00d      	b.n	8001088 <HAL_InitTick+0x78>
      }
      else
      {
        status = HAL_ERROR;
 800106c:	230f      	movs	r3, #15
 800106e:	18fb      	adds	r3, r7, r3
 8001070:	2201      	movs	r2, #1
 8001072:	701a      	strb	r2, [r3, #0]
 8001074:	e008      	b.n	8001088 <HAL_InitTick+0x78>
      }
    }
    else
    {
      status = HAL_ERROR;
 8001076:	230f      	movs	r3, #15
 8001078:	18fb      	adds	r3, r7, r3
 800107a:	2201      	movs	r2, #1
 800107c:	701a      	strb	r2, [r3, #0]
 800107e:	e003      	b.n	8001088 <HAL_InitTick+0x78>
    }
  }
  else
  {
    status = HAL_ERROR;
 8001080:	230f      	movs	r3, #15
 8001082:	18fb      	adds	r3, r7, r3
 8001084:	2201      	movs	r2, #1
 8001086:	701a      	strb	r2, [r3, #0]
  }

  /* Return function status */
  return status;
 8001088:	230f      	movs	r3, #15
 800108a:	18fb      	adds	r3, r7, r3
 800108c:	781b      	ldrb	r3, [r3, #0]
}
 800108e:	0018      	movs	r0, r3
 8001090:	46bd      	mov	sp, r7
 8001092:	b005      	add	sp, #20
 8001094:	bd90      	pop	{r4, r7, pc}
 8001096:	46c0      	nop			@ (mov r8, r8)
 8001098:	20000050 	.word	0x20000050
 800109c:	20000034 	.word	0x20000034
 80010a0:	2000004c 	.word	0x2000004c

080010a4 <HAL_IncTick>:
  * @note This function is declared as __weak to be overwritten in case of other
  *      implementations in user file.
  * @retval None
  */
__weak void HAL_IncTick(void)
{
 80010a4:	b580      	push	{r7, lr}
 80010a6:	af00      	add	r7, sp, #0
  uwTick += (uint32_t)uwTickFreq;
 80010a8:	4b05      	ldr	r3, [pc, #20]	@ (80010c0 <HAL_IncTick+0x1c>)
 80010aa:	781b      	ldrb	r3, [r3, #0]
 80010ac:	001a      	movs	r2, r3
 80010ae:	4b05      	ldr	r3, [pc, #20]	@ (80010c4 <HAL_IncTick+0x20>)
 80010b0:	681b      	ldr	r3, [r3, #0]
 80010b2:	18d2      	adds	r2, r2, r3
 80010b4:	4b03      	ldr	r3, [pc, #12]	@ (80010c4 <HAL_IncTick+0x20>)
 80010b6:	601a      	str	r2, [r3, #0]
}
 80010b8:	46c0      	nop			@ (mov r8, r8)
 80010ba:	46bd      	mov	sp, r7
 80010bc:	bd80      	pop	{r7, pc}
 80010be:	46c0      	nop			@ (mov r8, r8)
 80010c0:	20000050 	.word	0x20000050
 80010c4:	20000224 	.word	0x20000224

080010c8 <HAL_GetTick>:
  * @note This function is declared as __weak to be overwritten in case of other
  *       implementations in user file.
  * @retval tick value
  */
__weak uint32_t HAL_GetTick(void)
{
 80010c8:	b580      	push	{r7, lr}
 80010ca:	af00      	add	r7, sp, #0
  return uwTick;
 80010cc:	4b02      	ldr	r3, [pc, #8]	@ (80010d8 <HAL_GetTick+0x10>)
 80010ce:	681b      	ldr	r3, [r3, #0]
}
 80010d0:	0018      	movs	r0, r3
 80010d2:	46bd      	mov	sp, r7
 80010d4:	bd80      	pop	{r7, pc}
 80010d6:	46c0      	nop			@ (mov r8, r8)
 80010d8:	20000224 	.word	0x20000224

080010dc <__NVIC_EnableIRQ>:
  \details Enables a device specific interrupt in the NVIC interrupt controller.
  \param [in]      IRQn  Device specific interrupt number.
  \note    IRQn must not be negative.
 */
__STATIC_INLINE void __NVIC_EnableIRQ(IRQn_Type IRQn)
{
 80010dc:	b580      	push	{r7, lr}
 80010de:	b082      	sub	sp, #8
 80010e0:	af00      	add	r7, sp, #0
 80010e2:	0002      	movs	r2, r0
 80010e4:	1dfb      	adds	r3, r7, #7
 80010e6:	701a      	strb	r2, [r3, #0]
  if ((int32_t)(IRQn) >= 0)
 80010e8:	1dfb      	adds	r3, r7, #7
 80010ea:	781b      	ldrb	r3, [r3, #0]
 80010ec:	2b7f      	cmp	r3, #127	@ 0x7f
 80010ee:	d809      	bhi.n	8001104 <__NVIC_EnableIRQ+0x28>
  {
    __COMPILER_BARRIER();
    NVIC->ISER[0U] = (uint32_t)(1UL << (((uint32_t)IRQn) & 0x1FUL));
 80010f0:	1dfb      	adds	r3, r7, #7
 80010f2:	781b      	ldrb	r3, [r3, #0]
 80010f4:	001a      	movs	r2, r3
 80010f6:	231f      	movs	r3, #31
 80010f8:	401a      	ands	r2, r3
 80010fa:	4b04      	ldr	r3, [pc, #16]	@ (800110c <__NVIC_EnableIRQ+0x30>)
 80010fc:	2101      	movs	r1, #1
 80010fe:	4091      	lsls	r1, r2
 8001100:	000a      	movs	r2, r1
 8001102:	601a      	str	r2, [r3, #0]
    __COMPILER_BARRIER();
  }
}
 8001104:	46c0      	nop			@ (mov r8, r8)
 8001106:	46bd      	mov	sp, r7
 8001108:	b002      	add	sp, #8
 800110a:	bd80      	pop	{r7, pc}
 800110c:	e000e100 	.word	0xe000e100

08001110 <__NVIC_SetPriority>:
  \param [in]      IRQn  Interrupt number.
  \param [in]  priority  Priority to set.
  \note    The priority cannot be set for every processor exception.
 */
__STATIC_INLINE void __NVIC_SetPriority(IRQn_Type IRQn, uint32_t priority)
{
 8001110:	b590      	push	{r4, r7, lr}
 8001112:	b083      	sub	sp, #12
 8001114:	af00      	add	r7, sp, #0
 8001116:	0002      	movs	r2, r0
 8001118:	6039      	str	r1, [r7, #0]
 800111a:	1dfb      	adds	r3, r7, #7
 800111c:	701a      	strb	r2, [r3, #0]
  if ((int32_t)(IRQn) >= 0)
 800111e:	1dfb      	adds	r3, r7, #7
 8001120:	781b      	ldrb	r3, [r3, #0]
 8001122:	2b7f      	cmp	r3, #127	@ 0x7f
 8001124:	d828      	bhi.n	8001178 <__NVIC_SetPriority+0x68>
  {
    NVIC->IP[_IP_IDX(IRQn)]  = ((uint32_t)(NVIC->IP[_IP_IDX(IRQn)]  & ~(0xFFUL << _BIT_SHIFT(IRQn))) |
 8001126:	4a2f      	ldr	r2, [pc, #188]	@ (80011e4 <__NVIC_SetPriority+0xd4>)
 8001128:	1dfb      	adds	r3, r7, #7
 800112a:	781b      	ldrb	r3, [r3, #0]
 800112c:	b25b      	sxtb	r3, r3
 800112e:	089b      	lsrs	r3, r3, #2
 8001130:	33c0      	adds	r3, #192	@ 0xc0
 8001132:	009b      	lsls	r3, r3, #2
 8001134:	589b      	ldr	r3, [r3, r2]
 8001136:	1dfa      	adds	r2, r7, #7
 8001138:	7812      	ldrb	r2, [r2, #0]
 800113a:	0011      	movs	r1, r2
 800113c:	2203      	movs	r2, #3
 800113e:	400a      	ands	r2, r1
 8001140:	00d2      	lsls	r2, r2, #3
 8001142:	21ff      	movs	r1, #255	@ 0xff
 8001144:	4091      	lsls	r1, r2
 8001146:	000a      	movs	r2, r1
 8001148:	43d2      	mvns	r2, r2
 800114a:	401a      	ands	r2, r3
 800114c:	0011      	movs	r1, r2
       (((priority << (8U - __NVIC_PRIO_BITS)) & (uint32_t)0xFFUL) << _BIT_SHIFT(IRQn)));
 800114e:	683b      	ldr	r3, [r7, #0]
 8001150:	019b      	lsls	r3, r3, #6
 8001152:	22ff      	movs	r2, #255	@ 0xff
 8001154:	401a      	ands	r2, r3
 8001156:	1dfb      	adds	r3, r7, #7
 8001158:	781b      	ldrb	r3, [r3, #0]
 800115a:	0018      	movs	r0, r3
 800115c:	2303      	movs	r3, #3
 800115e:	4003      	ands	r3, r0
 8001160:	00db      	lsls	r3, r3, #3
 8001162:	409a      	lsls	r2, r3
    NVIC->IP[_IP_IDX(IRQn)]  = ((uint32_t)(NVIC->IP[_IP_IDX(IRQn)]  & ~(0xFFUL << _BIT_SHIFT(IRQn))) |
 8001164:	481f      	ldr	r0, [pc, #124]	@ (80011e4 <__NVIC_SetPriority+0xd4>)
 8001166:	1dfb      	adds	r3, r7, #7
 8001168:	781b      	ldrb	r3, [r3, #0]
 800116a:	b25b      	sxtb	r3, r3
 800116c:	089b      	lsrs	r3, r3, #2
 800116e:	430a      	orrs	r2, r1
 8001170:	33c0      	adds	r3, #192	@ 0xc0
 8001172:	009b      	lsls	r3, r3, #2
 8001174:	501a      	str	r2, [r3, r0]
  else
  {
    SCB->SHP[_SHP_IDX(IRQn)] = ((uint32_t)(SCB->SHP[_SHP_IDX(IRQn)] & ~(0xFFUL << _BIT_SHIFT(IRQn))) |
       (((priority << (8U - __NVIC_PRIO_BITS)) & (uint32_t)0xFFUL) << _BIT_SHIFT(IRQn)));
  }
}
 8001176:	e031      	b.n	80011dc <__NVIC_SetPriority+0xcc>
    SCB->SHP[_SHP_IDX(IRQn)] = ((uint32_t)(SCB->SHP[_SHP_IDX(IRQn)] & ~(0xFFUL << _BIT_SHIFT(IRQn))) |
 8001178:	4a1b      	ldr	r2, [pc, #108]	@ (80011e8 <__NVIC_SetPriority+0xd8>)
 800117a:	1dfb      	adds	r3, r7, #7
 800117c:	781b      	ldrb	r3, [r3, #0]
 800117e:	0019      	movs	r1, r3
 8001180:	230f      	movs	r3, #15
 8001182:	400b      	ands	r3, r1
 8001184:	3b08      	subs	r3, #8
 8001186:	089b      	lsrs	r3, r3, #2
 8001188:	3306      	adds	r3, #6
 800118a:	009b      	lsls	r3, r3, #2
 800118c:	18d3      	adds	r3, r2, r3
 800118e:	3304      	adds	r3, #4
 8001190:	681b      	ldr	r3, [r3, #0]
 8001192:	1dfa      	adds	r2, r7, #7
 8001194:	7812      	ldrb	r2, [r2, #0]
 8001196:	0011      	movs	r1, r2
 8001198:	2203      	movs	r2, #3
 800119a:	400a      	ands	r2, r1
 800119c:	00d2      	lsls	r2, r2, #3
 800119e:	21ff      	movs	r1, #255	@ 0xff
 80011a0:	4091      	lsls	r1, r2
 80011a2:	000a      	movs	r2, r1
 80011a4:	43d2      	mvns	r2, r2
 80011a6:	401a      	ands	r2, r3
 80011a8:	0011      	movs	r1, r2
       (((priority << (8U - __NVIC_PRIO_BITS)) & (uint32_t)0xFFUL) << _BIT_SHIFT(IRQn)));
 80011aa:	683b      	ldr	r3, [r7, #0]
 80011ac:	019b      	lsls	r3, r3, #6
 80011ae:	22ff      	movs	r2, #255	@ 0xff
 80011b0:	401a      	ands	r2, r3
 80011b2:	1dfb      	adds	r3, r7, #7
 80011b4:	781b      	ldrb	r3, [r3, #0]
 80011b6:	0018      	movs	r0, r3
 80011b8:	2303      	movs	r3, #3
 80011ba:	4003      	ands	r3, r0
 80011bc:	00db      	lsls	r3, r3, #3
 80011be:	409a      	lsls	r2, r3
    SCB->SHP[_SHP_IDX(IRQn)] = ((uint32_t)(SCB->SHP[_SHP_IDX(IRQn)] & ~(0xFFUL << _BIT_SHIFT(IRQn))) |
 80011c0:	4809      	ldr	r0, [pc, #36]	@ (80011e8 <__NVIC_SetPriority+0xd8>)
 80011c2:	1dfb      	adds	r3, r7, #7
 80011c4:	781b      	ldrb	r3, [r3, #0]
 80011c6:	001c      	movs	r4, r3
 80011c8:	230f      	movs	r3, #15
 80011ca:	4023      	ands	r3, r4
 80011cc:	3b08      	subs	r3, #8
 80011ce:	089b      	lsrs	r3, r3, #2
 80011d0:	430a      	orrs	r2, r1
 80011d2:	3306      	adds	r3, #6
 80011d4:	009b      	lsls	r3, r3, #2
 80011d6:	18c3      	adds	r3, r0, r3
 80011d8:	3304      	adds	r3, #4
 80011da:	601a      	str	r2, [r3, #0]
}
 80011dc:	46c0      	nop			@ (mov r8, r8)
 80011de:	46bd      	mov	sp, r7
 80011e0:	b003      	add	sp, #12
 80011e2:	bd90      	pop	{r4, r7, pc}
 80011e4:	e000e100 	.word	0xe000e100
 80011e8:	e000ed00 	.word	0xe000ed00

080011ec <SysTick_Config>:
  \note    When the variable <b>__Vendor_SysTickConfig</b> is set to 1, then the
           function <b>SysTick_Config</b> is not included. In this case, the file <b><i>device</i>.h</b>
           must contain a vendor-specific implementation of this function.
 */
__STATIC_INLINE uint32_t SysTick_Config(uint32_t ticks)
{
 80011ec:	b580      	push	{r7, lr}
 80011ee:	b082      	sub	sp, #8
 80011f0:	af00      	add	r7, sp, #0
 80011f2:	6078      	str	r0, [r7, #4]
  if ((ticks - 1UL) > SysTick_LOAD_RELOAD_Msk)
 80011f4:	687b      	ldr	r3, [r7, #4]
 80011f6:	1e5a      	subs	r2, r3, #1
 80011f8:	2380      	movs	r3, #128	@ 0x80
 80011fa:	045b      	lsls	r3, r3, #17
 80011fc:	429a      	cmp	r2, r3
 80011fe:	d301      	bcc.n	8001204 <SysTick_Config+0x18>
  {
    return (1UL);                                                   /* Reload value impossible */
 8001200:	2301      	movs	r3, #1
 8001202:	e010      	b.n	8001226 <SysTick_Config+0x3a>
  }

  SysTick->LOAD  = (uint32_t)(ticks - 1UL);                         /* set reload register */
 8001204:	4b0a      	ldr	r3, [pc, #40]	@ (8001230 <SysTick_Config+0x44>)
 8001206:	687a      	ldr	r2, [r7, #4]
 8001208:	3a01      	subs	r2, #1
 800120a:	605a      	str	r2, [r3, #4]
  NVIC_SetPriority (SysTick_IRQn, (1UL << __NVIC_PRIO_BITS) - 1UL); /* set Priority for Systick Interrupt */
 800120c:	2301      	movs	r3, #1
 800120e:	425b      	negs	r3, r3
 8001210:	2103      	movs	r1, #3
 8001212:	0018      	movs	r0, r3
 8001214:	f7ff ff7c 	bl	8001110 <__NVIC_SetPriority>
  SysTick->VAL   = 0UL;                                             /* Load the SysTick Counter Value */
 8001218:	4b05      	ldr	r3, [pc, #20]	@ (8001230 <SysTick_Config+0x44>)
 800121a:	2200      	movs	r2, #0
 800121c:	609a      	str	r2, [r3, #8]
  SysTick->CTRL  = SysTick_CTRL_CLKSOURCE_Msk |
 800121e:	4b04      	ldr	r3, [pc, #16]	@ (8001230 <SysTick_Config+0x44>)
 8001220:	2207      	movs	r2, #7
 8001222:	601a      	str	r2, [r3, #0]
                   SysTick_CTRL_TICKINT_Msk   |
                   SysTick_CTRL_ENABLE_Msk;                         /* Enable SysTick IRQ and SysTick Timer */
  return (0UL);                                                     /* Function successful */
 8001224:	2300      	movs	r3, #0
}
 8001226:	0018      	movs	r0, r3
 8001228:	46bd      	mov	sp, r7
 800122a:	b002      	add	sp, #8
 800122c:	bd80      	pop	{r7, pc}
 800122e:	46c0      	nop			@ (mov r8, r8)
 8001230:	e000e010 	.word	0xe000e010

08001234 <HAL_NVIC_SetPriority>:
  *         with stm32u0xx devices, this parameter is a dummy value and it is ignored, because
  *         no subpriority supported in Cortex M0+ based products.
  * @retval None
  */
void HAL_NVIC_SetPriority(IRQn_Type IRQn, uint32_t PreemptPriority, uint32_t SubPriority)
{
 8001234:	b580      	push	{r7, lr}
 8001236:	b084      	sub	sp, #16
 8001238:	af00      	add	r7, sp, #0
 800123a:	60b9      	str	r1, [r7, #8]
 800123c:	607a      	str	r2, [r7, #4]
 800123e:	210f      	movs	r1, #15
 8001240:	187b      	adds	r3, r7, r1
 8001242:	1c02      	adds	r2, r0, #0
 8001244:	701a      	strb	r2, [r3, #0]
  /* Prevent unused argument(s) compilation warning */
  (void)(SubPriority);
  /* Check the parameters */
  assert_param(IS_NVIC_PREEMPTION_PRIORITY(PreemptPriority));
  NVIC_SetPriority(IRQn, PreemptPriority);
 8001246:	68ba      	ldr	r2, [r7, #8]
 8001248:	187b      	adds	r3, r7, r1
 800124a:	781b      	ldrb	r3, [r3, #0]
 800124c:	b25b      	sxtb	r3, r3
 800124e:	0011      	movs	r1, r2
 8001250:	0018      	movs	r0, r3
 8001252:	f7ff ff5d 	bl	8001110 <__NVIC_SetPriority>
}
 8001256:	46c0      	nop			@ (mov r8, r8)
 8001258:	46bd      	mov	sp, r7
 800125a:	b004      	add	sp, #16
 800125c:	bd80      	pop	{r7, pc}

0800125e <HAL_NVIC_EnableIRQ>:
  *         (For the complete STM32 Devices IRQ Channels list, please refer to the appropriate
  *         CMSIS device file (stm32u0xxxx.h))
  * @retval None
  */
void HAL_NVIC_EnableIRQ(IRQn_Type IRQn)
{
 800125e:	b580      	push	{r7, lr}
 8001260:	b082      	sub	sp, #8
 8001262:	af00      	add	r7, sp, #0
 8001264:	0002      	movs	r2, r0
 8001266:	1dfb      	adds	r3, r7, #7
 8001268:	701a      	strb	r2, [r3, #0]
  /* Check the parameters */
  assert_param(IS_NVIC_DEVICE_IRQ(IRQn));

  /* Enable interrupt */
  NVIC_EnableIRQ(IRQn);
 800126a:	1dfb      	adds	r3, r7, #7
 800126c:	781b      	ldrb	r3, [r3, #0]
 800126e:	b25b      	sxtb	r3, r3
 8001270:	0018      	movs	r0, r3
 8001272:	f7ff ff33 	bl	80010dc <__NVIC_EnableIRQ>
}
 8001276:	46c0      	nop			@ (mov r8, r8)
 8001278:	46bd      	mov	sp, r7
 800127a:	b002      	add	sp, #8
 800127c:	bd80      	pop	{r7, pc}

0800127e <HAL_SYSTICK_Config>:
  * @param  TicksNumb Specifies the ticks Number of ticks between two interrupts.
  * @retval status:  - 0  Function succeeded.
  *                  - 1  Function failed.
  */
uint32_t HAL_SYSTICK_Config(uint32_t TicksNumb)
{
 800127e:	b580      	push	{r7, lr}
 8001280:	b082      	sub	sp, #8
 8001282:	af00      	add	r7, sp, #0
 8001284:	6078      	str	r0, [r7, #4]
  return SysTick_Config(TicksNumb);
 8001286:	687b      	ldr	r3, [r7, #4]
 8001288:	0018      	movs	r0, r3
 800128a:	f7ff ffaf 	bl	80011ec <SysTick_Config>
 800128e:	0003      	movs	r3, r0
}
 8001290:	0018      	movs	r0, r3
 8001292:	46bd      	mov	sp, r7
 8001294:	b002      	add	sp, #8
 8001296:	bd80      	pop	{r7, pc}

08001298 <HAL_CRYP_Init>:
  * @param  hcryp pointer to a CRYP_HandleTypeDef structure that contains
  *         the configuration information for CRYP module
  * @retval HAL status
  */
HAL_StatusTypeDef HAL_CRYP_Init(CRYP_HandleTypeDef *hcryp)
{
 8001298:	b580      	push	{r7, lr}
 800129a:	b082      	sub	sp, #8
 800129c:	af00      	add	r7, sp, #0
 800129e:	6078      	str	r0, [r7, #4]
  /* Check the CRYP handle allocation */
  if (hcryp == NULL)
 80012a0:	687b      	ldr	r3, [r7, #4]
 80012a2:	2b00      	cmp	r3, #0
 80012a4:	d101      	bne.n	80012aa <HAL_CRYP_Init+0x12>
  {
    return HAL_ERROR;
 80012a6:	2301      	movs	r3, #1
 80012a8:	e02d      	b.n	8001306 <HAL_CRYP_Init+0x6e>

    /* Init the low level hardware */
    hcryp->MspInitCallback(hcryp);
  }
#else
  if (hcryp->State == HAL_CRYP_STATE_RESET)
 80012aa:	687b      	ldr	r3, [r7, #4]
 80012ac:	2251      	movs	r2, #81	@ 0x51
 80012ae:	5c9b      	ldrb	r3, [r3, r2]
 80012b0:	b2db      	uxtb	r3, r3
 80012b2:	2b00      	cmp	r3, #0
 80012b4:	d107      	bne.n	80012c6 <HAL_CRYP_Init+0x2e>
  {
    /* Allocate lock resource and initialize it */
    hcryp->Lock = HAL_UNLOCKED;
 80012b6:	687b      	ldr	r3, [r7, #4]
 80012b8:	2250      	movs	r2, #80	@ 0x50
 80012ba:	2100      	movs	r1, #0
 80012bc:	5499      	strb	r1, [r3, r2]

    /* Init the low level hardware */
    HAL_CRYP_MspInit(hcryp);
 80012be:	687b      	ldr	r3, [r7, #4]
 80012c0:	0018      	movs	r0, r3
 80012c2:	f7ff f8fd 	bl	80004c0 <HAL_CRYP_MspInit>
  }
#endif /* (USE_HAL_CRYP_REGISTER_CALLBACKS) */

  /* Set the key size (This bit field is do not care in the DES or TDES modes), data type and Algorithm */
  MODIFY_REG(hcryp->Instance->CR, AES_CR_DATATYPE | AES_CR_KEYSIZE | AES_CR_CHMOD,
 80012c6:	687b      	ldr	r3, [r7, #4]
 80012c8:	681b      	ldr	r3, [r3, #0]
 80012ca:	681b      	ldr	r3, [r3, #0]
 80012cc:	4a10      	ldr	r2, [pc, #64]	@ (8001310 <HAL_CRYP_Init+0x78>)
 80012ce:	4013      	ands	r3, r2
 80012d0:	0019      	movs	r1, r3
 80012d2:	687b      	ldr	r3, [r7, #4]
 80012d4:	685a      	ldr	r2, [r3, #4]
 80012d6:	687b      	ldr	r3, [r7, #4]
 80012d8:	689b      	ldr	r3, [r3, #8]
 80012da:	431a      	orrs	r2, r3
 80012dc:	687b      	ldr	r3, [r7, #4]
 80012de:	695b      	ldr	r3, [r3, #20]
 80012e0:	431a      	orrs	r2, r3
 80012e2:	687b      	ldr	r3, [r7, #4]
 80012e4:	681b      	ldr	r3, [r3, #0]
 80012e6:	430a      	orrs	r2, r1
 80012e8:	601a      	str	r2, [r3, #0]
             hcryp->Init.DataType | hcryp->Init.KeySize | hcryp->Init.Algorithm);

  /* Reset Error Code field */
  hcryp->ErrorCode = HAL_CRYP_ERROR_NONE;
 80012ea:	687b      	ldr	r3, [r7, #4]
 80012ec:	2200      	movs	r2, #0
 80012ee:	655a      	str	r2, [r3, #84]	@ 0x54

  /* Reset peripheral Key and IV configuration flag */
  hcryp->KeyIVConfig = 0U;
 80012f0:	687b      	ldr	r3, [r7, #4]
 80012f2:	2200      	movs	r2, #0
 80012f4:	659a      	str	r2, [r3, #88]	@ 0x58

  /* Change the CRYP state */
  hcryp->State = HAL_CRYP_STATE_READY;
 80012f6:	687b      	ldr	r3, [r7, #4]
 80012f8:	2251      	movs	r2, #81	@ 0x51
 80012fa:	2101      	movs	r1, #1
 80012fc:	5499      	strb	r1, [r3, r2]

  /* Set the default CRYP phase */
  hcryp->Phase = CRYP_PHASE_READY;
 80012fe:	687b      	ldr	r3, [r7, #4]
 8001300:	2201      	movs	r2, #1
 8001302:	645a      	str	r2, [r3, #68]	@ 0x44

  /* Return function status */
  return HAL_OK;
 8001304:	2300      	movs	r3, #0
}
 8001306:	0018      	movs	r0, r3
 8001308:	46bd      	mov	sp, r7
 800130a:	b002      	add	sp, #8
 800130c:	bd80      	pop	{r7, pc}
 800130e:	46c0      	nop			@ (mov r8, r8)
 8001310:	fffaff99 	.word	0xfffaff99

08001314 <HAL_CRYP_DeInit>:
  * @param  hcryp pointer to a CRYP_HandleTypeDef structure that contains
  *         the configuration information for CRYP module
  * @retval HAL status
  */
HAL_StatusTypeDef HAL_CRYP_DeInit(CRYP_HandleTypeDef *hcryp)
{
 8001314:	b580      	push	{r7, lr}
 8001316:	b082      	sub	sp, #8
 8001318:	af00      	add	r7, sp, #0
 800131a:	6078      	str	r0, [r7, #4]
  /* Check the CRYP handle allocation */
  if (hcryp == NULL)
 800131c:	687b      	ldr	r3, [r7, #4]
 800131e:	2b00      	cmp	r3, #0
 8001320:	d101      	bne.n	8001326 <HAL_CRYP_DeInit+0x12>
  {
    return HAL_ERROR;
 8001322:	2301      	movs	r3, #1
 8001324:	e021      	b.n	800136a <HAL_CRYP_DeInit+0x56>
  }

  /* Set the default CRYP phase */
  hcryp->Phase = CRYP_PHASE_READY;
 8001326:	687b      	ldr	r3, [r7, #4]
 8001328:	2201      	movs	r2, #1
 800132a:	645a      	str	r2, [r3, #68]	@ 0x44

  /* Reset CrypInCount and CrypOutCount */
  hcryp->CrypInCount = 0;
 800132c:	687b      	ldr	r3, [r7, #4]
 800132e:	2200      	movs	r2, #0
 8001330:	87da      	strh	r2, [r3, #62]	@ 0x3e
  hcryp->CrypOutCount = 0;
 8001332:	687b      	ldr	r3, [r7, #4]
 8001334:	2240      	movs	r2, #64	@ 0x40
 8001336:	2100      	movs	r1, #0
 8001338:	5299      	strh	r1, [r3, r2]
  hcryp->CrypHeaderCount = 0;
 800133a:	687b      	ldr	r3, [r7, #4]
 800133c:	2200      	movs	r2, #0
 800133e:	879a      	strh	r2, [r3, #60]	@ 0x3c

  /* Disable the CRYP peripheral clock */
  __HAL_CRYP_DISABLE(hcryp);
 8001340:	687b      	ldr	r3, [r7, #4]
 8001342:	681b      	ldr	r3, [r3, #0]
 8001344:	681a      	ldr	r2, [r3, #0]
 8001346:	687b      	ldr	r3, [r7, #4]
 8001348:	681b      	ldr	r3, [r3, #0]
 800134a:	2101      	movs	r1, #1
 800134c:	438a      	bics	r2, r1
 800134e:	601a      	str	r2, [r3, #0]
  hcryp->MspDeInitCallback(hcryp);

#else

  /* DeInit the low level hardware: CLOCK, NVIC.*/
  HAL_CRYP_MspDeInit(hcryp);
 8001350:	687b      	ldr	r3, [r7, #4]
 8001352:	0018      	movs	r0, r3
 8001354:	f7ff f8dc 	bl	8000510 <HAL_CRYP_MspDeInit>

#endif /* USE_HAL_CRYP_REGISTER_CALLBACKS */

  /* Change the CRYP state */
  hcryp->State = HAL_CRYP_STATE_RESET;
 8001358:	687b      	ldr	r3, [r7, #4]
 800135a:	2251      	movs	r2, #81	@ 0x51
 800135c:	2100      	movs	r1, #0
 800135e:	5499      	strb	r1, [r3, r2]

  /* Release Lock */
  __HAL_UNLOCK(hcryp);
 8001360:	687b      	ldr	r3, [r7, #4]
 8001362:	2250      	movs	r2, #80	@ 0x50
 8001364:	2100      	movs	r1, #0
 8001366:	5499      	strb	r1, [r3, r2]

  /* Return function status */
  return HAL_OK;
 8001368:	2300      	movs	r3, #0
}
 800136a:	0018      	movs	r0, r3
 800136c:	46bd      	mov	sp, r7
 800136e:	b002      	add	sp, #8
 8001370:	bd80      	pop	{r7, pc}
	...

08001374 <HAL_CRYP_Encrypt>:
  * @param  Timeout Specify Timeout value
  * @retval HAL status
  */
HAL_StatusTypeDef HAL_CRYP_Encrypt(CRYP_HandleTypeDef *hcryp, uint32_t *Input, uint16_t Size, uint32_t *Output,
                                   uint32_t Timeout)
{
 8001374:	b590      	push	{r4, r7, lr}
 8001376:	b087      	sub	sp, #28
 8001378:	af00      	add	r7, sp, #0
 800137a:	60f8      	str	r0, [r7, #12]
 800137c:	60b9      	str	r1, [r7, #8]
 800137e:	603b      	str	r3, [r7, #0]
 8001380:	1dbb      	adds	r3, r7, #6
 8001382:	801a      	strh	r2, [r3, #0]

  /* Check input buffer size */
  assert_param(IS_CRYP_BUFFERSIZE(algo_assert, hcryp->Init.DataWidthUnit, Size));
#endif /* USE_FULL_ASSERT */

  if (hcryp->State == HAL_CRYP_STATE_READY)
 8001384:	68fb      	ldr	r3, [r7, #12]
 8001386:	2251      	movs	r2, #81	@ 0x51
 8001388:	5c9b      	ldrb	r3, [r3, r2]
 800138a:	b2db      	uxtb	r3, r3
 800138c:	2b01      	cmp	r3, #1
 800138e:	d000      	beq.n	8001392 <HAL_CRYP_Encrypt+0x1e>
 8001390:	e090      	b.n	80014b4 <HAL_CRYP_Encrypt+0x140>
  {
    /* Change state Busy */
    hcryp->State = HAL_CRYP_STATE_BUSY;
 8001392:	68fb      	ldr	r3, [r7, #12]
 8001394:	2251      	movs	r2, #81	@ 0x51
 8001396:	2102      	movs	r1, #2
 8001398:	5499      	strb	r1, [r3, r2]

    /* Process locked */
    __HAL_LOCK(hcryp);
 800139a:	68fb      	ldr	r3, [r7, #12]
 800139c:	2250      	movs	r2, #80	@ 0x50
 800139e:	5c9b      	ldrb	r3, [r3, r2]
 80013a0:	2b01      	cmp	r3, #1
 80013a2:	d101      	bne.n	80013a8 <HAL_CRYP_Encrypt+0x34>
 80013a4:	2302      	movs	r3, #2
 80013a6:	e092      	b.n	80014ce <HAL_CRYP_Encrypt+0x15a>
 80013a8:	68fb      	ldr	r3, [r7, #12]
 80013aa:	2250      	movs	r2, #80	@ 0x50
 80013ac:	2101      	movs	r1, #1
 80013ae:	5499      	strb	r1, [r3, r2]

    /*  Reset CrypInCount, CrypOutCount and Initialize pCrypInBuffPtr and pCrypOutBuffPtr parameters*/
    hcryp->CrypInCount = 0U;
 80013b0:	68fb      	ldr	r3, [r7, #12]
 80013b2:	2200      	movs	r2, #0
 80013b4:	87da      	strh	r2, [r3, #62]	@ 0x3e
    hcryp->CrypOutCount = 0U;
 80013b6:	68fb      	ldr	r3, [r7, #12]
 80013b8:	2240      	movs	r2, #64	@ 0x40
 80013ba:	2100      	movs	r1, #0
 80013bc:	5299      	strh	r1, [r3, r2]
    hcryp->pCrypInBuffPtr = Input;
 80013be:	68fb      	ldr	r3, [r7, #12]
 80013c0:	68ba      	ldr	r2, [r7, #8]
 80013c2:	635a      	str	r2, [r3, #52]	@ 0x34
    hcryp->pCrypOutBuffPtr = Output;
 80013c4:	68fb      	ldr	r3, [r7, #12]
 80013c6:	683a      	ldr	r2, [r7, #0]
 80013c8:	639a      	str	r2, [r3, #56]	@ 0x38

    /*  Calculate Size parameter in Byte*/
    if (hcryp->Init.DataWidthUnit == CRYP_DATAWIDTHUNIT_WORD)
 80013ca:	68fb      	ldr	r3, [r7, #12]
 80013cc:	6a5b      	ldr	r3, [r3, #36]	@ 0x24
 80013ce:	2b00      	cmp	r3, #0
 80013d0:	d107      	bne.n	80013e2 <HAL_CRYP_Encrypt+0x6e>
    {
      hcryp->Size = Size * 4U;
 80013d2:	1dbb      	adds	r3, r7, #6
 80013d4:	881b      	ldrh	r3, [r3, #0]
 80013d6:	009b      	lsls	r3, r3, #2
 80013d8:	b299      	uxth	r1, r3
 80013da:	68fb      	ldr	r3, [r7, #12]
 80013dc:	2242      	movs	r2, #66	@ 0x42
 80013de:	5299      	strh	r1, [r3, r2]
 80013e0:	e004      	b.n	80013ec <HAL_CRYP_Encrypt+0x78>
    }
    else
    {
      hcryp->Size = Size;
 80013e2:	68fb      	ldr	r3, [r7, #12]
 80013e4:	1dba      	adds	r2, r7, #6
 80013e6:	2142      	movs	r1, #66	@ 0x42
 80013e8:	8812      	ldrh	r2, [r2, #0]
 80013ea:	525a      	strh	r2, [r3, r1]
    }

    /* Set the operating mode*/
    MODIFY_REG(hcryp->Instance->CR, AES_CR_MODE, CRYP_OPERATINGMODE_ENCRYPT);
 80013ec:	68fb      	ldr	r3, [r7, #12]
 80013ee:	681b      	ldr	r3, [r3, #0]
 80013f0:	681a      	ldr	r2, [r3, #0]
 80013f2:	68fb      	ldr	r3, [r7, #12]
 80013f4:	681b      	ldr	r3, [r3, #0]
 80013f6:	2118      	movs	r1, #24
 80013f8:	438a      	bics	r2, r1
 80013fa:	601a      	str	r2, [r3, #0]

    /* algo get algorithm selected */
    algo = hcryp->Instance->CR & AES_CR_CHMOD;
 80013fc:	68fb      	ldr	r3, [r7, #12]
 80013fe:	681b      	ldr	r3, [r3, #0]
 8001400:	681b      	ldr	r3, [r3, #0]
 8001402:	4a35      	ldr	r2, [pc, #212]	@ (80014d8 <HAL_CRYP_Encrypt+0x164>)
 8001404:	4013      	ands	r3, r2
 8001406:	613b      	str	r3, [r7, #16]

    switch (algo)
 8001408:	693a      	ldr	r2, [r7, #16]
 800140a:	2380      	movs	r3, #128	@ 0x80
 800140c:	025b      	lsls	r3, r3, #9
 800140e:	429a      	cmp	r2, r3
 8001410:	d02c      	beq.n	800146c <HAL_CRYP_Encrypt+0xf8>
 8001412:	693a      	ldr	r2, [r7, #16]
 8001414:	2380      	movs	r3, #128	@ 0x80
 8001416:	025b      	lsls	r3, r3, #9
 8001418:	429a      	cmp	r2, r3
 800141a:	d832      	bhi.n	8001482 <HAL_CRYP_Encrypt+0x10e>
 800141c:	693b      	ldr	r3, [r7, #16]
 800141e:	2b60      	cmp	r3, #96	@ 0x60
 8001420:	d019      	beq.n	8001456 <HAL_CRYP_Encrypt+0xe2>
 8001422:	693b      	ldr	r3, [r7, #16]
 8001424:	2b60      	cmp	r3, #96	@ 0x60
 8001426:	d82c      	bhi.n	8001482 <HAL_CRYP_Encrypt+0x10e>
 8001428:	693b      	ldr	r3, [r7, #16]
 800142a:	2b40      	cmp	r3, #64	@ 0x40
 800142c:	d008      	beq.n	8001440 <HAL_CRYP_Encrypt+0xcc>
 800142e:	693b      	ldr	r3, [r7, #16]
 8001430:	2b40      	cmp	r3, #64	@ 0x40
 8001432:	d826      	bhi.n	8001482 <HAL_CRYP_Encrypt+0x10e>
 8001434:	693b      	ldr	r3, [r7, #16]
 8001436:	2b00      	cmp	r3, #0
 8001438:	d002      	beq.n	8001440 <HAL_CRYP_Encrypt+0xcc>
 800143a:	693b      	ldr	r3, [r7, #16]
 800143c:	2b20      	cmp	r3, #32
 800143e:	d120      	bne.n	8001482 <HAL_CRYP_Encrypt+0x10e>
      case CRYP_AES_ECB:
      case CRYP_AES_CBC:
      case CRYP_AES_CTR:

        /* AES encryption */
        status = CRYP_AES_Encrypt(hcryp, Timeout);
 8001440:	2317      	movs	r3, #23
 8001442:	18fc      	adds	r4, r7, r3
 8001444:	6aba      	ldr	r2, [r7, #40]	@ 0x28
 8001446:	68fb      	ldr	r3, [r7, #12]
 8001448:	0011      	movs	r1, r2
 800144a:	0018      	movs	r0, r3
 800144c:	f000 f971 	bl	8001732 <CRYP_AES_Encrypt>
 8001450:	0003      	movs	r3, r0
 8001452:	7023      	strb	r3, [r4, #0]
        break;
 8001454:	e020      	b.n	8001498 <HAL_CRYP_Encrypt+0x124>

      case CRYP_AES_GCM_GMAC:

        /* AES GCM encryption */
        status = CRYP_AESGCM_Process(hcryp, Timeout) ;
 8001456:	2317      	movs	r3, #23
 8001458:	18fc      	adds	r4, r7, r3
 800145a:	6aba      	ldr	r2, [r7, #40]	@ 0x28
 800145c:	68fb      	ldr	r3, [r7, #12]
 800145e:	0011      	movs	r1, r2
 8001460:	0018      	movs	r0, r3
 8001462:	f000 fccf 	bl	8001e04 <CRYP_AESGCM_Process>
 8001466:	0003      	movs	r3, r0
 8001468:	7023      	strb	r3, [r4, #0]
        break;
 800146a:	e015      	b.n	8001498 <HAL_CRYP_Encrypt+0x124>

      case CRYP_AES_CCM:

        /* AES CCM encryption */
        status = CRYP_AESCCM_Process(hcryp, Timeout);
 800146c:	2317      	movs	r3, #23
 800146e:	18fc      	adds	r4, r7, r3
 8001470:	6aba      	ldr	r2, [r7, #40]	@ 0x28
 8001472:	68fb      	ldr	r3, [r7, #12]
 8001474:	0011      	movs	r1, r2
 8001476:	0018      	movs	r0, r3
 8001478:	f000 fe76 	bl	8002168 <CRYP_AESCCM_Process>
 800147c:	0003      	movs	r3, r0
 800147e:	7023      	strb	r3, [r4, #0]
        break;
 8001480:	e00a      	b.n	8001498 <HAL_CRYP_Encrypt+0x124>

      default:
        hcryp->ErrorCode |= HAL_CRYP_ERROR_NOT_SUPPORTED;
 8001482:	68fb      	ldr	r3, [r7, #12]
 8001484:	6d5b      	ldr	r3, [r3, #84]	@ 0x54
 8001486:	2220      	movs	r2, #32
 8001488:	431a      	orrs	r2, r3
 800148a:	68fb      	ldr	r3, [r7, #12]
 800148c:	655a      	str	r2, [r3, #84]	@ 0x54
        status = HAL_ERROR;
 800148e:	2317      	movs	r3, #23
 8001490:	18fb      	adds	r3, r7, r3
 8001492:	2201      	movs	r2, #1
 8001494:	701a      	strb	r2, [r3, #0]
        break;
 8001496:	46c0      	nop			@ (mov r8, r8)
    }

    if (status == HAL_OK)
 8001498:	2317      	movs	r3, #23
 800149a:	18fb      	adds	r3, r7, r3
 800149c:	781b      	ldrb	r3, [r3, #0]
 800149e:	2b00      	cmp	r3, #0
 80014a0:	d112      	bne.n	80014c8 <HAL_CRYP_Encrypt+0x154>
    {
      /* Change the CRYP peripheral state */
      hcryp->State = HAL_CRYP_STATE_READY;
 80014a2:	68fb      	ldr	r3, [r7, #12]
 80014a4:	2251      	movs	r2, #81	@ 0x51
 80014a6:	2101      	movs	r1, #1
 80014a8:	5499      	strb	r1, [r3, r2]

      /* Process unlocked */
      __HAL_UNLOCK(hcryp);
 80014aa:	68fb      	ldr	r3, [r7, #12]
 80014ac:	2250      	movs	r2, #80	@ 0x50
 80014ae:	2100      	movs	r1, #0
 80014b0:	5499      	strb	r1, [r3, r2]
 80014b2:	e009      	b.n	80014c8 <HAL_CRYP_Encrypt+0x154>
    }
  }
  else
  {
    /* Busy error code field */
    hcryp->ErrorCode |= HAL_CRYP_ERROR_BUSY;
 80014b4:	68fb      	ldr	r3, [r7, #12]
 80014b6:	6d5b      	ldr	r3, [r3, #84]	@ 0x54
 80014b8:	2208      	movs	r2, #8
 80014ba:	431a      	orrs	r2, r3
 80014bc:	68fb      	ldr	r3, [r7, #12]
 80014be:	655a      	str	r2, [r3, #84]	@ 0x54
    status = HAL_ERROR;
 80014c0:	2317      	movs	r3, #23
 80014c2:	18fb      	adds	r3, r7, r3
 80014c4:	2201      	movs	r2, #1
 80014c6:	701a      	strb	r2, [r3, #0]
  }

  /* Return function status */
  return status;
 80014c8:	2317      	movs	r3, #23
 80014ca:	18fb      	adds	r3, r7, r3
 80014cc:	781b      	ldrb	r3, [r3, #0]
}
 80014ce:	0018      	movs	r0, r3
 80014d0:	46bd      	mov	sp, r7
 80014d2:	b007      	add	sp, #28
 80014d4:	bd90      	pop	{r4, r7, pc}
 80014d6:	46c0      	nop			@ (mov r8, r8)
 80014d8:	00010060 	.word	0x00010060

080014dc <HAL_CRYP_Decrypt>:
  * @param  Timeout Specify Timeout value
  * @retval HAL status
  */
HAL_StatusTypeDef HAL_CRYP_Decrypt(CRYP_HandleTypeDef *hcryp, uint32_t *Input, uint16_t Size, uint32_t *Output,
                                   uint32_t Timeout)
{
 80014dc:	b590      	push	{r4, r7, lr}
 80014de:	b087      	sub	sp, #28
 80014e0:	af00      	add	r7, sp, #0
 80014e2:	60f8      	str	r0, [r7, #12]
 80014e4:	60b9      	str	r1, [r7, #8]
 80014e6:	603b      	str	r3, [r7, #0]
 80014e8:	1dbb      	adds	r3, r7, #6
 80014ea:	801a      	strh	r2, [r3, #0]

  /* Check input buffer size */
  assert_param(IS_CRYP_BUFFERSIZE(algo_assert, hcryp->Init.DataWidthUnit, Size));
#endif /* USE_FULL_ASSERT */

  if (hcryp->State == HAL_CRYP_STATE_READY)
 80014ec:	68fb      	ldr	r3, [r7, #12]
 80014ee:	2251      	movs	r2, #81	@ 0x51
 80014f0:	5c9b      	ldrb	r3, [r3, r2]
 80014f2:	b2db      	uxtb	r3, r3
 80014f4:	2b01      	cmp	r3, #1
 80014f6:	d000      	beq.n	80014fa <HAL_CRYP_Decrypt+0x1e>
 80014f8:	e093      	b.n	8001622 <HAL_CRYP_Decrypt+0x146>
  {
    /* Change state Busy */
    hcryp->State = HAL_CRYP_STATE_BUSY;
 80014fa:	68fb      	ldr	r3, [r7, #12]
 80014fc:	2251      	movs	r2, #81	@ 0x51
 80014fe:	2102      	movs	r1, #2
 8001500:	5499      	strb	r1, [r3, r2]

    /* Process locked */
    __HAL_LOCK(hcryp);
 8001502:	68fb      	ldr	r3, [r7, #12]
 8001504:	2250      	movs	r2, #80	@ 0x50
 8001506:	5c9b      	ldrb	r3, [r3, r2]
 8001508:	2b01      	cmp	r3, #1
 800150a:	d101      	bne.n	8001510 <HAL_CRYP_Decrypt+0x34>
 800150c:	2302      	movs	r3, #2
 800150e:	e095      	b.n	800163c <HAL_CRYP_Decrypt+0x160>
 8001510:	68fb      	ldr	r3, [r7, #12]
 8001512:	2250      	movs	r2, #80	@ 0x50
 8001514:	2101      	movs	r1, #1
 8001516:	5499      	strb	r1, [r3, r2]

    /*  Reset CrypInCount, CrypOutCount and Initialize pCrypInBuffPtr and pCrypOutBuffPtr  parameters*/
    hcryp->CrypInCount = 0U;
 8001518:	68fb      	ldr	r3, [r7, #12]
 800151a:	2200      	movs	r2, #0
 800151c:	87da      	strh	r2, [r3, #62]	@ 0x3e
    hcryp->CrypOutCount = 0U;
 800151e:	68fb      	ldr	r3, [r7, #12]
 8001520:	2240      	movs	r2, #64	@ 0x40
 8001522:	2100      	movs	r1, #0
 8001524:	5299      	strh	r1, [r3, r2]
    hcryp->pCrypInBuffPtr = Input;
 8001526:	68fb      	ldr	r3, [r7, #12]
 8001528:	68ba      	ldr	r2, [r7, #8]
 800152a:	635a      	str	r2, [r3, #52]	@ 0x34
    hcryp->pCrypOutBuffPtr = Output;
 800152c:	68fb      	ldr	r3, [r7, #12]
 800152e:	683a      	ldr	r2, [r7, #0]
 8001530:	639a      	str	r2, [r3, #56]	@ 0x38

    /*  Calculate Size parameter in Byte*/
    if (hcryp->Init.DataWidthUnit == CRYP_DATAWIDTHUNIT_WORD)
 8001532:	68fb      	ldr	r3, [r7, #12]
 8001534:	6a5b      	ldr	r3, [r3, #36]	@ 0x24
 8001536:	2b00      	cmp	r3, #0
 8001538:	d107      	bne.n	800154a <HAL_CRYP_Decrypt+0x6e>
    {
      hcryp->Size = Size * 4U;
 800153a:	1dbb      	adds	r3, r7, #6
 800153c:	881b      	ldrh	r3, [r3, #0]
 800153e:	009b      	lsls	r3, r3, #2
 8001540:	b299      	uxth	r1, r3
 8001542:	68fb      	ldr	r3, [r7, #12]
 8001544:	2242      	movs	r2, #66	@ 0x42
 8001546:	5299      	strh	r1, [r3, r2]
 8001548:	e004      	b.n	8001554 <HAL_CRYP_Decrypt+0x78>
    }
    else
    {
      hcryp->Size = Size;
 800154a:	68fb      	ldr	r3, [r7, #12]
 800154c:	1dba      	adds	r2, r7, #6
 800154e:	2142      	movs	r1, #66	@ 0x42
 8001550:	8812      	ldrh	r2, [r2, #0]
 8001552:	525a      	strh	r2, [r3, r1]
    }

    /* Set Decryption operating mode*/
    MODIFY_REG(hcryp->Instance->CR, AES_CR_MODE, CRYP_OPERATINGMODE_DECRYPT);
 8001554:	68fb      	ldr	r3, [r7, #12]
 8001556:	681b      	ldr	r3, [r3, #0]
 8001558:	681b      	ldr	r3, [r3, #0]
 800155a:	2218      	movs	r2, #24
 800155c:	4393      	bics	r3, r2
 800155e:	001a      	movs	r2, r3
 8001560:	68fb      	ldr	r3, [r7, #12]
 8001562:	681b      	ldr	r3, [r3, #0]
 8001564:	2110      	movs	r1, #16
 8001566:	430a      	orrs	r2, r1
 8001568:	601a      	str	r2, [r3, #0]

    /* algo get algorithm selected */
    algo = hcryp->Instance->CR & AES_CR_CHMOD;
 800156a:	68fb      	ldr	r3, [r7, #12]
 800156c:	681b      	ldr	r3, [r3, #0]
 800156e:	681b      	ldr	r3, [r3, #0]
 8001570:	4a34      	ldr	r2, [pc, #208]	@ (8001644 <HAL_CRYP_Decrypt+0x168>)
 8001572:	4013      	ands	r3, r2
 8001574:	613b      	str	r3, [r7, #16]

    switch (algo)
 8001576:	693a      	ldr	r2, [r7, #16]
 8001578:	2380      	movs	r3, #128	@ 0x80
 800157a:	025b      	lsls	r3, r3, #9
 800157c:	429a      	cmp	r2, r3
 800157e:	d02c      	beq.n	80015da <HAL_CRYP_Decrypt+0xfe>
 8001580:	693a      	ldr	r2, [r7, #16]
 8001582:	2380      	movs	r3, #128	@ 0x80
 8001584:	025b      	lsls	r3, r3, #9
 8001586:	429a      	cmp	r2, r3
 8001588:	d832      	bhi.n	80015f0 <HAL_CRYP_Decrypt+0x114>
 800158a:	693b      	ldr	r3, [r7, #16]
 800158c:	2b60      	cmp	r3, #96	@ 0x60
 800158e:	d019      	beq.n	80015c4 <HAL_CRYP_Decrypt+0xe8>
 8001590:	693b      	ldr	r3, [r7, #16]
 8001592:	2b60      	cmp	r3, #96	@ 0x60
 8001594:	d82c      	bhi.n	80015f0 <HAL_CRYP_Decrypt+0x114>
 8001596:	693b      	ldr	r3, [r7, #16]
 8001598:	2b40      	cmp	r3, #64	@ 0x40
 800159a:	d008      	beq.n	80015ae <HAL_CRYP_Decrypt+0xd2>
 800159c:	693b      	ldr	r3, [r7, #16]
 800159e:	2b40      	cmp	r3, #64	@ 0x40
 80015a0:	d826      	bhi.n	80015f0 <HAL_CRYP_Decrypt+0x114>
 80015a2:	693b      	ldr	r3, [r7, #16]
 80015a4:	2b00      	cmp	r3, #0
 80015a6:	d002      	beq.n	80015ae <HAL_CRYP_Decrypt+0xd2>
 80015a8:	693b      	ldr	r3, [r7, #16]
 80015aa:	2b20      	cmp	r3, #32
 80015ac:	d120      	bne.n	80015f0 <HAL_CRYP_Decrypt+0x114>
      case CRYP_AES_ECB:
      case CRYP_AES_CBC:
      case CRYP_AES_CTR:

        /* AES decryption */
        status = CRYP_AES_Decrypt(hcryp, Timeout);
 80015ae:	2317      	movs	r3, #23
 80015b0:	18fc      	adds	r4, r7, r3
 80015b2:	6aba      	ldr	r2, [r7, #40]	@ 0x28
 80015b4:	68fb      	ldr	r3, [r7, #12]
 80015b6:	0011      	movs	r1, r2
 80015b8:	0018      	movs	r0, r3
 80015ba:	f000 f942 	bl	8001842 <CRYP_AES_Decrypt>
 80015be:	0003      	movs	r3, r0
 80015c0:	7023      	strb	r3, [r4, #0]
        break;
 80015c2:	e020      	b.n	8001606 <HAL_CRYP_Decrypt+0x12a>

      case CRYP_AES_GCM_GMAC:

        /* AES GCM decryption */
        status = CRYP_AESGCM_Process(hcryp, Timeout) ;
 80015c4:	2317      	movs	r3, #23
 80015c6:	18fc      	adds	r4, r7, r3
 80015c8:	6aba      	ldr	r2, [r7, #40]	@ 0x28
 80015ca:	68fb      	ldr	r3, [r7, #12]
 80015cc:	0011      	movs	r1, r2
 80015ce:	0018      	movs	r0, r3
 80015d0:	f000 fc18 	bl	8001e04 <CRYP_AESGCM_Process>
 80015d4:	0003      	movs	r3, r0
 80015d6:	7023      	strb	r3, [r4, #0]
        break;
 80015d8:	e015      	b.n	8001606 <HAL_CRYP_Decrypt+0x12a>

      case CRYP_AES_CCM:

        /* AES CCM decryption */
        status = CRYP_AESCCM_Process(hcryp, Timeout);
 80015da:	2317      	movs	r3, #23
 80015dc:	18fc      	adds	r4, r7, r3
 80015de:	6aba      	ldr	r2, [r7, #40]	@ 0x28
 80015e0:	68fb      	ldr	r3, [r7, #12]
 80015e2:	0011      	movs	r1, r2
 80015e4:	0018      	movs	r0, r3
 80015e6:	f000 fdbf 	bl	8002168 <CRYP_AESCCM_Process>
 80015ea:	0003      	movs	r3, r0
 80015ec:	7023      	strb	r3, [r4, #0]
        break;
 80015ee:	e00a      	b.n	8001606 <HAL_CRYP_Decrypt+0x12a>

      default:
        hcryp->ErrorCode |= HAL_CRYP_ERROR_NOT_SUPPORTED;
 80015f0:	68fb      	ldr	r3, [r7, #12]
 80015f2:	6d5b      	ldr	r3, [r3, #84]	@ 0x54
 80015f4:	2220      	movs	r2, #32
 80015f6:	431a      	orrs	r2, r3
 80015f8:	68fb      	ldr	r3, [r7, #12]
 80015fa:	655a      	str	r2, [r3, #84]	@ 0x54
        status = HAL_ERROR;
 80015fc:	2317      	movs	r3, #23
 80015fe:	18fb      	adds	r3, r7, r3
 8001600:	2201      	movs	r2, #1
 8001602:	701a      	strb	r2, [r3, #0]
        break;
 8001604:	46c0      	nop			@ (mov r8, r8)
    }

    if (status == HAL_OK)
 8001606:	2317      	movs	r3, #23
 8001608:	18fb      	adds	r3, r7, r3
 800160a:	781b      	ldrb	r3, [r3, #0]
 800160c:	2b00      	cmp	r3, #0
 800160e:	d112      	bne.n	8001636 <HAL_CRYP_Decrypt+0x15a>
    {
      /* Change the CRYP peripheral state */
      hcryp->State = HAL_CRYP_STATE_READY;
 8001610:	68fb      	ldr	r3, [r7, #12]
 8001612:	2251      	movs	r2, #81	@ 0x51
 8001614:	2101      	movs	r1, #1
 8001616:	5499      	strb	r1, [r3, r2]

      /* Process unlocked */
      __HAL_UNLOCK(hcryp);
 8001618:	68fb      	ldr	r3, [r7, #12]
 800161a:	2250      	movs	r2, #80	@ 0x50
 800161c:	2100      	movs	r1, #0
 800161e:	5499      	strb	r1, [r3, r2]
 8001620:	e009      	b.n	8001636 <HAL_CRYP_Decrypt+0x15a>
    }
  }
  else
  {
    /* Busy error code field */
    hcryp->ErrorCode |= HAL_CRYP_ERROR_BUSY;
 8001622:	68fb      	ldr	r3, [r7, #12]
 8001624:	6d5b      	ldr	r3, [r3, #84]	@ 0x54
 8001626:	2208      	movs	r2, #8
 8001628:	431a      	orrs	r2, r3
 800162a:	68fb      	ldr	r3, [r7, #12]
 800162c:	655a      	str	r2, [r3, #84]	@ 0x54
    status = HAL_ERROR;
 800162e:	2317      	movs	r3, #23
 8001630:	18fb      	adds	r3, r7, r3
 8001632:	2201      	movs	r2, #1
 8001634:	701a      	strb	r2, [r3, #0]
  }

  /* Return function status */
  return status;
 8001636:	2317      	movs	r3, #23
 8001638:	18fb      	adds	r3, r7, r3
 800163a:	781b      	ldrb	r3, [r3, #0]
}
 800163c:	0018      	movs	r0, r3
 800163e:	46bd      	mov	sp, r7
 8001640:	b007      	add	sp, #28
 8001642:	bd90      	pop	{r4, r7, pc}
 8001644:	00010060 	.word	0x00010060

08001648 <HAL_CRYP_IRQHandler>:
  * @param  hcryp pointer to a CRYP_HandleTypeDef structure that contains
  *         the configuration information for CRYP module
  * @retval None
  */
void HAL_CRYP_IRQHandler(CRYP_HandleTypeDef *hcryp)
{
 8001648:	b580      	push	{r7, lr}
 800164a:	b084      	sub	sp, #16
 800164c:	af00      	add	r7, sp, #0
 800164e:	6078      	str	r0, [r7, #4]
  uint32_t itsource = hcryp->Instance->CR;
 8001650:	687b      	ldr	r3, [r7, #4]
 8001652:	681b      	ldr	r3, [r3, #0]
 8001654:	681b      	ldr	r3, [r3, #0]
 8001656:	60fb      	str	r3, [r7, #12]
  uint32_t itflag   = hcryp->Instance->SR;
 8001658:	687b      	ldr	r3, [r7, #4]
 800165a:	681b      	ldr	r3, [r3, #0]
 800165c:	685b      	ldr	r3, [r3, #4]
 800165e:	60bb      	str	r3, [r7, #8]

  /* Check if error occurred */
  if ((itsource & CRYP_IT_ERRIE) == CRYP_IT_ERRIE)
 8001660:	68fa      	ldr	r2, [r7, #12]
 8001662:	2380      	movs	r3, #128	@ 0x80
 8001664:	00db      	lsls	r3, r3, #3
 8001666:	4013      	ands	r3, r2
 8001668:	d013      	beq.n	8001692 <HAL_CRYP_IRQHandler+0x4a>
  {
    /* If write Error occurred */
    if ((itflag & CRYP_IT_WRERR) == CRYP_IT_WRERR)
 800166a:	68bb      	ldr	r3, [r7, #8]
 800166c:	2204      	movs	r2, #4
 800166e:	4013      	ands	r3, r2
 8001670:	d005      	beq.n	800167e <HAL_CRYP_IRQHandler+0x36>
    {
      hcryp->ErrorCode |= HAL_CRYP_ERROR_WRITE;
 8001672:	687b      	ldr	r3, [r7, #4]
 8001674:	6d5b      	ldr	r3, [r3, #84]	@ 0x54
 8001676:	2201      	movs	r2, #1
 8001678:	431a      	orrs	r2, r3
 800167a:	687b      	ldr	r3, [r7, #4]
 800167c:	655a      	str	r2, [r3, #84]	@ 0x54
    }
    /* If read Error occurred */
    if ((itflag & CRYP_IT_RDERR) == CRYP_IT_RDERR)
 800167e:	68bb      	ldr	r3, [r7, #8]
 8001680:	2202      	movs	r2, #2
 8001682:	4013      	ands	r3, r2
 8001684:	d005      	beq.n	8001692 <HAL_CRYP_IRQHandler+0x4a>
    {
      hcryp->ErrorCode |= HAL_CRYP_ERROR_READ;
 8001686:	687b      	ldr	r3, [r7, #4]
 8001688:	6d5b      	ldr	r3, [r3, #84]	@ 0x54
 800168a:	2202      	movs	r2, #2
 800168c:	431a      	orrs	r2, r3
 800168e:	687b      	ldr	r3, [r7, #4]
 8001690:	655a      	str	r2, [r3, #84]	@ 0x54
    }
  }

  if ((itflag & CRYP_IT_CCF) == CRYP_IT_CCF)
 8001692:	68bb      	ldr	r3, [r7, #8]
 8001694:	2201      	movs	r2, #1
 8001696:	4013      	ands	r3, r2
 8001698:	d02f      	beq.n	80016fa <HAL_CRYP_IRQHandler+0xb2>
  {
    if ((itsource & CRYP_IT_CCFIE) == CRYP_IT_CCFIE)
 800169a:	68fa      	ldr	r2, [r7, #12]
 800169c:	2380      	movs	r3, #128	@ 0x80
 800169e:	009b      	lsls	r3, r3, #2
 80016a0:	4013      	ands	r3, r2
 80016a2:	d02a      	beq.n	80016fa <HAL_CRYP_IRQHandler+0xb2>
    {
      /* Clear computation complete flag */
      __HAL_CRYP_CLEAR_FLAG(hcryp, CRYP_CCF_CLEAR);
 80016a4:	687b      	ldr	r3, [r7, #4]
 80016a6:	681b      	ldr	r3, [r3, #0]
 80016a8:	681a      	ldr	r2, [r3, #0]
 80016aa:	687b      	ldr	r3, [r7, #4]
 80016ac:	681b      	ldr	r3, [r3, #0]
 80016ae:	2180      	movs	r1, #128	@ 0x80
 80016b0:	430a      	orrs	r2, r1
 80016b2:	601a      	str	r2, [r3, #0]

      if ((hcryp->Init.Algorithm == CRYP_AES_GCM_GMAC) || (hcryp->Init.Algorithm == CRYP_AES_CCM))
 80016b4:	687b      	ldr	r3, [r7, #4]
 80016b6:	695b      	ldr	r3, [r3, #20]
 80016b8:	2b60      	cmp	r3, #96	@ 0x60
 80016ba:	d005      	beq.n	80016c8 <HAL_CRYP_IRQHandler+0x80>
 80016bc:	687b      	ldr	r3, [r7, #4]
 80016be:	695a      	ldr	r2, [r3, #20]
 80016c0:	2380      	movs	r3, #128	@ 0x80
 80016c2:	025b      	lsls	r3, r3, #9
 80016c4:	429a      	cmp	r2, r3
 80016c6:	d113      	bne.n	80016f0 <HAL_CRYP_IRQHandler+0xa8>
      {

        /* if header phase */
        if ((hcryp->Instance->CR & CRYP_PHASE_HEADER) == CRYP_PHASE_HEADER)
 80016c8:	687b      	ldr	r3, [r7, #4]
 80016ca:	681b      	ldr	r3, [r3, #0]
 80016cc:	681a      	ldr	r2, [r3, #0]
 80016ce:	2380      	movs	r3, #128	@ 0x80
 80016d0:	019b      	lsls	r3, r3, #6
 80016d2:	401a      	ands	r2, r3
 80016d4:	2380      	movs	r3, #128	@ 0x80
 80016d6:	019b      	lsls	r3, r3, #6
 80016d8:	429a      	cmp	r2, r3
 80016da:	d104      	bne.n	80016e6 <HAL_CRYP_IRQHandler+0x9e>
        {
          CRYP_GCMCCM_SetHeaderPhase_IT(hcryp);
 80016dc:	687b      	ldr	r3, [r7, #4]
 80016de:	0018      	movs	r0, r3
 80016e0:	f001 fa22 	bl	8002b28 <CRYP_GCMCCM_SetHeaderPhase_IT>
        if ((hcryp->Instance->CR & CRYP_PHASE_HEADER) == CRYP_PHASE_HEADER)
 80016e4:	e009      	b.n	80016fa <HAL_CRYP_IRQHandler+0xb2>
        }
        else  /* if payload phase */
        {
          CRYP_GCMCCM_SetPayloadPhase_IT(hcryp);
 80016e6:	687b      	ldr	r3, [r7, #4]
 80016e8:	0018      	movs	r0, r3
 80016ea:	f000 fef3 	bl	80024d4 <CRYP_GCMCCM_SetPayloadPhase_IT>
        if ((hcryp->Instance->CR & CRYP_PHASE_HEADER) == CRYP_PHASE_HEADER)
 80016ee:	e004      	b.n	80016fa <HAL_CRYP_IRQHandler+0xb2>
        }
      }
      else  /* AES Algorithm ECB,CBC or CTR*/
      {
        CRYP_AES_IT(hcryp);
 80016f0:	687b      	ldr	r3, [r7, #4]
 80016f2:	0018      	movs	r0, r3
 80016f4:	f000 fa4e 	bl	8001b94 <CRYP_AES_IT>
      }
    }
  }
}
 80016f8:	e7ff      	b.n	80016fa <HAL_CRYP_IRQHandler+0xb2>
 80016fa:	46c0      	nop			@ (mov r8, r8)
 80016fc:	46bd      	mov	sp, r7
 80016fe:	b004      	add	sp, #16
 8001700:	bd80      	pop	{r7, pc}

08001702 <HAL_CRYP_InCpltCallback>:
  * @param  hcryp pointer to a CRYP_HandleTypeDef structure that contains
  *         the configuration information for CRYP module.
  * @retval None
  */
__weak void HAL_CRYP_InCpltCallback(CRYP_HandleTypeDef *hcryp)
{
 8001702:	b580      	push	{r7, lr}
 8001704:	b082      	sub	sp, #8
 8001706:	af00      	add	r7, sp, #0
 8001708:	6078      	str	r0, [r7, #4]
  UNUSED(hcryp);

  /* NOTE : This function should not be modified; when the callback is needed,
            the HAL_CRYP_InCpltCallback can be implemented in the user file
   */
}
 800170a:	46c0      	nop			@ (mov r8, r8)
 800170c:	46bd      	mov	sp, r7
 800170e:	b002      	add	sp, #8
 8001710:	bd80      	pop	{r7, pc}

08001712 <HAL_CRYP_OutCpltCallback>:
  * @param  hcryp pointer to a CRYP_HandleTypeDef structure that contains
  *         the configuration information for CRYP module.
  * @retval None
  */
__weak void HAL_CRYP_OutCpltCallback(CRYP_HandleTypeDef *hcryp)
{
 8001712:	b580      	push	{r7, lr}
 8001714:	b082      	sub	sp, #8
 8001716:	af00      	add	r7, sp, #0
 8001718:	6078      	str	r0, [r7, #4]
  UNUSED(hcryp);

  /* NOTE : This function should not be modified; when the callback is needed,
            the HAL_CRYP_OutCpltCallback can be implemented in the user file
   */
}
 800171a:	46c0      	nop			@ (mov r8, r8)
 800171c:	46bd      	mov	sp, r7
 800171e:	b002      	add	sp, #8
 8001720:	bd80      	pop	{r7, pc}

08001722 <HAL_CRYP_ErrorCallback>:
  * @param  hcryp pointer to a CRYP_HandleTypeDef structure that contains
  *         the configuration information for CRYP module.
  * @retval None
  */
__weak void HAL_CRYP_ErrorCallback(CRYP_HandleTypeDef *hcryp)
{
 8001722:	b580      	push	{r7, lr}
 8001724:	b082      	sub	sp, #8
 8001726:	af00      	add	r7, sp, #0
 8001728:	6078      	str	r0, [r7, #4]
  UNUSED(hcryp);

  /* NOTE : This function should not be modified; when the callback is needed,
            the HAL_CRYP_ErrorCallback can be implemented in the user file
   */
}
 800172a:	46c0      	nop			@ (mov r8, r8)
 800172c:	46bd      	mov	sp, r7
 800172e:	b002      	add	sp, #8
 8001730:	bd80      	pop	{r7, pc}

08001732 <CRYP_AES_Encrypt>:
  * @param  hcryp pointer to a CRYP_HandleTypeDef structure
  * @param  Timeout specify Timeout value
  * @retval HAL status
  */
static HAL_StatusTypeDef CRYP_AES_Encrypt(CRYP_HandleTypeDef *hcryp, uint32_t Timeout)
{
 8001732:	b580      	push	{r7, lr}
 8001734:	b084      	sub	sp, #16
 8001736:	af00      	add	r7, sp, #0
 8001738:	6078      	str	r0, [r7, #4]
 800173a:	6039      	str	r1, [r7, #0]
  uint16_t incount;  /* Temporary CrypInCount Value */
  uint16_t outcount;  /* Temporary CrypOutCount Value */
  uint32_t DoKeyIVConfig = 1U; /* By default, carry out peripheral Key and IV configuration */
 800173c:	2301      	movs	r3, #1
 800173e:	60bb      	str	r3, [r7, #8]

  if (hcryp->Init.KeyIVConfigSkip == CRYP_KEYIVCONFIG_ONCE)
 8001740:	687b      	ldr	r3, [r7, #4]
 8001742:	6adb      	ldr	r3, [r3, #44]	@ 0x2c
 8001744:	2b01      	cmp	r3, #1
 8001746:	d109      	bne.n	800175c <CRYP_AES_Encrypt+0x2a>
  {
    if (hcryp->KeyIVConfig == 1U)
 8001748:	687b      	ldr	r3, [r7, #4]
 800174a:	6d9b      	ldr	r3, [r3, #88]	@ 0x58
 800174c:	2b01      	cmp	r3, #1
 800174e:	d102      	bne.n	8001756 <CRYP_AES_Encrypt+0x24>
    {
      /* If the Key and IV configuration has to be done only once
         and if it has already been done, skip it */
      DoKeyIVConfig = 0U;
 8001750:	2300      	movs	r3, #0
 8001752:	60bb      	str	r3, [r7, #8]
 8001754:	e002      	b.n	800175c <CRYP_AES_Encrypt+0x2a>
    else
    {
      /* If the Key and IV configuration has to be done only once
         and if it has not been done already, do it and set KeyIVConfig
         to keep track it won't have to be done again next time */
      hcryp->KeyIVConfig = 1U;
 8001756:	687b      	ldr	r3, [r7, #4]
 8001758:	2201      	movs	r2, #1
 800175a:	659a      	str	r2, [r3, #88]	@ 0x58
    }
  }

  if (DoKeyIVConfig == 1U)
 800175c:	68bb      	ldr	r3, [r7, #8]
 800175e:	2b01      	cmp	r3, #1
 8001760:	d122      	bne.n	80017a8 <CRYP_AES_Encrypt+0x76>
  {
    /*  Set the Key*/
    CRYP_SetKey(hcryp, hcryp->Init.KeySize);
 8001762:	687b      	ldr	r3, [r7, #4]
 8001764:	689a      	ldr	r2, [r3, #8]
 8001766:	687b      	ldr	r3, [r7, #4]
 8001768:	0011      	movs	r1, r2
 800176a:	0018      	movs	r0, r3
 800176c:	f000 faea 	bl	8001d44 <CRYP_SetKey>

    if (hcryp->Init.Algorithm != CRYP_AES_ECB)
 8001770:	687b      	ldr	r3, [r7, #4]
 8001772:	695b      	ldr	r3, [r3, #20]
 8001774:	2b00      	cmp	r3, #0
 8001776:	d017      	beq.n	80017a8 <CRYP_AES_Encrypt+0x76>
    {
      /* Set the Initialization Vector*/
      hcryp->Instance->IVR3 = *(uint32_t *)(hcryp->Init.pInitVect);
 8001778:	687b      	ldr	r3, [r7, #4]
 800177a:	691a      	ldr	r2, [r3, #16]
 800177c:	687b      	ldr	r3, [r7, #4]
 800177e:	681b      	ldr	r3, [r3, #0]
 8001780:	6812      	ldr	r2, [r2, #0]
 8001782:	62da      	str	r2, [r3, #44]	@ 0x2c
      hcryp->Instance->IVR2 = *(uint32_t *)(hcryp->Init.pInitVect + 1U);
 8001784:	687b      	ldr	r3, [r7, #4]
 8001786:	691a      	ldr	r2, [r3, #16]
 8001788:	687b      	ldr	r3, [r7, #4]
 800178a:	681b      	ldr	r3, [r3, #0]
 800178c:	6852      	ldr	r2, [r2, #4]
 800178e:	629a      	str	r2, [r3, #40]	@ 0x28
      hcryp->Instance->IVR1 = *(uint32_t *)(hcryp->Init.pInitVect + 2U);
 8001790:	687b      	ldr	r3, [r7, #4]
 8001792:	691a      	ldr	r2, [r3, #16]
 8001794:	687b      	ldr	r3, [r7, #4]
 8001796:	681b      	ldr	r3, [r3, #0]
 8001798:	6892      	ldr	r2, [r2, #8]
 800179a:	625a      	str	r2, [r3, #36]	@ 0x24
      hcryp->Instance->IVR0 = *(uint32_t *)(hcryp->Init.pInitVect + 3U);
 800179c:	687b      	ldr	r3, [r7, #4]
 800179e:	691a      	ldr	r2, [r3, #16]
 80017a0:	687b      	ldr	r3, [r7, #4]
 80017a2:	681b      	ldr	r3, [r3, #0]
 80017a4:	68d2      	ldr	r2, [r2, #12]
 80017a6:	621a      	str	r2, [r3, #32]
    }
  } /* if (DoKeyIVConfig == 1U) */

  /* Set the phase */
  hcryp->Phase = CRYP_PHASE_PROCESS;
 80017a8:	687b      	ldr	r3, [r7, #4]
 80017aa:	2202      	movs	r2, #2
 80017ac:	645a      	str	r2, [r3, #68]	@ 0x44

  /* Enable CRYP */
  __HAL_CRYP_ENABLE(hcryp);
 80017ae:	687b      	ldr	r3, [r7, #4]
 80017b0:	681b      	ldr	r3, [r3, #0]
 80017b2:	681a      	ldr	r2, [r3, #0]
 80017b4:	687b      	ldr	r3, [r7, #4]
 80017b6:	681b      	ldr	r3, [r3, #0]
 80017b8:	2101      	movs	r1, #1
 80017ba:	430a      	orrs	r2, r1
 80017bc:	601a      	str	r2, [r3, #0]

  incount = hcryp->CrypInCount;
 80017be:	230e      	movs	r3, #14
 80017c0:	18fb      	adds	r3, r7, r3
 80017c2:	687a      	ldr	r2, [r7, #4]
 80017c4:	8fd2      	ldrh	r2, [r2, #62]	@ 0x3e
 80017c6:	801a      	strh	r2, [r3, #0]
  outcount = hcryp->CrypOutCount;
 80017c8:	230c      	movs	r3, #12
 80017ca:	18fb      	adds	r3, r7, r3
 80017cc:	687a      	ldr	r2, [r7, #4]
 80017ce:	2140      	movs	r1, #64	@ 0x40
 80017d0:	5a52      	ldrh	r2, [r2, r1]
 80017d2:	801a      	strh	r2, [r3, #0]
  while ((incount < (hcryp->Size / 4U)) && (outcount < (hcryp->Size / 4U)))
 80017d4:	e010      	b.n	80017f8 <CRYP_AES_Encrypt+0xc6>
  {
    /* Write plain Ddta and get cipher data */
    CRYP_AES_ProcessData(hcryp, Timeout);
 80017d6:	683a      	ldr	r2, [r7, #0]
 80017d8:	687b      	ldr	r3, [r7, #4]
 80017da:	0011      	movs	r1, r2
 80017dc:	0018      	movs	r0, r3
 80017de:	f000 f920 	bl	8001a22 <CRYP_AES_ProcessData>
    incount = hcryp->CrypInCount;
 80017e2:	230e      	movs	r3, #14
 80017e4:	18fb      	adds	r3, r7, r3
 80017e6:	687a      	ldr	r2, [r7, #4]
 80017e8:	8fd2      	ldrh	r2, [r2, #62]	@ 0x3e
 80017ea:	801a      	strh	r2, [r3, #0]
    outcount = hcryp->CrypOutCount;
 80017ec:	230c      	movs	r3, #12
 80017ee:	18fb      	adds	r3, r7, r3
 80017f0:	687a      	ldr	r2, [r7, #4]
 80017f2:	2140      	movs	r1, #64	@ 0x40
 80017f4:	5a52      	ldrh	r2, [r2, r1]
 80017f6:	801a      	strh	r2, [r3, #0]
  while ((incount < (hcryp->Size / 4U)) && (outcount < (hcryp->Size / 4U)))
 80017f8:	687b      	ldr	r3, [r7, #4]
 80017fa:	2242      	movs	r2, #66	@ 0x42
 80017fc:	5a9b      	ldrh	r3, [r3, r2]
 80017fe:	089b      	lsrs	r3, r3, #2
 8001800:	b29b      	uxth	r3, r3
 8001802:	220e      	movs	r2, #14
 8001804:	18ba      	adds	r2, r7, r2
 8001806:	8812      	ldrh	r2, [r2, #0]
 8001808:	429a      	cmp	r2, r3
 800180a:	d209      	bcs.n	8001820 <CRYP_AES_Encrypt+0xee>
 800180c:	687b      	ldr	r3, [r7, #4]
 800180e:	2242      	movs	r2, #66	@ 0x42
 8001810:	5a9b      	ldrh	r3, [r3, r2]
 8001812:	089b      	lsrs	r3, r3, #2
 8001814:	b29b      	uxth	r3, r3
 8001816:	220c      	movs	r2, #12
 8001818:	18ba      	adds	r2, r7, r2
 800181a:	8812      	ldrh	r2, [r2, #0]
 800181c:	429a      	cmp	r2, r3
 800181e:	d3da      	bcc.n	80017d6 <CRYP_AES_Encrypt+0xa4>
  }

  /* Disable CRYP */
  __HAL_CRYP_DISABLE(hcryp);
 8001820:	687b      	ldr	r3, [r7, #4]
 8001822:	681b      	ldr	r3, [r3, #0]
 8001824:	681a      	ldr	r2, [r3, #0]
 8001826:	687b      	ldr	r3, [r7, #4]
 8001828:	681b      	ldr	r3, [r3, #0]
 800182a:	2101      	movs	r1, #1
 800182c:	438a      	bics	r2, r1
 800182e:	601a      	str	r2, [r3, #0]

  /* Change the CRYP state */
  hcryp->State = HAL_CRYP_STATE_READY;
 8001830:	687b      	ldr	r3, [r7, #4]
 8001832:	2251      	movs	r2, #81	@ 0x51
 8001834:	2101      	movs	r1, #1
 8001836:	5499      	strb	r1, [r3, r2]

  /* Return function status */
  return HAL_OK;
 8001838:	2300      	movs	r3, #0
}
 800183a:	0018      	movs	r0, r3
 800183c:	46bd      	mov	sp, r7
 800183e:	b004      	add	sp, #16
 8001840:	bd80      	pop	{r7, pc}

08001842 <CRYP_AES_Decrypt>:
  * @param  hcryp pointer to a CRYP_HandleTypeDef structure
  * @param  Timeout Specify Timeout value
  * @retval HAL status
  */
static HAL_StatusTypeDef CRYP_AES_Decrypt(CRYP_HandleTypeDef *hcryp, uint32_t Timeout)
{
 8001842:	b580      	push	{r7, lr}
 8001844:	b084      	sub	sp, #16
 8001846:	af00      	add	r7, sp, #0
 8001848:	6078      	str	r0, [r7, #4]
 800184a:	6039      	str	r1, [r7, #0]
  uint16_t incount;  /* Temporary CrypInCount Value */
  uint16_t outcount;  /* Temporary CrypOutCount Value */
  uint32_t DoKeyIVConfig = 1U; /* By default, carry out peripheral Key and IV configuration */
 800184c:	2301      	movs	r3, #1
 800184e:	60bb      	str	r3, [r7, #8]

  if (hcryp->Init.KeyIVConfigSkip == CRYP_KEYIVCONFIG_ONCE)
 8001850:	687b      	ldr	r3, [r7, #4]
 8001852:	6adb      	ldr	r3, [r3, #44]	@ 0x2c
 8001854:	2b01      	cmp	r3, #1
 8001856:	d109      	bne.n	800186c <CRYP_AES_Decrypt+0x2a>
  {
    if (hcryp->KeyIVConfig == 1U)
 8001858:	687b      	ldr	r3, [r7, #4]
 800185a:	6d9b      	ldr	r3, [r3, #88]	@ 0x58
 800185c:	2b01      	cmp	r3, #1
 800185e:	d102      	bne.n	8001866 <CRYP_AES_Decrypt+0x24>
    {
      /* If the Key and IV configuration has to be done only once
         and if it has already been done, skip it */
      DoKeyIVConfig = 0U;
 8001860:	2300      	movs	r3, #0
 8001862:	60bb      	str	r3, [r7, #8]
 8001864:	e002      	b.n	800186c <CRYP_AES_Decrypt+0x2a>
    else
    {
      /* If the Key and IV configuration has to be done only once
         and if it has not been done already, do it and set KeyIVConfig
         to keep track it won't have to be done again next time */
      hcryp->KeyIVConfig = 1U;
 8001866:	687b      	ldr	r3, [r7, #4]
 8001868:	2201      	movs	r2, #1
 800186a:	659a      	str	r2, [r3, #88]	@ 0x58
    }
  }

  if (DoKeyIVConfig == 1U)
 800186c:	68bb      	ldr	r3, [r7, #8]
 800186e:	2b01      	cmp	r3, #1
 8001870:	d000      	beq.n	8001874 <CRYP_AES_Decrypt+0x32>
 8001872:	e089      	b.n	8001988 <CRYP_AES_Decrypt+0x146>
  {
    /*  Key preparation for ECB/CBC */
    if (hcryp->Init.Algorithm != CRYP_AES_CTR)   /*ECB or CBC*/
 8001874:	687b      	ldr	r3, [r7, #4]
 8001876:	695b      	ldr	r3, [r3, #20]
 8001878:	2b40      	cmp	r3, #64	@ 0x40
 800187a:	d062      	beq.n	8001942 <CRYP_AES_Decrypt+0x100>
    {
      if (hcryp->AutoKeyDerivation == DISABLE)/*Mode 2 Key preparation*/
 800187c:	687b      	ldr	r3, [r7, #4]
 800187e:	2230      	movs	r2, #48	@ 0x30
 8001880:	5c9b      	ldrb	r3, [r3, r2]
 8001882:	2b00      	cmp	r3, #0
 8001884:	d14d      	bne.n	8001922 <CRYP_AES_Decrypt+0xe0>
      {
        /* Set key preparation for decryption operating mode*/
        MODIFY_REG(hcryp->Instance->CR, AES_CR_MODE, CRYP_OPERATINGMODE_KEYDERIVATION);
 8001886:	687b      	ldr	r3, [r7, #4]
 8001888:	681b      	ldr	r3, [r3, #0]
 800188a:	681b      	ldr	r3, [r3, #0]
 800188c:	2218      	movs	r2, #24
 800188e:	4393      	bics	r3, r2
 8001890:	001a      	movs	r2, r3
 8001892:	687b      	ldr	r3, [r7, #4]
 8001894:	681b      	ldr	r3, [r3, #0]
 8001896:	2108      	movs	r1, #8
 8001898:	430a      	orrs	r2, r1
 800189a:	601a      	str	r2, [r3, #0]

        /*  Set the Key*/
        CRYP_SetKey(hcryp, hcryp->Init.KeySize);
 800189c:	687b      	ldr	r3, [r7, #4]
 800189e:	689a      	ldr	r2, [r3, #8]
 80018a0:	687b      	ldr	r3, [r7, #4]
 80018a2:	0011      	movs	r1, r2
 80018a4:	0018      	movs	r0, r3
 80018a6:	f000 fa4d 	bl	8001d44 <CRYP_SetKey>

        /* Enable CRYP */
        __HAL_CRYP_ENABLE(hcryp);
 80018aa:	687b      	ldr	r3, [r7, #4]
 80018ac:	681b      	ldr	r3, [r3, #0]
 80018ae:	681a      	ldr	r2, [r3, #0]
 80018b0:	687b      	ldr	r3, [r7, #4]
 80018b2:	681b      	ldr	r3, [r3, #0]
 80018b4:	2101      	movs	r1, #1
 80018b6:	430a      	orrs	r2, r1
 80018b8:	601a      	str	r2, [r3, #0]

        /* Wait for CCF flag to be raised */
        if (CRYP_WaitOnCCFlag(hcryp, Timeout) != HAL_OK)
 80018ba:	683a      	ldr	r2, [r7, #0]
 80018bc:	687b      	ldr	r3, [r7, #4]
 80018be:	0011      	movs	r1, r2
 80018c0:	0018      	movs	r0, r3
 80018c2:	f001 fb17 	bl	8002ef4 <CRYP_WaitOnCCFlag>
 80018c6:	1e03      	subs	r3, r0, #0
 80018c8:	d017      	beq.n	80018fa <CRYP_AES_Decrypt+0xb8>
        {
          /* Disable the CRYP peripheral clock */
          __HAL_CRYP_DISABLE(hcryp);
 80018ca:	687b      	ldr	r3, [r7, #4]
 80018cc:	681b      	ldr	r3, [r3, #0]
 80018ce:	681a      	ldr	r2, [r3, #0]
 80018d0:	687b      	ldr	r3, [r7, #4]
 80018d2:	681b      	ldr	r3, [r3, #0]
 80018d4:	2101      	movs	r1, #1
 80018d6:	438a      	bics	r2, r1
 80018d8:	601a      	str	r2, [r3, #0]

          /* Change state & error code*/
          hcryp->ErrorCode |= HAL_CRYP_ERROR_TIMEOUT;
 80018da:	687b      	ldr	r3, [r7, #4]
 80018dc:	6d5b      	ldr	r3, [r3, #84]	@ 0x54
 80018de:	2210      	movs	r2, #16
 80018e0:	431a      	orrs	r2, r3
 80018e2:	687b      	ldr	r3, [r7, #4]
 80018e4:	655a      	str	r2, [r3, #84]	@ 0x54
          hcryp->State = HAL_CRYP_STATE_READY;
 80018e6:	687b      	ldr	r3, [r7, #4]
 80018e8:	2251      	movs	r2, #81	@ 0x51
 80018ea:	2101      	movs	r1, #1
 80018ec:	5499      	strb	r1, [r3, r2]

          /* Process unlocked */
          __HAL_UNLOCK(hcryp);
 80018ee:	687b      	ldr	r3, [r7, #4]
 80018f0:	2250      	movs	r2, #80	@ 0x50
 80018f2:	2100      	movs	r1, #0
 80018f4:	5499      	strb	r1, [r3, r2]
          return HAL_ERROR;
 80018f6:	2301      	movs	r3, #1
 80018f8:	e08f      	b.n	8001a1a <CRYP_AES_Decrypt+0x1d8>
        }
        /* Clear CCF Flag */
        __HAL_CRYP_CLEAR_FLAG(hcryp, CRYP_CCF_CLEAR);
 80018fa:	687b      	ldr	r3, [r7, #4]
 80018fc:	681b      	ldr	r3, [r3, #0]
 80018fe:	681a      	ldr	r2, [r3, #0]
 8001900:	687b      	ldr	r3, [r7, #4]
 8001902:	681b      	ldr	r3, [r3, #0]
 8001904:	2180      	movs	r1, #128	@ 0x80
 8001906:	430a      	orrs	r2, r1
 8001908:	601a      	str	r2, [r3, #0]

        /* Return to decryption operating mode(Mode 3)*/
        MODIFY_REG(hcryp->Instance->CR, AES_CR_MODE, CRYP_OPERATINGMODE_DECRYPT);
 800190a:	687b      	ldr	r3, [r7, #4]
 800190c:	681b      	ldr	r3, [r3, #0]
 800190e:	681b      	ldr	r3, [r3, #0]
 8001910:	2218      	movs	r2, #24
 8001912:	4393      	bics	r3, r2
 8001914:	001a      	movs	r2, r3
 8001916:	687b      	ldr	r3, [r7, #4]
 8001918:	681b      	ldr	r3, [r3, #0]
 800191a:	2110      	movs	r1, #16
 800191c:	430a      	orrs	r2, r1
 800191e:	601a      	str	r2, [r3, #0]
 8001920:	e016      	b.n	8001950 <CRYP_AES_Decrypt+0x10e>
      }
      else /*Mode 4 : decryption & Key preparation*/
      {
        /*  Set the Key*/
        CRYP_SetKey(hcryp, hcryp->Init.KeySize);
 8001922:	687b      	ldr	r3, [r7, #4]
 8001924:	689a      	ldr	r2, [r3, #8]
 8001926:	687b      	ldr	r3, [r7, #4]
 8001928:	0011      	movs	r1, r2
 800192a:	0018      	movs	r0, r3
 800192c:	f000 fa0a 	bl	8001d44 <CRYP_SetKey>

        /* Set decryption & Key preparation operating mode*/
        MODIFY_REG(hcryp->Instance->CR, AES_CR_MODE, CRYP_OPERATINGMODE_KEYDERIVATION_DECRYPT);
 8001930:	687b      	ldr	r3, [r7, #4]
 8001932:	681b      	ldr	r3, [r3, #0]
 8001934:	681a      	ldr	r2, [r3, #0]
 8001936:	687b      	ldr	r3, [r7, #4]
 8001938:	681b      	ldr	r3, [r3, #0]
 800193a:	2118      	movs	r1, #24
 800193c:	430a      	orrs	r2, r1
 800193e:	601a      	str	r2, [r3, #0]
 8001940:	e006      	b.n	8001950 <CRYP_AES_Decrypt+0x10e>
      }
    }
    else  /*Algorithm CTR */
    {
      /*  Set the Key*/
      CRYP_SetKey(hcryp, hcryp->Init.KeySize);
 8001942:	687b      	ldr	r3, [r7, #4]
 8001944:	689a      	ldr	r2, [r3, #8]
 8001946:	687b      	ldr	r3, [r7, #4]
 8001948:	0011      	movs	r1, r2
 800194a:	0018      	movs	r0, r3
 800194c:	f000 f9fa 	bl	8001d44 <CRYP_SetKey>
    }

    /* Set IV */
    if (hcryp->Init.Algorithm != CRYP_AES_ECB)
 8001950:	687b      	ldr	r3, [r7, #4]
 8001952:	695b      	ldr	r3, [r3, #20]
 8001954:	2b00      	cmp	r3, #0
 8001956:	d017      	beq.n	8001988 <CRYP_AES_Decrypt+0x146>
    {
      /* Set the Initialization Vector*/
      hcryp->Instance->IVR3 = *(uint32_t *)(hcryp->Init.pInitVect);
 8001958:	687b      	ldr	r3, [r7, #4]
 800195a:	691a      	ldr	r2, [r3, #16]
 800195c:	687b      	ldr	r3, [r7, #4]
 800195e:	681b      	ldr	r3, [r3, #0]
 8001960:	6812      	ldr	r2, [r2, #0]
 8001962:	62da      	str	r2, [r3, #44]	@ 0x2c
      hcryp->Instance->IVR2 = *(uint32_t *)(hcryp->Init.pInitVect + 1U);
 8001964:	687b      	ldr	r3, [r7, #4]
 8001966:	691a      	ldr	r2, [r3, #16]
 8001968:	687b      	ldr	r3, [r7, #4]
 800196a:	681b      	ldr	r3, [r3, #0]
 800196c:	6852      	ldr	r2, [r2, #4]
 800196e:	629a      	str	r2, [r3, #40]	@ 0x28
      hcryp->Instance->IVR1 = *(uint32_t *)(hcryp->Init.pInitVect + 2U);
 8001970:	687b      	ldr	r3, [r7, #4]
 8001972:	691a      	ldr	r2, [r3, #16]
 8001974:	687b      	ldr	r3, [r7, #4]
 8001976:	681b      	ldr	r3, [r3, #0]
 8001978:	6892      	ldr	r2, [r2, #8]
 800197a:	625a      	str	r2, [r3, #36]	@ 0x24
      hcryp->Instance->IVR0 = *(uint32_t *)(hcryp->Init.pInitVect + 3U);
 800197c:	687b      	ldr	r3, [r7, #4]
 800197e:	691a      	ldr	r2, [r3, #16]
 8001980:	687b      	ldr	r3, [r7, #4]
 8001982:	681b      	ldr	r3, [r3, #0]
 8001984:	68d2      	ldr	r2, [r2, #12]
 8001986:	621a      	str	r2, [r3, #32]
    }
  } /* if (DoKeyIVConfig == 1U) */

  /* Set the phase */
  hcryp->Phase = CRYP_PHASE_PROCESS;
 8001988:	687b      	ldr	r3, [r7, #4]
 800198a:	2202      	movs	r2, #2
 800198c:	645a      	str	r2, [r3, #68]	@ 0x44

  /* Enable CRYP */
  __HAL_CRYP_ENABLE(hcryp);
 800198e:	687b      	ldr	r3, [r7, #4]
 8001990:	681b      	ldr	r3, [r3, #0]
 8001992:	681a      	ldr	r2, [r3, #0]
 8001994:	687b      	ldr	r3, [r7, #4]
 8001996:	681b      	ldr	r3, [r3, #0]
 8001998:	2101      	movs	r1, #1
 800199a:	430a      	orrs	r2, r1
 800199c:	601a      	str	r2, [r3, #0]

  incount = hcryp->CrypInCount;
 800199e:	230e      	movs	r3, #14
 80019a0:	18fb      	adds	r3, r7, r3
 80019a2:	687a      	ldr	r2, [r7, #4]
 80019a4:	8fd2      	ldrh	r2, [r2, #62]	@ 0x3e
 80019a6:	801a      	strh	r2, [r3, #0]
  outcount = hcryp->CrypOutCount;
 80019a8:	230c      	movs	r3, #12
 80019aa:	18fb      	adds	r3, r7, r3
 80019ac:	687a      	ldr	r2, [r7, #4]
 80019ae:	2140      	movs	r1, #64	@ 0x40
 80019b0:	5a52      	ldrh	r2, [r2, r1]
 80019b2:	801a      	strh	r2, [r3, #0]
  while ((incount < (hcryp->Size / 4U)) && (outcount < (hcryp->Size / 4U)))
 80019b4:	e010      	b.n	80019d8 <CRYP_AES_Decrypt+0x196>
  {
    /* Write plain data and get cipher data */
    CRYP_AES_ProcessData(hcryp, Timeout);
 80019b6:	683a      	ldr	r2, [r7, #0]
 80019b8:	687b      	ldr	r3, [r7, #4]
 80019ba:	0011      	movs	r1, r2
 80019bc:	0018      	movs	r0, r3
 80019be:	f000 f830 	bl	8001a22 <CRYP_AES_ProcessData>
    incount = hcryp->CrypInCount;
 80019c2:	230e      	movs	r3, #14
 80019c4:	18fb      	adds	r3, r7, r3
 80019c6:	687a      	ldr	r2, [r7, #4]
 80019c8:	8fd2      	ldrh	r2, [r2, #62]	@ 0x3e
 80019ca:	801a      	strh	r2, [r3, #0]
    outcount = hcryp->CrypOutCount;
 80019cc:	230c      	movs	r3, #12
 80019ce:	18fb      	adds	r3, r7, r3
 80019d0:	687a      	ldr	r2, [r7, #4]
 80019d2:	2140      	movs	r1, #64	@ 0x40
 80019d4:	5a52      	ldrh	r2, [r2, r1]
 80019d6:	801a      	strh	r2, [r3, #0]
  while ((incount < (hcryp->Size / 4U)) && (outcount < (hcryp->Size / 4U)))
 80019d8:	687b      	ldr	r3, [r7, #4]
 80019da:	2242      	movs	r2, #66	@ 0x42
 80019dc:	5a9b      	ldrh	r3, [r3, r2]
 80019de:	089b      	lsrs	r3, r3, #2
 80019e0:	b29b      	uxth	r3, r3
 80019e2:	220e      	movs	r2, #14
 80019e4:	18ba      	adds	r2, r7, r2
 80019e6:	8812      	ldrh	r2, [r2, #0]
 80019e8:	429a      	cmp	r2, r3
 80019ea:	d209      	bcs.n	8001a00 <CRYP_AES_Decrypt+0x1be>
 80019ec:	687b      	ldr	r3, [r7, #4]
 80019ee:	2242      	movs	r2, #66	@ 0x42
 80019f0:	5a9b      	ldrh	r3, [r3, r2]
 80019f2:	089b      	lsrs	r3, r3, #2
 80019f4:	b29b      	uxth	r3, r3
 80019f6:	220c      	movs	r2, #12
 80019f8:	18ba      	adds	r2, r7, r2
 80019fa:	8812      	ldrh	r2, [r2, #0]
 80019fc:	429a      	cmp	r2, r3
 80019fe:	d3da      	bcc.n	80019b6 <CRYP_AES_Decrypt+0x174>
  }

  /* Disable CRYP */
  __HAL_CRYP_DISABLE(hcryp);
 8001a00:	687b      	ldr	r3, [r7, #4]
 8001a02:	681b      	ldr	r3, [r3, #0]
 8001a04:	681a      	ldr	r2, [r3, #0]
 8001a06:	687b      	ldr	r3, [r7, #4]
 8001a08:	681b      	ldr	r3, [r3, #0]
 8001a0a:	2101      	movs	r1, #1
 8001a0c:	438a      	bics	r2, r1
 8001a0e:	601a      	str	r2, [r3, #0]

  /* Change the CRYP state */
  hcryp->State = HAL_CRYP_STATE_READY;
 8001a10:	687b      	ldr	r3, [r7, #4]
 8001a12:	2251      	movs	r2, #81	@ 0x51
 8001a14:	2101      	movs	r1, #1
 8001a16:	5499      	strb	r1, [r3, r2]

  /* Return function status */
  return HAL_OK;
 8001a18:	2300      	movs	r3, #0
}
 8001a1a:	0018      	movs	r0, r3
 8001a1c:	46bd      	mov	sp, r7
 8001a1e:	b004      	add	sp, #16
 8001a20:	bd80      	pop	{r7, pc}

08001a22 <CRYP_AES_ProcessData>:
  *         the configuration information for CRYP module
  * @param  Timeout Specify Timeout value
  * @retval None
  */
static void CRYP_AES_ProcessData(CRYP_HandleTypeDef *hcryp, uint32_t Timeout)
{
 8001a22:	b580      	push	{r7, lr}
 8001a24:	b088      	sub	sp, #32
 8001a26:	af00      	add	r7, sp, #0
 8001a28:	6078      	str	r0, [r7, #4]
 8001a2a:	6039      	str	r1, [r7, #0]

  uint32_t temp[4];  /* Temporary CrypOutBuff */
  uint32_t i;

  /* Write the input block in the IN FIFO */
  hcryp->Instance->DINR  = *(uint32_t *)(hcryp->pCrypInBuffPtr + hcryp->CrypInCount);
 8001a2c:	687b      	ldr	r3, [r7, #4]
 8001a2e:	6b5a      	ldr	r2, [r3, #52]	@ 0x34
 8001a30:	687b      	ldr	r3, [r7, #4]
 8001a32:	8fdb      	ldrh	r3, [r3, #62]	@ 0x3e
 8001a34:	b29b      	uxth	r3, r3
 8001a36:	009b      	lsls	r3, r3, #2
 8001a38:	18d2      	adds	r2, r2, r3
 8001a3a:	687b      	ldr	r3, [r7, #4]
 8001a3c:	681b      	ldr	r3, [r3, #0]
 8001a3e:	6812      	ldr	r2, [r2, #0]
 8001a40:	609a      	str	r2, [r3, #8]
  hcryp->CrypInCount++;
 8001a42:	687b      	ldr	r3, [r7, #4]
 8001a44:	8fdb      	ldrh	r3, [r3, #62]	@ 0x3e
 8001a46:	b29b      	uxth	r3, r3
 8001a48:	3301      	adds	r3, #1
 8001a4a:	b29a      	uxth	r2, r3
 8001a4c:	687b      	ldr	r3, [r7, #4]
 8001a4e:	87da      	strh	r2, [r3, #62]	@ 0x3e
  hcryp->Instance->DINR  = *(uint32_t *)(hcryp->pCrypInBuffPtr + hcryp->CrypInCount);
 8001a50:	687b      	ldr	r3, [r7, #4]
 8001a52:	6b5a      	ldr	r2, [r3, #52]	@ 0x34
 8001a54:	687b      	ldr	r3, [r7, #4]
 8001a56:	8fdb      	ldrh	r3, [r3, #62]	@ 0x3e
 8001a58:	b29b      	uxth	r3, r3
 8001a5a:	009b      	lsls	r3, r3, #2
 8001a5c:	18d2      	adds	r2, r2, r3
 8001a5e:	687b      	ldr	r3, [r7, #4]
 8001a60:	681b      	ldr	r3, [r3, #0]
 8001a62:	6812      	ldr	r2, [r2, #0]
 8001a64:	609a      	str	r2, [r3, #8]
  hcryp->CrypInCount++;
 8001a66:	687b      	ldr	r3, [r7, #4]
 8001a68:	8fdb      	ldrh	r3, [r3, #62]	@ 0x3e
 8001a6a:	b29b      	uxth	r3, r3
 8001a6c:	3301      	adds	r3, #1
 8001a6e:	b29a      	uxth	r2, r3
 8001a70:	687b      	ldr	r3, [r7, #4]
 8001a72:	87da      	strh	r2, [r3, #62]	@ 0x3e
  hcryp->Instance->DINR  = *(uint32_t *)(hcryp->pCrypInBuffPtr + hcryp->CrypInCount);
 8001a74:	687b      	ldr	r3, [r7, #4]
 8001a76:	6b5a      	ldr	r2, [r3, #52]	@ 0x34
 8001a78:	687b      	ldr	r3, [r7, #4]
 8001a7a:	8fdb      	ldrh	r3, [r3, #62]	@ 0x3e
 8001a7c:	b29b      	uxth	r3, r3
 8001a7e:	009b      	lsls	r3, r3, #2
 8001a80:	18d2      	adds	r2, r2, r3
 8001a82:	687b      	ldr	r3, [r7, #4]
 8001a84:	681b      	ldr	r3, [r3, #0]
 8001a86:	6812      	ldr	r2, [r2, #0]
 8001a88:	609a      	str	r2, [r3, #8]
  hcryp->CrypInCount++;
 8001a8a:	687b      	ldr	r3, [r7, #4]
 8001a8c:	8fdb      	ldrh	r3, [r3, #62]	@ 0x3e
 8001a8e:	b29b      	uxth	r3, r3
 8001a90:	3301      	adds	r3, #1
 8001a92:	b29a      	uxth	r2, r3
 8001a94:	687b      	ldr	r3, [r7, #4]
 8001a96:	87da      	strh	r2, [r3, #62]	@ 0x3e
  hcryp->Instance->DINR  = *(uint32_t *)(hcryp->pCrypInBuffPtr + hcryp->CrypInCount);
 8001a98:	687b      	ldr	r3, [r7, #4]
 8001a9a:	6b5a      	ldr	r2, [r3, #52]	@ 0x34
 8001a9c:	687b      	ldr	r3, [r7, #4]
 8001a9e:	8fdb      	ldrh	r3, [r3, #62]	@ 0x3e
 8001aa0:	b29b      	uxth	r3, r3
 8001aa2:	009b      	lsls	r3, r3, #2
 8001aa4:	18d2      	adds	r2, r2, r3
 8001aa6:	687b      	ldr	r3, [r7, #4]
 8001aa8:	681b      	ldr	r3, [r3, #0]
 8001aaa:	6812      	ldr	r2, [r2, #0]
 8001aac:	609a      	str	r2, [r3, #8]
  hcryp->CrypInCount++;
 8001aae:	687b      	ldr	r3, [r7, #4]
 8001ab0:	8fdb      	ldrh	r3, [r3, #62]	@ 0x3e
 8001ab2:	b29b      	uxth	r3, r3
 8001ab4:	3301      	adds	r3, #1
 8001ab6:	b29a      	uxth	r2, r3
 8001ab8:	687b      	ldr	r3, [r7, #4]
 8001aba:	87da      	strh	r2, [r3, #62]	@ 0x3e

  /* Wait for CCF flag to be raised */
  if (CRYP_WaitOnCCFlag(hcryp, Timeout) != HAL_OK)
 8001abc:	683a      	ldr	r2, [r7, #0]
 8001abe:	687b      	ldr	r3, [r7, #4]
 8001ac0:	0011      	movs	r1, r2
 8001ac2:	0018      	movs	r0, r3
 8001ac4:	f001 fa16 	bl	8002ef4 <CRYP_WaitOnCCFlag>
 8001ac8:	1e03      	subs	r3, r0, #0
 8001aca:	d019      	beq.n	8001b00 <CRYP_AES_ProcessData+0xde>
  {
    /* Disable the CRYP peripheral clock */
    __HAL_CRYP_DISABLE(hcryp);
 8001acc:	687b      	ldr	r3, [r7, #4]
 8001ace:	681b      	ldr	r3, [r3, #0]
 8001ad0:	681a      	ldr	r2, [r3, #0]
 8001ad2:	687b      	ldr	r3, [r7, #4]
 8001ad4:	681b      	ldr	r3, [r3, #0]
 8001ad6:	2101      	movs	r1, #1
 8001ad8:	438a      	bics	r2, r1
 8001ada:	601a      	str	r2, [r3, #0]

    /* Change state */
    hcryp->ErrorCode |= HAL_CRYP_ERROR_TIMEOUT;
 8001adc:	687b      	ldr	r3, [r7, #4]
 8001ade:	6d5b      	ldr	r3, [r3, #84]	@ 0x54
 8001ae0:	2210      	movs	r2, #16
 8001ae2:	431a      	orrs	r2, r3
 8001ae4:	687b      	ldr	r3, [r7, #4]
 8001ae6:	655a      	str	r2, [r3, #84]	@ 0x54
    hcryp->State = HAL_CRYP_STATE_READY;
 8001ae8:	687b      	ldr	r3, [r7, #4]
 8001aea:	2251      	movs	r2, #81	@ 0x51
 8001aec:	2101      	movs	r1, #1
 8001aee:	5499      	strb	r1, [r3, r2]

    /* Process unlocked */
    __HAL_UNLOCK(hcryp);
 8001af0:	687b      	ldr	r3, [r7, #4]
 8001af2:	2250      	movs	r2, #80	@ 0x50
 8001af4:	2100      	movs	r1, #0
 8001af6:	5499      	strb	r1, [r3, r2]
    /*Call registered error callback*/
#if (USE_HAL_CRYP_REGISTER_CALLBACKS == 1U)
    hcryp->ErrorCallback(hcryp);
#else
    /*Call legacy weak error callback*/
    HAL_CRYP_ErrorCallback(hcryp);
 8001af8:	687b      	ldr	r3, [r7, #4]
 8001afa:	0018      	movs	r0, r3
 8001afc:	f7ff fe11 	bl	8001722 <HAL_CRYP_ErrorCallback>
#endif /* USE_HAL_CRYP_REGISTER_CALLBACKS */
  }

  /* Clear CCF Flag */
  __HAL_CRYP_CLEAR_FLAG(hcryp, CRYP_CCF_CLEAR);
 8001b00:	687b      	ldr	r3, [r7, #4]
 8001b02:	681b      	ldr	r3, [r3, #0]
 8001b04:	681a      	ldr	r2, [r3, #0]
 8001b06:	687b      	ldr	r3, [r7, #4]
 8001b08:	681b      	ldr	r3, [r3, #0]
 8001b0a:	2180      	movs	r1, #128	@ 0x80
 8001b0c:	430a      	orrs	r2, r1
 8001b0e:	601a      	str	r2, [r3, #0]

  /* Read the output block from the output FIFO and put them in temporary buffer
     then get CrypOutBuff from temporary buffer*/
  for (i = 0U; i < 4U; i++)
 8001b10:	2300      	movs	r3, #0
 8001b12:	61fb      	str	r3, [r7, #28]
 8001b14:	e00a      	b.n	8001b2c <CRYP_AES_ProcessData+0x10a>
  {
    temp[i] = hcryp->Instance->DOUTR;
 8001b16:	687b      	ldr	r3, [r7, #4]
 8001b18:	681b      	ldr	r3, [r3, #0]
 8001b1a:	68d9      	ldr	r1, [r3, #12]
 8001b1c:	230c      	movs	r3, #12
 8001b1e:	18fb      	adds	r3, r7, r3
 8001b20:	69fa      	ldr	r2, [r7, #28]
 8001b22:	0092      	lsls	r2, r2, #2
 8001b24:	50d1      	str	r1, [r2, r3]
  for (i = 0U; i < 4U; i++)
 8001b26:	69fb      	ldr	r3, [r7, #28]
 8001b28:	3301      	adds	r3, #1
 8001b2a:	61fb      	str	r3, [r7, #28]
 8001b2c:	69fb      	ldr	r3, [r7, #28]
 8001b2e:	2b03      	cmp	r3, #3
 8001b30:	d9f1      	bls.n	8001b16 <CRYP_AES_ProcessData+0xf4>
  }
  i = 0U;
 8001b32:	2300      	movs	r3, #0
 8001b34:	61fb      	str	r3, [r7, #28]
  while ((hcryp->CrypOutCount < ((hcryp->Size + 3U) / 4U)) && (i < 4U))
 8001b36:	e019      	b.n	8001b6c <CRYP_AES_ProcessData+0x14a>
  {
    *(uint32_t *)(hcryp->pCrypOutBuffPtr + hcryp->CrypOutCount) = temp[i];
 8001b38:	687b      	ldr	r3, [r7, #4]
 8001b3a:	6b9a      	ldr	r2, [r3, #56]	@ 0x38
 8001b3c:	687b      	ldr	r3, [r7, #4]
 8001b3e:	2140      	movs	r1, #64	@ 0x40
 8001b40:	5a5b      	ldrh	r3, [r3, r1]
 8001b42:	b29b      	uxth	r3, r3
 8001b44:	009b      	lsls	r3, r3, #2
 8001b46:	18d3      	adds	r3, r2, r3
 8001b48:	220c      	movs	r2, #12
 8001b4a:	18ba      	adds	r2, r7, r2
 8001b4c:	69f9      	ldr	r1, [r7, #28]
 8001b4e:	0089      	lsls	r1, r1, #2
 8001b50:	588a      	ldr	r2, [r1, r2]
 8001b52:	601a      	str	r2, [r3, #0]
    hcryp->CrypOutCount++;
 8001b54:	687b      	ldr	r3, [r7, #4]
 8001b56:	2240      	movs	r2, #64	@ 0x40
 8001b58:	5a9b      	ldrh	r3, [r3, r2]
 8001b5a:	b29b      	uxth	r3, r3
 8001b5c:	3301      	adds	r3, #1
 8001b5e:	b299      	uxth	r1, r3
 8001b60:	687b      	ldr	r3, [r7, #4]
 8001b62:	2240      	movs	r2, #64	@ 0x40
 8001b64:	5299      	strh	r1, [r3, r2]
    i++;
 8001b66:	69fb      	ldr	r3, [r7, #28]
 8001b68:	3301      	adds	r3, #1
 8001b6a:	61fb      	str	r3, [r7, #28]
  while ((hcryp->CrypOutCount < ((hcryp->Size + 3U) / 4U)) && (i < 4U))
 8001b6c:	687b      	ldr	r3, [r7, #4]
 8001b6e:	2240      	movs	r2, #64	@ 0x40
 8001b70:	5a9b      	ldrh	r3, [r3, r2]
 8001b72:	b29b      	uxth	r3, r3
 8001b74:	0019      	movs	r1, r3
 8001b76:	687b      	ldr	r3, [r7, #4]
 8001b78:	2242      	movs	r2, #66	@ 0x42
 8001b7a:	5a9b      	ldrh	r3, [r3, r2]
 8001b7c:	3303      	adds	r3, #3
 8001b7e:	089b      	lsrs	r3, r3, #2
 8001b80:	4299      	cmp	r1, r3
 8001b82:	d202      	bcs.n	8001b8a <CRYP_AES_ProcessData+0x168>
 8001b84:	69fb      	ldr	r3, [r7, #28]
 8001b86:	2b03      	cmp	r3, #3
 8001b88:	d9d6      	bls.n	8001b38 <CRYP_AES_ProcessData+0x116>
  }
}
 8001b8a:	46c0      	nop			@ (mov r8, r8)
 8001b8c:	46bd      	mov	sp, r7
 8001b8e:	b008      	add	sp, #32
 8001b90:	bd80      	pop	{r7, pc}
	...

08001b94 <CRYP_AES_IT>:
  * @param  hcryp pointer to a CRYP_HandleTypeDef structure that contains
  *         the configuration information for CRYP module.
  * @retval HAL status
  */
static void CRYP_AES_IT(CRYP_HandleTypeDef *hcryp)
{
 8001b94:	b580      	push	{r7, lr}
 8001b96:	b088      	sub	sp, #32
 8001b98:	af00      	add	r7, sp, #0
 8001b9a:	6078      	str	r0, [r7, #4]
  uint32_t temp[4];  /* Temporary CrypOutBuff */
  uint32_t i;

  if (hcryp->State == HAL_CRYP_STATE_BUSY)
 8001b9c:	687b      	ldr	r3, [r7, #4]
 8001b9e:	2251      	movs	r2, #81	@ 0x51
 8001ba0:	5c9b      	ldrb	r3, [r3, r2]
 8001ba2:	b2db      	uxtb	r3, r3
 8001ba4:	2b02      	cmp	r3, #2
 8001ba6:	d000      	beq.n	8001baa <CRYP_AES_IT+0x16>
 8001ba8:	e0bb      	b.n	8001d22 <CRYP_AES_IT+0x18e>
  {
    /* Read the output block from the output FIFO and put them in temporary buffer
       then get CrypOutBuff from temporary buffer*/
    for (i = 0U; i < 4U; i++)
 8001baa:	2300      	movs	r3, #0
 8001bac:	61fb      	str	r3, [r7, #28]
 8001bae:	e00a      	b.n	8001bc6 <CRYP_AES_IT+0x32>
    {
      temp[i] = hcryp->Instance->DOUTR;
 8001bb0:	687b      	ldr	r3, [r7, #4]
 8001bb2:	681b      	ldr	r3, [r3, #0]
 8001bb4:	68d9      	ldr	r1, [r3, #12]
 8001bb6:	230c      	movs	r3, #12
 8001bb8:	18fb      	adds	r3, r7, r3
 8001bba:	69fa      	ldr	r2, [r7, #28]
 8001bbc:	0092      	lsls	r2, r2, #2
 8001bbe:	50d1      	str	r1, [r2, r3]
    for (i = 0U; i < 4U; i++)
 8001bc0:	69fb      	ldr	r3, [r7, #28]
 8001bc2:	3301      	adds	r3, #1
 8001bc4:	61fb      	str	r3, [r7, #28]
 8001bc6:	69fb      	ldr	r3, [r7, #28]
 8001bc8:	2b03      	cmp	r3, #3
 8001bca:	d9f1      	bls.n	8001bb0 <CRYP_AES_IT+0x1c>
    }
    i = 0U;
 8001bcc:	2300      	movs	r3, #0
 8001bce:	61fb      	str	r3, [r7, #28]
    while ((hcryp->CrypOutCount < ((hcryp->Size + 3U) / 4U)) && (i < 4U))
 8001bd0:	e019      	b.n	8001c06 <CRYP_AES_IT+0x72>
    {
      *(uint32_t *)(hcryp->pCrypOutBuffPtr + hcryp->CrypOutCount) = temp[i];
 8001bd2:	687b      	ldr	r3, [r7, #4]
 8001bd4:	6b9a      	ldr	r2, [r3, #56]	@ 0x38
 8001bd6:	687b      	ldr	r3, [r7, #4]
 8001bd8:	2140      	movs	r1, #64	@ 0x40
 8001bda:	5a5b      	ldrh	r3, [r3, r1]
 8001bdc:	b29b      	uxth	r3, r3
 8001bde:	009b      	lsls	r3, r3, #2
 8001be0:	18d3      	adds	r3, r2, r3
 8001be2:	220c      	movs	r2, #12
 8001be4:	18ba      	adds	r2, r7, r2
 8001be6:	69f9      	ldr	r1, [r7, #28]
 8001be8:	0089      	lsls	r1, r1, #2
 8001bea:	588a      	ldr	r2, [r1, r2]
 8001bec:	601a      	str	r2, [r3, #0]
      hcryp->CrypOutCount++;
 8001bee:	687b      	ldr	r3, [r7, #4]
 8001bf0:	2240      	movs	r2, #64	@ 0x40
 8001bf2:	5a9b      	ldrh	r3, [r3, r2]
 8001bf4:	b29b      	uxth	r3, r3
 8001bf6:	3301      	adds	r3, #1
 8001bf8:	b299      	uxth	r1, r3
 8001bfa:	687b      	ldr	r3, [r7, #4]
 8001bfc:	2240      	movs	r2, #64	@ 0x40
 8001bfe:	5299      	strh	r1, [r3, r2]
      i++;
 8001c00:	69fb      	ldr	r3, [r7, #28]
 8001c02:	3301      	adds	r3, #1
 8001c04:	61fb      	str	r3, [r7, #28]
    while ((hcryp->CrypOutCount < ((hcryp->Size + 3U) / 4U)) && (i < 4U))
 8001c06:	687b      	ldr	r3, [r7, #4]
 8001c08:	2240      	movs	r2, #64	@ 0x40
 8001c0a:	5a9b      	ldrh	r3, [r3, r2]
 8001c0c:	b29b      	uxth	r3, r3
 8001c0e:	0019      	movs	r1, r3
 8001c10:	687b      	ldr	r3, [r7, #4]
 8001c12:	2242      	movs	r2, #66	@ 0x42
 8001c14:	5a9b      	ldrh	r3, [r3, r2]
 8001c16:	3303      	adds	r3, #3
 8001c18:	089b      	lsrs	r3, r3, #2
 8001c1a:	4299      	cmp	r1, r3
 8001c1c:	d202      	bcs.n	8001c24 <CRYP_AES_IT+0x90>
 8001c1e:	69fb      	ldr	r3, [r7, #28]
 8001c20:	2b03      	cmp	r3, #3
 8001c22:	d9d6      	bls.n	8001bd2 <CRYP_AES_IT+0x3e>
    }
    if (hcryp->CrypOutCount == (hcryp->Size / 4U))
 8001c24:	687b      	ldr	r3, [r7, #4]
 8001c26:	2240      	movs	r2, #64	@ 0x40
 8001c28:	5a9b      	ldrh	r3, [r3, r2]
 8001c2a:	b29a      	uxth	r2, r3
 8001c2c:	687b      	ldr	r3, [r7, #4]
 8001c2e:	2142      	movs	r1, #66	@ 0x42
 8001c30:	5a5b      	ldrh	r3, [r3, r1]
 8001c32:	089b      	lsrs	r3, r3, #2
 8001c34:	b29b      	uxth	r3, r3
 8001c36:	429a      	cmp	r2, r3
 8001c38:	d11c      	bne.n	8001c74 <CRYP_AES_IT+0xe0>
    {
      /* Disable Computation Complete flag and errors interrupts */
      __HAL_CRYP_DISABLE_IT(hcryp, CRYP_IT_CCFIE | CRYP_IT_ERRIE);
 8001c3a:	687b      	ldr	r3, [r7, #4]
 8001c3c:	681b      	ldr	r3, [r3, #0]
 8001c3e:	681a      	ldr	r2, [r3, #0]
 8001c40:	687b      	ldr	r3, [r7, #4]
 8001c42:	681b      	ldr	r3, [r3, #0]
 8001c44:	493e      	ldr	r1, [pc, #248]	@ (8001d40 <CRYP_AES_IT+0x1ac>)
 8001c46:	400a      	ands	r2, r1
 8001c48:	601a      	str	r2, [r3, #0]

      /* Change the CRYP state */
      hcryp->State = HAL_CRYP_STATE_READY;
 8001c4a:	687b      	ldr	r3, [r7, #4]
 8001c4c:	2251      	movs	r2, #81	@ 0x51
 8001c4e:	2101      	movs	r1, #1
 8001c50:	5499      	strb	r1, [r3, r2]

      /* Disable CRYP */
      __HAL_CRYP_DISABLE(hcryp);
 8001c52:	687b      	ldr	r3, [r7, #4]
 8001c54:	681b      	ldr	r3, [r3, #0]
 8001c56:	681a      	ldr	r2, [r3, #0]
 8001c58:	687b      	ldr	r3, [r7, #4]
 8001c5a:	681b      	ldr	r3, [r3, #0]
 8001c5c:	2101      	movs	r1, #1
 8001c5e:	438a      	bics	r2, r1
 8001c60:	601a      	str	r2, [r3, #0]

      /* Process Unlocked */
      __HAL_UNLOCK(hcryp);
 8001c62:	687b      	ldr	r3, [r7, #4]
 8001c64:	2250      	movs	r2, #80	@ 0x50
 8001c66:	2100      	movs	r1, #0
 8001c68:	5499      	strb	r1, [r3, r2]
#if (USE_HAL_CRYP_REGISTER_CALLBACKS == 1U)
      /*Call registered Output complete callback*/
      hcryp->OutCpltCallback(hcryp);
#else
      /*Call legacy weak Output complete callback*/
      HAL_CRYP_OutCpltCallback(hcryp);
 8001c6a:	687b      	ldr	r3, [r7, #4]
 8001c6c:	0018      	movs	r0, r3
 8001c6e:	f7ff fd50 	bl	8001712 <HAL_CRYP_OutCpltCallback>
#else
    /*Call legacy weak error callback*/
    HAL_CRYP_ErrorCallback(hcryp);
#endif /* USE_HAL_CRYP_REGISTER_CALLBACKS */
  }
}
 8001c72:	e060      	b.n	8001d36 <CRYP_AES_IT+0x1a2>
        hcryp->Instance->DINR  = *(uint32_t *)(hcryp->pCrypInBuffPtr + hcryp->CrypInCount);
 8001c74:	687b      	ldr	r3, [r7, #4]
 8001c76:	6b5a      	ldr	r2, [r3, #52]	@ 0x34
 8001c78:	687b      	ldr	r3, [r7, #4]
 8001c7a:	8fdb      	ldrh	r3, [r3, #62]	@ 0x3e
 8001c7c:	b29b      	uxth	r3, r3
 8001c7e:	009b      	lsls	r3, r3, #2
 8001c80:	18d2      	adds	r2, r2, r3
 8001c82:	687b      	ldr	r3, [r7, #4]
 8001c84:	681b      	ldr	r3, [r3, #0]
 8001c86:	6812      	ldr	r2, [r2, #0]
 8001c88:	609a      	str	r2, [r3, #8]
        hcryp->CrypInCount++;
 8001c8a:	687b      	ldr	r3, [r7, #4]
 8001c8c:	8fdb      	ldrh	r3, [r3, #62]	@ 0x3e
 8001c8e:	b29b      	uxth	r3, r3
 8001c90:	3301      	adds	r3, #1
 8001c92:	b29a      	uxth	r2, r3
 8001c94:	687b      	ldr	r3, [r7, #4]
 8001c96:	87da      	strh	r2, [r3, #62]	@ 0x3e
        hcryp->Instance->DINR  = *(uint32_t *)(hcryp->pCrypInBuffPtr + hcryp->CrypInCount);
 8001c98:	687b      	ldr	r3, [r7, #4]
 8001c9a:	6b5a      	ldr	r2, [r3, #52]	@ 0x34
 8001c9c:	687b      	ldr	r3, [r7, #4]
 8001c9e:	8fdb      	ldrh	r3, [r3, #62]	@ 0x3e
 8001ca0:	b29b      	uxth	r3, r3
 8001ca2:	009b      	lsls	r3, r3, #2
 8001ca4:	18d2      	adds	r2, r2, r3
 8001ca6:	687b      	ldr	r3, [r7, #4]
 8001ca8:	681b      	ldr	r3, [r3, #0]
 8001caa:	6812      	ldr	r2, [r2, #0]
 8001cac:	609a      	str	r2, [r3, #8]
        hcryp->CrypInCount++;
 8001cae:	687b      	ldr	r3, [r7, #4]
 8001cb0:	8fdb      	ldrh	r3, [r3, #62]	@ 0x3e
 8001cb2:	b29b      	uxth	r3, r3
 8001cb4:	3301      	adds	r3, #1
 8001cb6:	b29a      	uxth	r2, r3
 8001cb8:	687b      	ldr	r3, [r7, #4]
 8001cba:	87da      	strh	r2, [r3, #62]	@ 0x3e
        hcryp->Instance->DINR  = *(uint32_t *)(hcryp->pCrypInBuffPtr + hcryp->CrypInCount);
 8001cbc:	687b      	ldr	r3, [r7, #4]
 8001cbe:	6b5a      	ldr	r2, [r3, #52]	@ 0x34
 8001cc0:	687b      	ldr	r3, [r7, #4]
 8001cc2:	8fdb      	ldrh	r3, [r3, #62]	@ 0x3e
 8001cc4:	b29b      	uxth	r3, r3
 8001cc6:	009b      	lsls	r3, r3, #2
 8001cc8:	18d2      	adds	r2, r2, r3
 8001cca:	687b      	ldr	r3, [r7, #4]
 8001ccc:	681b      	ldr	r3, [r3, #0]
 8001cce:	6812      	ldr	r2, [r2, #0]
 8001cd0:	609a      	str	r2, [r3, #8]
        hcryp->CrypInCount++;
 8001cd2:	687b      	ldr	r3, [r7, #4]
 8001cd4:	8fdb      	ldrh	r3, [r3, #62]	@ 0x3e
 8001cd6:	b29b      	uxth	r3, r3
 8001cd8:	3301      	adds	r3, #1
 8001cda:	b29a      	uxth	r2, r3
 8001cdc:	687b      	ldr	r3, [r7, #4]
 8001cde:	87da      	strh	r2, [r3, #62]	@ 0x3e
        hcryp->Instance->DINR  = *(uint32_t *)(hcryp->pCrypInBuffPtr + hcryp->CrypInCount);
 8001ce0:	687b      	ldr	r3, [r7, #4]
 8001ce2:	6b5a      	ldr	r2, [r3, #52]	@ 0x34
 8001ce4:	687b      	ldr	r3, [r7, #4]
 8001ce6:	8fdb      	ldrh	r3, [r3, #62]	@ 0x3e
 8001ce8:	b29b      	uxth	r3, r3
 8001cea:	009b      	lsls	r3, r3, #2
 8001cec:	18d2      	adds	r2, r2, r3
 8001cee:	687b      	ldr	r3, [r7, #4]
 8001cf0:	681b      	ldr	r3, [r3, #0]
 8001cf2:	6812      	ldr	r2, [r2, #0]
 8001cf4:	609a      	str	r2, [r3, #8]
        hcryp->CrypInCount++;
 8001cf6:	687b      	ldr	r3, [r7, #4]
 8001cf8:	8fdb      	ldrh	r3, [r3, #62]	@ 0x3e
 8001cfa:	b29b      	uxth	r3, r3
 8001cfc:	3301      	adds	r3, #1
 8001cfe:	b29a      	uxth	r2, r3
 8001d00:	687b      	ldr	r3, [r7, #4]
 8001d02:	87da      	strh	r2, [r3, #62]	@ 0x3e
        if (hcryp->CrypInCount == (hcryp->Size / 4U))
 8001d04:	687b      	ldr	r3, [r7, #4]
 8001d06:	8fdb      	ldrh	r3, [r3, #62]	@ 0x3e
 8001d08:	b29a      	uxth	r2, r3
 8001d0a:	687b      	ldr	r3, [r7, #4]
 8001d0c:	2142      	movs	r1, #66	@ 0x42
 8001d0e:	5a5b      	ldrh	r3, [r3, r1]
 8001d10:	089b      	lsrs	r3, r3, #2
 8001d12:	b29b      	uxth	r3, r3
 8001d14:	429a      	cmp	r2, r3
 8001d16:	d10e      	bne.n	8001d36 <CRYP_AES_IT+0x1a2>
          HAL_CRYP_InCpltCallback(hcryp);
 8001d18:	687b      	ldr	r3, [r7, #4]
 8001d1a:	0018      	movs	r0, r3
 8001d1c:	f7ff fcf1 	bl	8001702 <HAL_CRYP_InCpltCallback>
}
 8001d20:	e009      	b.n	8001d36 <CRYP_AES_IT+0x1a2>
    hcryp->ErrorCode |= HAL_CRYP_ERROR_BUSY;
 8001d22:	687b      	ldr	r3, [r7, #4]
 8001d24:	6d5b      	ldr	r3, [r3, #84]	@ 0x54
 8001d26:	2208      	movs	r2, #8
 8001d28:	431a      	orrs	r2, r3
 8001d2a:	687b      	ldr	r3, [r7, #4]
 8001d2c:	655a      	str	r2, [r3, #84]	@ 0x54
    HAL_CRYP_ErrorCallback(hcryp);
 8001d2e:	687b      	ldr	r3, [r7, #4]
 8001d30:	0018      	movs	r0, r3
 8001d32:	f7ff fcf6 	bl	8001722 <HAL_CRYP_ErrorCallback>
}
 8001d36:	46c0      	nop			@ (mov r8, r8)
 8001d38:	46bd      	mov	sp, r7
 8001d3a:	b008      	add	sp, #32
 8001d3c:	bd80      	pop	{r7, pc}
 8001d3e:	46c0      	nop			@ (mov r8, r8)
 8001d40:	fffff9ff 	.word	0xfffff9ff

08001d44 <CRYP_SetKey>:
  * @note   If pKey is NULL, the Key registers are not written. This configuration
  *         occurs when the key is written out of HAL scope.
  * @retval None
  */
static void CRYP_SetKey(CRYP_HandleTypeDef *hcryp, uint32_t KeySize)
{
 8001d44:	b580      	push	{r7, lr}
 8001d46:	b082      	sub	sp, #8
 8001d48:	af00      	add	r7, sp, #0
 8001d4a:	6078      	str	r0, [r7, #4]
 8001d4c:	6039      	str	r1, [r7, #0]
  if (hcryp->Init.pKey != NULL)
 8001d4e:	687b      	ldr	r3, [r7, #4]
 8001d50:	68db      	ldr	r3, [r3, #12]
 8001d52:	2b00      	cmp	r3, #0
 8001d54:	d052      	beq.n	8001dfc <CRYP_SetKey+0xb8>
  {
    switch (KeySize)
 8001d56:	683b      	ldr	r3, [r7, #0]
 8001d58:	2b00      	cmp	r3, #0
 8001d5a:	d035      	beq.n	8001dc8 <CRYP_SetKey+0x84>
 8001d5c:	683a      	ldr	r2, [r7, #0]
 8001d5e:	2380      	movs	r3, #128	@ 0x80
 8001d60:	02db      	lsls	r3, r3, #11
 8001d62:	429a      	cmp	r2, r3
 8001d64:	d149      	bne.n	8001dfa <CRYP_SetKey+0xb6>
    {
      case CRYP_KEYSIZE_256B:
        hcryp->Instance->KEYR7 = *(uint32_t *)(hcryp->Init.pKey);
 8001d66:	687b      	ldr	r3, [r7, #4]
 8001d68:	68da      	ldr	r2, [r3, #12]
 8001d6a:	687b      	ldr	r3, [r7, #4]
 8001d6c:	681b      	ldr	r3, [r3, #0]
 8001d6e:	6812      	ldr	r2, [r2, #0]
 8001d70:	63da      	str	r2, [r3, #60]	@ 0x3c
        hcryp->Instance->KEYR6 = *(uint32_t *)(hcryp->Init.pKey + 1U);
 8001d72:	687b      	ldr	r3, [r7, #4]
 8001d74:	68da      	ldr	r2, [r3, #12]
 8001d76:	687b      	ldr	r3, [r7, #4]
 8001d78:	681b      	ldr	r3, [r3, #0]
 8001d7a:	6852      	ldr	r2, [r2, #4]
 8001d7c:	639a      	str	r2, [r3, #56]	@ 0x38
        hcryp->Instance->KEYR5 = *(uint32_t *)(hcryp->Init.pKey + 2U);
 8001d7e:	687b      	ldr	r3, [r7, #4]
 8001d80:	68da      	ldr	r2, [r3, #12]
 8001d82:	687b      	ldr	r3, [r7, #4]
 8001d84:	681b      	ldr	r3, [r3, #0]
 8001d86:	6892      	ldr	r2, [r2, #8]
 8001d88:	635a      	str	r2, [r3, #52]	@ 0x34
        hcryp->Instance->KEYR4 = *(uint32_t *)(hcryp->Init.pKey + 3U);
 8001d8a:	687b      	ldr	r3, [r7, #4]
 8001d8c:	68da      	ldr	r2, [r3, #12]
 8001d8e:	687b      	ldr	r3, [r7, #4]
 8001d90:	681b      	ldr	r3, [r3, #0]
 8001d92:	68d2      	ldr	r2, [r2, #12]
 8001d94:	631a      	str	r2, [r3, #48]	@ 0x30
        hcryp->Instance->KEYR3 = *(uint32_t *)(hcryp->Init.pKey + 4U);
 8001d96:	687b      	ldr	r3, [r7, #4]
 8001d98:	68da      	ldr	r2, [r3, #12]
 8001d9a:	687b      	ldr	r3, [r7, #4]
 8001d9c:	681b      	ldr	r3, [r3, #0]
 8001d9e:	6912      	ldr	r2, [r2, #16]
 8001da0:	61da      	str	r2, [r3, #28]
        hcryp->Instance->KEYR2 = *(uint32_t *)(hcryp->Init.pKey + 5U);
 8001da2:	687b      	ldr	r3, [r7, #4]
 8001da4:	68da      	ldr	r2, [r3, #12]
 8001da6:	687b      	ldr	r3, [r7, #4]
 8001da8:	681b      	ldr	r3, [r3, #0]
 8001daa:	6952      	ldr	r2, [r2, #20]
 8001dac:	619a      	str	r2, [r3, #24]
        hcryp->Instance->KEYR1 = *(uint32_t *)(hcryp->Init.pKey + 6U);
 8001dae:	687b      	ldr	r3, [r7, #4]
 8001db0:	68da      	ldr	r2, [r3, #12]
 8001db2:	687b      	ldr	r3, [r7, #4]
 8001db4:	681b      	ldr	r3, [r3, #0]
 8001db6:	6992      	ldr	r2, [r2, #24]
 8001db8:	615a      	str	r2, [r3, #20]
        hcryp->Instance->KEYR0 = *(uint32_t *)(hcryp->Init.pKey + 7U);
 8001dba:	687b      	ldr	r3, [r7, #4]
 8001dbc:	68da      	ldr	r2, [r3, #12]
 8001dbe:	687b      	ldr	r3, [r7, #4]
 8001dc0:	681b      	ldr	r3, [r3, #0]
 8001dc2:	69d2      	ldr	r2, [r2, #28]
 8001dc4:	611a      	str	r2, [r3, #16]
        break;
 8001dc6:	e019      	b.n	8001dfc <CRYP_SetKey+0xb8>
      case CRYP_KEYSIZE_128B:
        hcryp->Instance->KEYR3 = *(uint32_t *)(hcryp->Init.pKey);
 8001dc8:	687b      	ldr	r3, [r7, #4]
 8001dca:	68da      	ldr	r2, [r3, #12]
 8001dcc:	687b      	ldr	r3, [r7, #4]
 8001dce:	681b      	ldr	r3, [r3, #0]
 8001dd0:	6812      	ldr	r2, [r2, #0]
 8001dd2:	61da      	str	r2, [r3, #28]
        hcryp->Instance->KEYR2 = *(uint32_t *)(hcryp->Init.pKey + 1U);
 8001dd4:	687b      	ldr	r3, [r7, #4]
 8001dd6:	68da      	ldr	r2, [r3, #12]
 8001dd8:	687b      	ldr	r3, [r7, #4]
 8001dda:	681b      	ldr	r3, [r3, #0]
 8001ddc:	6852      	ldr	r2, [r2, #4]
 8001dde:	619a      	str	r2, [r3, #24]
        hcryp->Instance->KEYR1 = *(uint32_t *)(hcryp->Init.pKey + 2U);
 8001de0:	687b      	ldr	r3, [r7, #4]
 8001de2:	68da      	ldr	r2, [r3, #12]
 8001de4:	687b      	ldr	r3, [r7, #4]
 8001de6:	681b      	ldr	r3, [r3, #0]
 8001de8:	6892      	ldr	r2, [r2, #8]
 8001dea:	615a      	str	r2, [r3, #20]
        hcryp->Instance->KEYR0 = *(uint32_t *)(hcryp->Init.pKey + 3U);
 8001dec:	687b      	ldr	r3, [r7, #4]
 8001dee:	68da      	ldr	r2, [r3, #12]
 8001df0:	687b      	ldr	r3, [r7, #4]
 8001df2:	681b      	ldr	r3, [r3, #0]
 8001df4:	68d2      	ldr	r2, [r2, #12]
 8001df6:	611a      	str	r2, [r3, #16]

        break;
 8001df8:	e000      	b.n	8001dfc <CRYP_SetKey+0xb8>
      default:
        break;
 8001dfa:	46c0      	nop			@ (mov r8, r8)
    }
  }
}
 8001dfc:	46c0      	nop			@ (mov r8, r8)
 8001dfe:	46bd      	mov	sp, r7
 8001e00:	b002      	add	sp, #8
 8001e02:	bd80      	pop	{r7, pc}

08001e04 <CRYP_AESGCM_Process>:
  *         the configuration information for CRYP module
  * @param  Timeout Timeout duration
  * @retval HAL status
  */
static HAL_StatusTypeDef CRYP_AESGCM_Process(CRYP_HandleTypeDef *hcryp, uint32_t Timeout)
{
 8001e04:	b580      	push	{r7, lr}
 8001e06:	b08e      	sub	sp, #56	@ 0x38
 8001e08:	af00      	add	r7, sp, #0
 8001e0a:	6078      	str	r0, [r7, #4]
 8001e0c:	6039      	str	r1, [r7, #0]
  uint32_t tickstart;
  uint32_t wordsize = ((uint32_t)hcryp->Size / 4U) ;
 8001e0e:	687b      	ldr	r3, [r7, #4]
 8001e10:	2242      	movs	r2, #66	@ 0x42
 8001e12:	5a9b      	ldrh	r3, [r3, r2]
 8001e14:	089b      	lsrs	r3, r3, #2
 8001e16:	b29b      	uxth	r3, r3
 8001e18:	637b      	str	r3, [r7, #52]	@ 0x34
  uint32_t temp[4];  /* Temporary CrypOutBuff */
  uint32_t index;
  uint32_t lastwordsize;
  uint32_t incount;  /* Temporary CrypInCount Value */
  uint32_t outcount;  /* Temporary CrypOutCount Value */
  uint32_t DoKeyIVConfig = 1U; /* By default, carry out peripheral Key and IV configuration */
 8001e1a:	2301      	movs	r3, #1
 8001e1c:	623b      	str	r3, [r7, #32]

  if (hcryp->Init.KeyIVConfigSkip == CRYP_KEYIVCONFIG_ONCE)
 8001e1e:	687b      	ldr	r3, [r7, #4]
 8001e20:	6adb      	ldr	r3, [r3, #44]	@ 0x2c
 8001e22:	2b01      	cmp	r3, #1
 8001e24:	d118      	bne.n	8001e58 <CRYP_AESGCM_Process+0x54>
  {
    if (hcryp->KeyIVConfig == 1U)
 8001e26:	687b      	ldr	r3, [r7, #4]
 8001e28:	6d9b      	ldr	r3, [r3, #88]	@ 0x58
 8001e2a:	2b01      	cmp	r3, #1
 8001e2c:	d10a      	bne.n	8001e44 <CRYP_AESGCM_Process+0x40>
    {
      /* If the Key and IV configuration has to be done only once
         and if it has already been done, skip it */
      DoKeyIVConfig = 0U;
 8001e2e:	2300      	movs	r3, #0
 8001e30:	623b      	str	r3, [r7, #32]
      hcryp->SizesSum += hcryp->Size; /* Compute message total payload length */
 8001e32:	687b      	ldr	r3, [r7, #4]
 8001e34:	6ddb      	ldr	r3, [r3, #92]	@ 0x5c
 8001e36:	687a      	ldr	r2, [r7, #4]
 8001e38:	2142      	movs	r1, #66	@ 0x42
 8001e3a:	5a52      	ldrh	r2, [r2, r1]
 8001e3c:	189a      	adds	r2, r3, r2
 8001e3e:	687b      	ldr	r3, [r7, #4]
 8001e40:	65da      	str	r2, [r3, #92]	@ 0x5c
 8001e42:	e00f      	b.n	8001e64 <CRYP_AESGCM_Process+0x60>
    else
    {
      /* If the Key and IV configuration has to be done only once
         and if it has not been done already, do it and set KeyIVConfig
         to keep track it won't have to be done again next time */
      hcryp->KeyIVConfig = 1U;
 8001e44:	687b      	ldr	r3, [r7, #4]
 8001e46:	2201      	movs	r2, #1
 8001e48:	659a      	str	r2, [r3, #88]	@ 0x58
      hcryp->SizesSum = hcryp->Size; /* Merely store payload length */
 8001e4a:	687b      	ldr	r3, [r7, #4]
 8001e4c:	2242      	movs	r2, #66	@ 0x42
 8001e4e:	5a9b      	ldrh	r3, [r3, r2]
 8001e50:	001a      	movs	r2, r3
 8001e52:	687b      	ldr	r3, [r7, #4]
 8001e54:	65da      	str	r2, [r3, #92]	@ 0x5c
 8001e56:	e005      	b.n	8001e64 <CRYP_AESGCM_Process+0x60>
    }
  }
  else
  {
    hcryp->SizesSum = hcryp->Size;
 8001e58:	687b      	ldr	r3, [r7, #4]
 8001e5a:	2242      	movs	r2, #66	@ 0x42
 8001e5c:	5a9b      	ldrh	r3, [r3, r2]
 8001e5e:	001a      	movs	r2, r3
 8001e60:	687b      	ldr	r3, [r7, #4]
 8001e62:	65da      	str	r2, [r3, #92]	@ 0x5c
  }

  if (DoKeyIVConfig == 1U)
 8001e64:	6a3b      	ldr	r3, [r7, #32]
 8001e66:	2b01      	cmp	r3, #1
 8001e68:	d171      	bne.n	8001f4e <CRYP_AESGCM_Process+0x14a>
  {

    /*  Reset CrypHeaderCount */
    hcryp->CrypHeaderCount = 0U;
 8001e6a:	687b      	ldr	r3, [r7, #4]
 8001e6c:	2200      	movs	r2, #0
 8001e6e:	879a      	strh	r2, [r3, #60]	@ 0x3c

    /****************************** Init phase **********************************/

    CRYP_SET_PHASE(hcryp, CRYP_PHASE_INIT);
 8001e70:	687b      	ldr	r3, [r7, #4]
 8001e72:	681b      	ldr	r3, [r3, #0]
 8001e74:	681a      	ldr	r2, [r3, #0]
 8001e76:	687b      	ldr	r3, [r7, #4]
 8001e78:	681b      	ldr	r3, [r3, #0]
 8001e7a:	49b9      	ldr	r1, [pc, #740]	@ (8002160 <CRYP_AESGCM_Process+0x35c>)
 8001e7c:	400a      	ands	r2, r1
 8001e7e:	601a      	str	r2, [r3, #0]

    /* Set the key */
    CRYP_SetKey(hcryp, hcryp->Init.KeySize);
 8001e80:	687b      	ldr	r3, [r7, #4]
 8001e82:	689a      	ldr	r2, [r3, #8]
 8001e84:	687b      	ldr	r3, [r7, #4]
 8001e86:	0011      	movs	r1, r2
 8001e88:	0018      	movs	r0, r3
 8001e8a:	f7ff ff5b 	bl	8001d44 <CRYP_SetKey>

    /* Set the initialization vector and the counter : Initial Counter Block (ICB)*/
    hcryp->Instance->IVR3 = *(uint32_t *)(hcryp->Init.pInitVect);
 8001e8e:	687b      	ldr	r3, [r7, #4]
 8001e90:	691a      	ldr	r2, [r3, #16]
 8001e92:	687b      	ldr	r3, [r7, #4]
 8001e94:	681b      	ldr	r3, [r3, #0]
 8001e96:	6812      	ldr	r2, [r2, #0]
 8001e98:	62da      	str	r2, [r3, #44]	@ 0x2c
    hcryp->Instance->IVR2 = *(uint32_t *)(hcryp->Init.pInitVect + 1U);
 8001e9a:	687b      	ldr	r3, [r7, #4]
 8001e9c:	691a      	ldr	r2, [r3, #16]
 8001e9e:	687b      	ldr	r3, [r7, #4]
 8001ea0:	681b      	ldr	r3, [r3, #0]
 8001ea2:	6852      	ldr	r2, [r2, #4]
 8001ea4:	629a      	str	r2, [r3, #40]	@ 0x28
    hcryp->Instance->IVR1 = *(uint32_t *)(hcryp->Init.pInitVect + 2U);
 8001ea6:	687b      	ldr	r3, [r7, #4]
 8001ea8:	691a      	ldr	r2, [r3, #16]
 8001eaa:	687b      	ldr	r3, [r7, #4]
 8001eac:	681b      	ldr	r3, [r3, #0]
 8001eae:	6892      	ldr	r2, [r2, #8]
 8001eb0:	625a      	str	r2, [r3, #36]	@ 0x24
    hcryp->Instance->IVR0 = *(uint32_t *)(hcryp->Init.pInitVect + 3U);
 8001eb2:	687b      	ldr	r3, [r7, #4]
 8001eb4:	691a      	ldr	r2, [r3, #16]
 8001eb6:	687b      	ldr	r3, [r7, #4]
 8001eb8:	681b      	ldr	r3, [r3, #0]
 8001eba:	68d2      	ldr	r2, [r2, #12]
 8001ebc:	621a      	str	r2, [r3, #32]

    /* Enable the CRYP peripheral */
    __HAL_CRYP_ENABLE(hcryp);
 8001ebe:	687b      	ldr	r3, [r7, #4]
 8001ec0:	681b      	ldr	r3, [r3, #0]
 8001ec2:	681a      	ldr	r2, [r3, #0]
 8001ec4:	687b      	ldr	r3, [r7, #4]
 8001ec6:	681b      	ldr	r3, [r3, #0]
 8001ec8:	2101      	movs	r1, #1
 8001eca:	430a      	orrs	r2, r1
 8001ecc:	601a      	str	r2, [r3, #0]

    /* just wait for hash computation */
    if (CRYP_WaitOnCCFlag(hcryp, Timeout) != HAL_OK)
 8001ece:	683a      	ldr	r2, [r7, #0]
 8001ed0:	687b      	ldr	r3, [r7, #4]
 8001ed2:	0011      	movs	r1, r2
 8001ed4:	0018      	movs	r0, r3
 8001ed6:	f001 f80d 	bl	8002ef4 <CRYP_WaitOnCCFlag>
 8001eda:	1e03      	subs	r3, r0, #0
 8001edc:	d00f      	beq.n	8001efe <CRYP_AESGCM_Process+0xfa>
    {
      /* Change state */
      hcryp->ErrorCode |= HAL_CRYP_ERROR_TIMEOUT;
 8001ede:	687b      	ldr	r3, [r7, #4]
 8001ee0:	6d5b      	ldr	r3, [r3, #84]	@ 0x54
 8001ee2:	2210      	movs	r2, #16
 8001ee4:	431a      	orrs	r2, r3
 8001ee6:	687b      	ldr	r3, [r7, #4]
 8001ee8:	655a      	str	r2, [r3, #84]	@ 0x54
      hcryp->State = HAL_CRYP_STATE_READY;
 8001eea:	687b      	ldr	r3, [r7, #4]
 8001eec:	2251      	movs	r2, #81	@ 0x51
 8001eee:	2101      	movs	r1, #1
 8001ef0:	5499      	strb	r1, [r3, r2]

      /* Process unlocked & return error */
      __HAL_UNLOCK(hcryp);
 8001ef2:	687b      	ldr	r3, [r7, #4]
 8001ef4:	2250      	movs	r2, #80	@ 0x50
 8001ef6:	2100      	movs	r1, #0
 8001ef8:	5499      	strb	r1, [r3, r2]
      return HAL_ERROR;
 8001efa:	2301      	movs	r3, #1
 8001efc:	e12b      	b.n	8002156 <CRYP_AESGCM_Process+0x352>
    }
    /* Clear CCF flag */
    __HAL_CRYP_CLEAR_FLAG(hcryp, CRYP_CCF_CLEAR);
 8001efe:	687b      	ldr	r3, [r7, #4]
 8001f00:	681b      	ldr	r3, [r3, #0]
 8001f02:	681a      	ldr	r2, [r3, #0]
 8001f04:	687b      	ldr	r3, [r7, #4]
 8001f06:	681b      	ldr	r3, [r3, #0]
 8001f08:	2180      	movs	r1, #128	@ 0x80
 8001f0a:	430a      	orrs	r2, r1
 8001f0c:	601a      	str	r2, [r3, #0]

    /************************ Header phase *************************************/

    if (CRYP_GCMCCM_SetHeaderPhase(hcryp,  Timeout) != HAL_OK)
 8001f0e:	683a      	ldr	r2, [r7, #0]
 8001f10:	687b      	ldr	r3, [r7, #4]
 8001f12:	0011      	movs	r1, r2
 8001f14:	0018      	movs	r0, r3
 8001f16:	f000 fc37 	bl	8002788 <CRYP_GCMCCM_SetHeaderPhase>
 8001f1a:	1e03      	subs	r3, r0, #0
 8001f1c:	d001      	beq.n	8001f22 <CRYP_AESGCM_Process+0x11e>
    {
      return HAL_ERROR;
 8001f1e:	2301      	movs	r3, #1
 8001f20:	e119      	b.n	8002156 <CRYP_AESGCM_Process+0x352>
    }

    /*************************Payload phase ************************************/

    /* Set the phase */
    hcryp->Phase = CRYP_PHASE_PROCESS;
 8001f22:	687b      	ldr	r3, [r7, #4]
 8001f24:	2202      	movs	r2, #2
 8001f26:	645a      	str	r2, [r3, #68]	@ 0x44

    /* Select payload phase once the header phase is performed */
    CRYP_SET_PHASE(hcryp, CRYP_PHASE_PAYLOAD);
 8001f28:	687b      	ldr	r3, [r7, #4]
 8001f2a:	681b      	ldr	r3, [r3, #0]
 8001f2c:	681b      	ldr	r3, [r3, #0]
 8001f2e:	4a8c      	ldr	r2, [pc, #560]	@ (8002160 <CRYP_AESGCM_Process+0x35c>)
 8001f30:	401a      	ands	r2, r3
 8001f32:	687b      	ldr	r3, [r7, #4]
 8001f34:	681b      	ldr	r3, [r3, #0]
 8001f36:	2180      	movs	r1, #128	@ 0x80
 8001f38:	01c9      	lsls	r1, r1, #7
 8001f3a:	430a      	orrs	r2, r1
 8001f3c:	601a      	str	r2, [r3, #0]

    /* Set to 0 the number of non-valid bytes using NPBLB register*/
    MODIFY_REG(hcryp->Instance->CR, AES_CR_NPBLB, 0U);
 8001f3e:	687b      	ldr	r3, [r7, #4]
 8001f40:	681b      	ldr	r3, [r3, #0]
 8001f42:	681a      	ldr	r2, [r3, #0]
 8001f44:	687b      	ldr	r3, [r7, #4]
 8001f46:	681b      	ldr	r3, [r3, #0]
 8001f48:	4986      	ldr	r1, [pc, #536]	@ (8002164 <CRYP_AESGCM_Process+0x360>)
 8001f4a:	400a      	ands	r2, r1
 8001f4c:	601a      	str	r2, [r3, #0]

  } /* if (DoKeyIVConfig == 1U) */

  if ((hcryp->Size % 16U) != 0U)
 8001f4e:	687b      	ldr	r3, [r7, #4]
 8001f50:	2242      	movs	r2, #66	@ 0x42
 8001f52:	5a9b      	ldrh	r3, [r3, r2]
 8001f54:	220f      	movs	r2, #15
 8001f56:	4013      	ands	r3, r2
 8001f58:	b29b      	uxth	r3, r3
 8001f5a:	2b00      	cmp	r3, #0
 8001f5c:	d003      	beq.n	8001f66 <CRYP_AESGCM_Process+0x162>
  {
    /* recalculate  wordsize */
    wordsize = ((wordsize / 4U) * 4U) ;
 8001f5e:	6b7b      	ldr	r3, [r7, #52]	@ 0x34
 8001f60:	2203      	movs	r2, #3
 8001f62:	4393      	bics	r3, r2
 8001f64:	637b      	str	r3, [r7, #52]	@ 0x34
  }

  /* Get tick */
  tickstart = HAL_GetTick();
 8001f66:	f7ff f8af 	bl	80010c8 <HAL_GetTick>
 8001f6a:	0003      	movs	r3, r0
 8001f6c:	61fb      	str	r3, [r7, #28]

  /* Write input data and get output Data */
  incount = hcryp->CrypInCount;
 8001f6e:	687b      	ldr	r3, [r7, #4]
 8001f70:	8fdb      	ldrh	r3, [r3, #62]	@ 0x3e
 8001f72:	b29b      	uxth	r3, r3
 8001f74:	62bb      	str	r3, [r7, #40]	@ 0x28
  outcount = hcryp->CrypOutCount;
 8001f76:	687b      	ldr	r3, [r7, #4]
 8001f78:	2240      	movs	r2, #64	@ 0x40
 8001f7a:	5a9b      	ldrh	r3, [r3, r2]
 8001f7c:	b29b      	uxth	r3, r3
 8001f7e:	627b      	str	r3, [r7, #36]	@ 0x24
  while ((incount < wordsize) && (outcount < wordsize))
 8001f80:	e034      	b.n	8001fec <CRYP_AESGCM_Process+0x1e8>
  {
    /* Write plain data and get cipher data */
    CRYP_AES_ProcessData(hcryp, Timeout);
 8001f82:	683a      	ldr	r2, [r7, #0]
 8001f84:	687b      	ldr	r3, [r7, #4]
 8001f86:	0011      	movs	r1, r2
 8001f88:	0018      	movs	r0, r3
 8001f8a:	f7ff fd4a 	bl	8001a22 <CRYP_AES_ProcessData>

    /* Check for the Timeout */
    if (Timeout != HAL_MAX_DELAY)
 8001f8e:	683b      	ldr	r3, [r7, #0]
 8001f90:	3301      	adds	r3, #1
 8001f92:	d022      	beq.n	8001fda <CRYP_AESGCM_Process+0x1d6>
    {
      if (((HAL_GetTick() - tickstart) > Timeout) || (Timeout == 0U))
 8001f94:	f7ff f898 	bl	80010c8 <HAL_GetTick>
 8001f98:	0002      	movs	r2, r0
 8001f9a:	69fb      	ldr	r3, [r7, #28]
 8001f9c:	1ad3      	subs	r3, r2, r3
 8001f9e:	683a      	ldr	r2, [r7, #0]
 8001fa0:	429a      	cmp	r2, r3
 8001fa2:	d302      	bcc.n	8001faa <CRYP_AESGCM_Process+0x1a6>
 8001fa4:	683b      	ldr	r3, [r7, #0]
 8001fa6:	2b00      	cmp	r3, #0
 8001fa8:	d117      	bne.n	8001fda <CRYP_AESGCM_Process+0x1d6>
      {
        /* Disable the CRYP peripheral clock */
        __HAL_CRYP_DISABLE(hcryp);
 8001faa:	687b      	ldr	r3, [r7, #4]
 8001fac:	681b      	ldr	r3, [r3, #0]
 8001fae:	681a      	ldr	r2, [r3, #0]
 8001fb0:	687b      	ldr	r3, [r7, #4]
 8001fb2:	681b      	ldr	r3, [r3, #0]
 8001fb4:	2101      	movs	r1, #1
 8001fb6:	438a      	bics	r2, r1
 8001fb8:	601a      	str	r2, [r3, #0]

        /* Change state & error code */
        hcryp->ErrorCode |= HAL_CRYP_ERROR_TIMEOUT;
 8001fba:	687b      	ldr	r3, [r7, #4]
 8001fbc:	6d5b      	ldr	r3, [r3, #84]	@ 0x54
 8001fbe:	2210      	movs	r2, #16
 8001fc0:	431a      	orrs	r2, r3
 8001fc2:	687b      	ldr	r3, [r7, #4]
 8001fc4:	655a      	str	r2, [r3, #84]	@ 0x54
        hcryp->State = HAL_CRYP_STATE_READY;
 8001fc6:	687b      	ldr	r3, [r7, #4]
 8001fc8:	2251      	movs	r2, #81	@ 0x51
 8001fca:	2101      	movs	r1, #1
 8001fcc:	5499      	strb	r1, [r3, r2]

        /* Process unlocked */
        __HAL_UNLOCK(hcryp);
 8001fce:	687b      	ldr	r3, [r7, #4]
 8001fd0:	2250      	movs	r2, #80	@ 0x50
 8001fd2:	2100      	movs	r1, #0
 8001fd4:	5499      	strb	r1, [r3, r2]
        return HAL_ERROR;
 8001fd6:	2301      	movs	r3, #1
 8001fd8:	e0bd      	b.n	8002156 <CRYP_AESGCM_Process+0x352>
      }
    }
    incount = hcryp->CrypInCount;
 8001fda:	687b      	ldr	r3, [r7, #4]
 8001fdc:	8fdb      	ldrh	r3, [r3, #62]	@ 0x3e
 8001fde:	b29b      	uxth	r3, r3
 8001fe0:	62bb      	str	r3, [r7, #40]	@ 0x28
    outcount = hcryp->CrypOutCount;
 8001fe2:	687b      	ldr	r3, [r7, #4]
 8001fe4:	2240      	movs	r2, #64	@ 0x40
 8001fe6:	5a9b      	ldrh	r3, [r3, r2]
 8001fe8:	b29b      	uxth	r3, r3
 8001fea:	627b      	str	r3, [r7, #36]	@ 0x24
  while ((incount < wordsize) && (outcount < wordsize))
 8001fec:	6aba      	ldr	r2, [r7, #40]	@ 0x28
 8001fee:	6b7b      	ldr	r3, [r7, #52]	@ 0x34
 8001ff0:	429a      	cmp	r2, r3
 8001ff2:	d203      	bcs.n	8001ffc <CRYP_AESGCM_Process+0x1f8>
 8001ff4:	6a7a      	ldr	r2, [r7, #36]	@ 0x24
 8001ff6:	6b7b      	ldr	r3, [r7, #52]	@ 0x34
 8001ff8:	429a      	cmp	r2, r3
 8001ffa:	d3c2      	bcc.n	8001f82 <CRYP_AESGCM_Process+0x17e>
  }

  if ((hcryp->Size % 16U) != 0U)
 8001ffc:	687b      	ldr	r3, [r7, #4]
 8001ffe:	2242      	movs	r2, #66	@ 0x42
 8002000:	5a9b      	ldrh	r3, [r3, r2]
 8002002:	220f      	movs	r2, #15
 8002004:	4013      	ands	r3, r2
 8002006:	b29b      	uxth	r3, r3
 8002008:	2b00      	cmp	r3, #0
 800200a:	d100      	bne.n	800200e <CRYP_AESGCM_Process+0x20a>
 800200c:	e0a2      	b.n	8002154 <CRYP_AESGCM_Process+0x350>
  {
    /* Compute the number of padding bytes in last block of payload */
    npblb = ((((uint32_t)hcryp->Size / 16U) + 1U) * 16U) - ((uint32_t)hcryp->Size);
 800200e:	687b      	ldr	r3, [r7, #4]
 8002010:	2242      	movs	r2, #66	@ 0x42
 8002012:	5a9b      	ldrh	r3, [r3, r2]
 8002014:	091b      	lsrs	r3, r3, #4
 8002016:	b29b      	uxth	r3, r3
 8002018:	3301      	adds	r3, #1
 800201a:	011b      	lsls	r3, r3, #4
 800201c:	687a      	ldr	r2, [r7, #4]
 800201e:	2142      	movs	r1, #66	@ 0x42
 8002020:	5a52      	ldrh	r2, [r2, r1]
 8002022:	1a9b      	subs	r3, r3, r2
 8002024:	61bb      	str	r3, [r7, #24]

    /*  Set Npblb in case of AES GCM payload encryption to get right tag*/
    if ((hcryp->Instance->CR & AES_CR_MODE) == CRYP_OPERATINGMODE_ENCRYPT)
 8002026:	687b      	ldr	r3, [r7, #4]
 8002028:	681b      	ldr	r3, [r3, #0]
 800202a:	681b      	ldr	r3, [r3, #0]
 800202c:	2218      	movs	r2, #24
 800202e:	4013      	ands	r3, r2
 8002030:	d10b      	bne.n	800204a <CRYP_AESGCM_Process+0x246>
    {
      /* Set to 0 the number of non-valid bytes using NPBLB register*/
      MODIFY_REG(hcryp->Instance->CR, AES_CR_NPBLB, npblb << 20U);
 8002032:	687b      	ldr	r3, [r7, #4]
 8002034:	681b      	ldr	r3, [r3, #0]
 8002036:	681b      	ldr	r3, [r3, #0]
 8002038:	4a4a      	ldr	r2, [pc, #296]	@ (8002164 <CRYP_AESGCM_Process+0x360>)
 800203a:	4013      	ands	r3, r2
 800203c:	0019      	movs	r1, r3
 800203e:	69bb      	ldr	r3, [r7, #24]
 8002040:	051a      	lsls	r2, r3, #20
 8002042:	687b      	ldr	r3, [r7, #4]
 8002044:	681b      	ldr	r3, [r3, #0]
 8002046:	430a      	orrs	r2, r1
 8002048:	601a      	str	r2, [r3, #0]
    }
    /* Number of valid words (lastwordsize) in last block */
    if ((npblb % 4U) == 0U)
 800204a:	69bb      	ldr	r3, [r7, #24]
 800204c:	2203      	movs	r2, #3
 800204e:	4013      	ands	r3, r2
 8002050:	d105      	bne.n	800205e <CRYP_AESGCM_Process+0x25a>
    {
      lastwordsize = (16U - npblb) / 4U;
 8002052:	69bb      	ldr	r3, [r7, #24]
 8002054:	2210      	movs	r2, #16
 8002056:	1ad3      	subs	r3, r2, r3
 8002058:	089b      	lsrs	r3, r3, #2
 800205a:	62fb      	str	r3, [r7, #44]	@ 0x2c
 800205c:	e005      	b.n	800206a <CRYP_AESGCM_Process+0x266>
    }
    else
    {
      lastwordsize = ((16U - npblb) / 4U) + 1U;
 800205e:	69bb      	ldr	r3, [r7, #24]
 8002060:	2210      	movs	r2, #16
 8002062:	1ad3      	subs	r3, r2, r3
 8002064:	089b      	lsrs	r3, r3, #2
 8002066:	3301      	adds	r3, #1
 8002068:	62fb      	str	r3, [r7, #44]	@ 0x2c
    }
    /*  last block optionally pad the data with zeros*/
    for (index = 0U; index < lastwordsize; index ++)
 800206a:	2300      	movs	r3, #0
 800206c:	633b      	str	r3, [r7, #48]	@ 0x30
 800206e:	e014      	b.n	800209a <CRYP_AESGCM_Process+0x296>
    {
      /* Write the last Input block in the IN FIFO */
      hcryp->Instance->DINR  = *(uint32_t *)(hcryp->pCrypInBuffPtr + hcryp->CrypInCount);
 8002070:	687b      	ldr	r3, [r7, #4]
 8002072:	6b5a      	ldr	r2, [r3, #52]	@ 0x34
 8002074:	687b      	ldr	r3, [r7, #4]
 8002076:	8fdb      	ldrh	r3, [r3, #62]	@ 0x3e
 8002078:	b29b      	uxth	r3, r3
 800207a:	009b      	lsls	r3, r3, #2
 800207c:	18d2      	adds	r2, r2, r3
 800207e:	687b      	ldr	r3, [r7, #4]
 8002080:	681b      	ldr	r3, [r3, #0]
 8002082:	6812      	ldr	r2, [r2, #0]
 8002084:	609a      	str	r2, [r3, #8]
      hcryp->CrypInCount++;
 8002086:	687b      	ldr	r3, [r7, #4]
 8002088:	8fdb      	ldrh	r3, [r3, #62]	@ 0x3e
 800208a:	b29b      	uxth	r3, r3
 800208c:	3301      	adds	r3, #1
 800208e:	b29a      	uxth	r2, r3
 8002090:	687b      	ldr	r3, [r7, #4]
 8002092:	87da      	strh	r2, [r3, #62]	@ 0x3e
    for (index = 0U; index < lastwordsize; index ++)
 8002094:	6b3b      	ldr	r3, [r7, #48]	@ 0x30
 8002096:	3301      	adds	r3, #1
 8002098:	633b      	str	r3, [r7, #48]	@ 0x30
 800209a:	6b3a      	ldr	r2, [r7, #48]	@ 0x30
 800209c:	6afb      	ldr	r3, [r7, #44]	@ 0x2c
 800209e:	429a      	cmp	r2, r3
 80020a0:	d3e6      	bcc.n	8002070 <CRYP_AESGCM_Process+0x26c>
    }
    while (index < 4U)
 80020a2:	e006      	b.n	80020b2 <CRYP_AESGCM_Process+0x2ae>
    {
      /* pad the data with zeros to have a complete block */
      hcryp->Instance->DINR  = 0U;
 80020a4:	687b      	ldr	r3, [r7, #4]
 80020a6:	681b      	ldr	r3, [r3, #0]
 80020a8:	2200      	movs	r2, #0
 80020aa:	609a      	str	r2, [r3, #8]
      index++;
 80020ac:	6b3b      	ldr	r3, [r7, #48]	@ 0x30
 80020ae:	3301      	adds	r3, #1
 80020b0:	633b      	str	r3, [r7, #48]	@ 0x30
    while (index < 4U)
 80020b2:	6b3b      	ldr	r3, [r7, #48]	@ 0x30
 80020b4:	2b03      	cmp	r3, #3
 80020b6:	d9f5      	bls.n	80020a4 <CRYP_AESGCM_Process+0x2a0>
    }
    /* Wait for CCF flag to be raised */
    if (CRYP_WaitOnCCFlag(hcryp, Timeout) != HAL_OK)
 80020b8:	683a      	ldr	r2, [r7, #0]
 80020ba:	687b      	ldr	r3, [r7, #4]
 80020bc:	0011      	movs	r1, r2
 80020be:	0018      	movs	r0, r3
 80020c0:	f000 ff18 	bl	8002ef4 <CRYP_WaitOnCCFlag>
 80020c4:	1e03      	subs	r3, r0, #0
 80020c6:	d00b      	beq.n	80020e0 <CRYP_AESGCM_Process+0x2dc>
    {
      hcryp->State = HAL_CRYP_STATE_READY;
 80020c8:	687b      	ldr	r3, [r7, #4]
 80020ca:	2251      	movs	r2, #81	@ 0x51
 80020cc:	2101      	movs	r1, #1
 80020ce:	5499      	strb	r1, [r3, r2]
      __HAL_UNLOCK(hcryp);
 80020d0:	687b      	ldr	r3, [r7, #4]
 80020d2:	2250      	movs	r2, #80	@ 0x50
 80020d4:	2100      	movs	r1, #0
 80020d6:	5499      	strb	r1, [r3, r2]
#if (USE_HAL_CRYP_REGISTER_CALLBACKS == 1U)
      /*Call registered error callback*/
      hcryp->ErrorCallback(hcryp);
#else
      /*Call legacy weak error callback*/
      HAL_CRYP_ErrorCallback(hcryp);
 80020d8:	687b      	ldr	r3, [r7, #4]
 80020da:	0018      	movs	r0, r3
 80020dc:	f7ff fb21 	bl	8001722 <HAL_CRYP_ErrorCallback>
#endif /* USE_HAL_CRYP_REGISTER_CALLBACKS */
    }

    /* Clear CCF Flag */
    __HAL_CRYP_CLEAR_FLAG(hcryp, CRYP_CCF_CLEAR);
 80020e0:	687b      	ldr	r3, [r7, #4]
 80020e2:	681b      	ldr	r3, [r3, #0]
 80020e4:	681a      	ldr	r2, [r3, #0]
 80020e6:	687b      	ldr	r3, [r7, #4]
 80020e8:	681b      	ldr	r3, [r3, #0]
 80020ea:	2180      	movs	r1, #128	@ 0x80
 80020ec:	430a      	orrs	r2, r1
 80020ee:	601a      	str	r2, [r3, #0]

    /*Read the output block from the output FIFO */
    for (index = 0U; index < 4U; index++)
 80020f0:	2300      	movs	r3, #0
 80020f2:	633b      	str	r3, [r7, #48]	@ 0x30
 80020f4:	e00a      	b.n	800210c <CRYP_AESGCM_Process+0x308>
    {
      /* Read the output block from the output FIFO and put them in temporary buffer
         then get CrypOutBuff from temporary buffer */
      temp[index] = hcryp->Instance->DOUTR;
 80020f6:	687b      	ldr	r3, [r7, #4]
 80020f8:	681b      	ldr	r3, [r3, #0]
 80020fa:	68d9      	ldr	r1, [r3, #12]
 80020fc:	2308      	movs	r3, #8
 80020fe:	18fb      	adds	r3, r7, r3
 8002100:	6b3a      	ldr	r2, [r7, #48]	@ 0x30
 8002102:	0092      	lsls	r2, r2, #2
 8002104:	50d1      	str	r1, [r2, r3]
    for (index = 0U; index < 4U; index++)
 8002106:	6b3b      	ldr	r3, [r7, #48]	@ 0x30
 8002108:	3301      	adds	r3, #1
 800210a:	633b      	str	r3, [r7, #48]	@ 0x30
 800210c:	6b3b      	ldr	r3, [r7, #48]	@ 0x30
 800210e:	2b03      	cmp	r3, #3
 8002110:	d9f1      	bls.n	80020f6 <CRYP_AESGCM_Process+0x2f2>
    }
    for (index = 0U; index < lastwordsize; index++)
 8002112:	2300      	movs	r3, #0
 8002114:	633b      	str	r3, [r7, #48]	@ 0x30
 8002116:	e019      	b.n	800214c <CRYP_AESGCM_Process+0x348>
    {
      *(uint32_t *)(hcryp->pCrypOutBuffPtr + (hcryp->CrypOutCount)) = temp[index];
 8002118:	687b      	ldr	r3, [r7, #4]
 800211a:	6b9a      	ldr	r2, [r3, #56]	@ 0x38
 800211c:	687b      	ldr	r3, [r7, #4]
 800211e:	2140      	movs	r1, #64	@ 0x40
 8002120:	5a5b      	ldrh	r3, [r3, r1]
 8002122:	b29b      	uxth	r3, r3
 8002124:	009b      	lsls	r3, r3, #2
 8002126:	18d3      	adds	r3, r2, r3
 8002128:	2208      	movs	r2, #8
 800212a:	18ba      	adds	r2, r7, r2
 800212c:	6b39      	ldr	r1, [r7, #48]	@ 0x30
 800212e:	0089      	lsls	r1, r1, #2
 8002130:	588a      	ldr	r2, [r1, r2]
 8002132:	601a      	str	r2, [r3, #0]
      hcryp->CrypOutCount++;
 8002134:	687b      	ldr	r3, [r7, #4]
 8002136:	2240      	movs	r2, #64	@ 0x40
 8002138:	5a9b      	ldrh	r3, [r3, r2]
 800213a:	b29b      	uxth	r3, r3
 800213c:	3301      	adds	r3, #1
 800213e:	b299      	uxth	r1, r3
 8002140:	687b      	ldr	r3, [r7, #4]
 8002142:	2240      	movs	r2, #64	@ 0x40
 8002144:	5299      	strh	r1, [r3, r2]
    for (index = 0U; index < lastwordsize; index++)
 8002146:	6b3b      	ldr	r3, [r7, #48]	@ 0x30
 8002148:	3301      	adds	r3, #1
 800214a:	633b      	str	r3, [r7, #48]	@ 0x30
 800214c:	6b3a      	ldr	r2, [r7, #48]	@ 0x30
 800214e:	6afb      	ldr	r3, [r7, #44]	@ 0x2c
 8002150:	429a      	cmp	r2, r3
 8002152:	d3e1      	bcc.n	8002118 <CRYP_AESGCM_Process+0x314>
    }
  }

  /* Return function status */
  return HAL_OK;
 8002154:	2300      	movs	r3, #0
}
 8002156:	0018      	movs	r0, r3
 8002158:	46bd      	mov	sp, r7
 800215a:	b00e      	add	sp, #56	@ 0x38
 800215c:	bd80      	pop	{r7, pc}
 800215e:	46c0      	nop			@ (mov r8, r8)
 8002160:	ffff9fff 	.word	0xffff9fff
 8002164:	ff0fffff 	.word	0xff0fffff

08002168 <CRYP_AESCCM_Process>:
  *         the configuration information for CRYP module
  * @param  Timeout Timeout duration
  * @retval HAL status
  */
static HAL_StatusTypeDef CRYP_AESCCM_Process(CRYP_HandleTypeDef *hcryp, uint32_t Timeout)
{
 8002168:	b580      	push	{r7, lr}
 800216a:	b08e      	sub	sp, #56	@ 0x38
 800216c:	af00      	add	r7, sp, #0
 800216e:	6078      	str	r0, [r7, #4]
 8002170:	6039      	str	r1, [r7, #0]
  uint32_t tickstart;
  uint32_t wordsize = ((uint32_t)hcryp->Size / 4U) ;
 8002172:	687b      	ldr	r3, [r7, #4]
 8002174:	2242      	movs	r2, #66	@ 0x42
 8002176:	5a9b      	ldrh	r3, [r3, r2]
 8002178:	089b      	lsrs	r3, r3, #2
 800217a:	b29b      	uxth	r3, r3
 800217c:	637b      	str	r3, [r7, #52]	@ 0x34
  uint32_t npblb;
  uint32_t lastwordsize;
  uint32_t temp[4] ;  /* Temporary CrypOutBuff */
  uint32_t incount;  /* Temporary CrypInCount Value */
  uint32_t outcount;  /* Temporary CrypOutCount Value */
  uint32_t DoKeyIVConfig = 1U; /* By default, carry out peripheral Key and IV configuration */
 800217e:	2301      	movs	r3, #1
 8002180:	623b      	str	r3, [r7, #32]

  if (hcryp->Init.KeyIVConfigSkip == CRYP_KEYIVCONFIG_ONCE)
 8002182:	687b      	ldr	r3, [r7, #4]
 8002184:	6adb      	ldr	r3, [r3, #44]	@ 0x2c
 8002186:	2b01      	cmp	r3, #1
 8002188:	d118      	bne.n	80021bc <CRYP_AESCCM_Process+0x54>
  {
    if (hcryp->KeyIVConfig == 1U)
 800218a:	687b      	ldr	r3, [r7, #4]
 800218c:	6d9b      	ldr	r3, [r3, #88]	@ 0x58
 800218e:	2b01      	cmp	r3, #1
 8002190:	d10a      	bne.n	80021a8 <CRYP_AESCCM_Process+0x40>
    {
      /* If the Key and IV configuration has to be done only once
         and if it has already been done, skip it */
      DoKeyIVConfig = 0U;
 8002192:	2300      	movs	r3, #0
 8002194:	623b      	str	r3, [r7, #32]
      hcryp->SizesSum += hcryp->Size; /* Compute message total payload length */
 8002196:	687b      	ldr	r3, [r7, #4]
 8002198:	6ddb      	ldr	r3, [r3, #92]	@ 0x5c
 800219a:	687a      	ldr	r2, [r7, #4]
 800219c:	2142      	movs	r1, #66	@ 0x42
 800219e:	5a52      	ldrh	r2, [r2, r1]
 80021a0:	189a      	adds	r2, r3, r2
 80021a2:	687b      	ldr	r3, [r7, #4]
 80021a4:	65da      	str	r2, [r3, #92]	@ 0x5c
 80021a6:	e00f      	b.n	80021c8 <CRYP_AESCCM_Process+0x60>
    else
    {
      /* If the Key and IV configuration has to be done only once
         and if it has not been done already, do it and set KeyIVConfig
         to keep track it won't have to be done again next time */
      hcryp->KeyIVConfig = 1U;
 80021a8:	687b      	ldr	r3, [r7, #4]
 80021aa:	2201      	movs	r2, #1
 80021ac:	659a      	str	r2, [r3, #88]	@ 0x58
      hcryp->SizesSum = hcryp->Size; /* Merely store payload length */
 80021ae:	687b      	ldr	r3, [r7, #4]
 80021b0:	2242      	movs	r2, #66	@ 0x42
 80021b2:	5a9b      	ldrh	r3, [r3, r2]
 80021b4:	001a      	movs	r2, r3
 80021b6:	687b      	ldr	r3, [r7, #4]
 80021b8:	65da      	str	r2, [r3, #92]	@ 0x5c
 80021ba:	e005      	b.n	80021c8 <CRYP_AESCCM_Process+0x60>
    }
  }
  else
  {
    hcryp->SizesSum = hcryp->Size;
 80021bc:	687b      	ldr	r3, [r7, #4]
 80021be:	2242      	movs	r2, #66	@ 0x42
 80021c0:	5a9b      	ldrh	r3, [r3, r2]
 80021c2:	001a      	movs	r2, r3
 80021c4:	687b      	ldr	r3, [r7, #4]
 80021c6:	65da      	str	r2, [r3, #92]	@ 0x5c
  }

  if (DoKeyIVConfig == 1U)
 80021c8:	6a3b      	ldr	r3, [r7, #32]
 80021ca:	2b01      	cmp	r3, #1
 80021cc:	d171      	bne.n	80022b2 <CRYP_AESCCM_Process+0x14a>
  {
    /*  Reset CrypHeaderCount */
    hcryp->CrypHeaderCount = 0U;
 80021ce:	687b      	ldr	r3, [r7, #4]
 80021d0:	2200      	movs	r2, #0
 80021d2:	879a      	strh	r2, [r3, #60]	@ 0x3c

    /********************** Init phase ******************************************/

    CRYP_SET_PHASE(hcryp, CRYP_PHASE_INIT);
 80021d4:	687b      	ldr	r3, [r7, #4]
 80021d6:	681b      	ldr	r3, [r3, #0]
 80021d8:	681a      	ldr	r2, [r3, #0]
 80021da:	687b      	ldr	r3, [r7, #4]
 80021dc:	681b      	ldr	r3, [r3, #0]
 80021de:	49bb      	ldr	r1, [pc, #748]	@ (80024cc <CRYP_AESCCM_Process+0x364>)
 80021e0:	400a      	ands	r2, r1
 80021e2:	601a      	str	r2, [r3, #0]

    /* Set the key */
    CRYP_SetKey(hcryp, hcryp->Init.KeySize);
 80021e4:	687b      	ldr	r3, [r7, #4]
 80021e6:	689a      	ldr	r2, [r3, #8]
 80021e8:	687b      	ldr	r3, [r7, #4]
 80021ea:	0011      	movs	r1, r2
 80021ec:	0018      	movs	r0, r3
 80021ee:	f7ff fda9 	bl	8001d44 <CRYP_SetKey>

    /* Set the initialization vector (IV) with B0 */
    hcryp->Instance->IVR3 = *(uint32_t *)(hcryp->Init.B0);
 80021f2:	687b      	ldr	r3, [r7, #4]
 80021f4:	6a1a      	ldr	r2, [r3, #32]
 80021f6:	687b      	ldr	r3, [r7, #4]
 80021f8:	681b      	ldr	r3, [r3, #0]
 80021fa:	6812      	ldr	r2, [r2, #0]
 80021fc:	62da      	str	r2, [r3, #44]	@ 0x2c
    hcryp->Instance->IVR2 = *(uint32_t *)(hcryp->Init.B0 + 1U);
 80021fe:	687b      	ldr	r3, [r7, #4]
 8002200:	6a1a      	ldr	r2, [r3, #32]
 8002202:	687b      	ldr	r3, [r7, #4]
 8002204:	681b      	ldr	r3, [r3, #0]
 8002206:	6852      	ldr	r2, [r2, #4]
 8002208:	629a      	str	r2, [r3, #40]	@ 0x28
    hcryp->Instance->IVR1 = *(uint32_t *)(hcryp->Init.B0 + 2U);
 800220a:	687b      	ldr	r3, [r7, #4]
 800220c:	6a1a      	ldr	r2, [r3, #32]
 800220e:	687b      	ldr	r3, [r7, #4]
 8002210:	681b      	ldr	r3, [r3, #0]
 8002212:	6892      	ldr	r2, [r2, #8]
 8002214:	625a      	str	r2, [r3, #36]	@ 0x24
    hcryp->Instance->IVR0 = *(uint32_t *)(hcryp->Init.B0 + 3U);
 8002216:	687b      	ldr	r3, [r7, #4]
 8002218:	6a1a      	ldr	r2, [r3, #32]
 800221a:	687b      	ldr	r3, [r7, #4]
 800221c:	681b      	ldr	r3, [r3, #0]
 800221e:	68d2      	ldr	r2, [r2, #12]
 8002220:	621a      	str	r2, [r3, #32]

    /* Enable the CRYP peripheral */
    __HAL_CRYP_ENABLE(hcryp);
 8002222:	687b      	ldr	r3, [r7, #4]
 8002224:	681b      	ldr	r3, [r3, #0]
 8002226:	681a      	ldr	r2, [r3, #0]
 8002228:	687b      	ldr	r3, [r7, #4]
 800222a:	681b      	ldr	r3, [r3, #0]
 800222c:	2101      	movs	r1, #1
 800222e:	430a      	orrs	r2, r1
 8002230:	601a      	str	r2, [r3, #0]

    /* just wait for hash computation */
    if (CRYP_WaitOnCCFlag(hcryp, Timeout) != HAL_OK)
 8002232:	683a      	ldr	r2, [r7, #0]
 8002234:	687b      	ldr	r3, [r7, #4]
 8002236:	0011      	movs	r1, r2
 8002238:	0018      	movs	r0, r3
 800223a:	f000 fe5b 	bl	8002ef4 <CRYP_WaitOnCCFlag>
 800223e:	1e03      	subs	r3, r0, #0
 8002240:	d00f      	beq.n	8002262 <CRYP_AESCCM_Process+0xfa>
    {
      /* Change state */
      hcryp->ErrorCode |= HAL_CRYP_ERROR_TIMEOUT;
 8002242:	687b      	ldr	r3, [r7, #4]
 8002244:	6d5b      	ldr	r3, [r3, #84]	@ 0x54
 8002246:	2210      	movs	r2, #16
 8002248:	431a      	orrs	r2, r3
 800224a:	687b      	ldr	r3, [r7, #4]
 800224c:	655a      	str	r2, [r3, #84]	@ 0x54
      hcryp->State = HAL_CRYP_STATE_READY;
 800224e:	687b      	ldr	r3, [r7, #4]
 8002250:	2251      	movs	r2, #81	@ 0x51
 8002252:	2101      	movs	r1, #1
 8002254:	5499      	strb	r1, [r3, r2]

      /* Process unlocked & return error */
      __HAL_UNLOCK(hcryp);
 8002256:	687b      	ldr	r3, [r7, #4]
 8002258:	2250      	movs	r2, #80	@ 0x50
 800225a:	2100      	movs	r1, #0
 800225c:	5499      	strb	r1, [r3, r2]
      return HAL_ERROR;
 800225e:	2301      	movs	r3, #1
 8002260:	e130      	b.n	80024c4 <CRYP_AESCCM_Process+0x35c>
    }
    /* Clear CCF flag */
    __HAL_CRYP_CLEAR_FLAG(hcryp, CRYP_CCF_CLEAR);
 8002262:	687b      	ldr	r3, [r7, #4]
 8002264:	681b      	ldr	r3, [r3, #0]
 8002266:	681a      	ldr	r2, [r3, #0]
 8002268:	687b      	ldr	r3, [r7, #4]
 800226a:	681b      	ldr	r3, [r3, #0]
 800226c:	2180      	movs	r1, #128	@ 0x80
 800226e:	430a      	orrs	r2, r1
 8002270:	601a      	str	r2, [r3, #0]

    /************************ Header phase *************************************/
    /* Header block(B1) : associated data length expressed in bytes concatenated
    with Associated Data (A)*/
    if (CRYP_GCMCCM_SetHeaderPhase(hcryp,  Timeout) != HAL_OK)
 8002272:	683a      	ldr	r2, [r7, #0]
 8002274:	687b      	ldr	r3, [r7, #4]
 8002276:	0011      	movs	r1, r2
 8002278:	0018      	movs	r0, r3
 800227a:	f000 fa85 	bl	8002788 <CRYP_GCMCCM_SetHeaderPhase>
 800227e:	1e03      	subs	r3, r0, #0
 8002280:	d001      	beq.n	8002286 <CRYP_AESCCM_Process+0x11e>
    {
      return HAL_ERROR;
 8002282:	2301      	movs	r3, #1
 8002284:	e11e      	b.n	80024c4 <CRYP_AESCCM_Process+0x35c>
    }

    /*************************Payload phase ************************************/

    /* Set the phase */
    hcryp->Phase = CRYP_PHASE_PROCESS;
 8002286:	687b      	ldr	r3, [r7, #4]
 8002288:	2202      	movs	r2, #2
 800228a:	645a      	str	r2, [r3, #68]	@ 0x44

    /* Select payload phase once the header phase is performed */
    MODIFY_REG(hcryp->Instance->CR, AES_CR_GCMPH, CRYP_PHASE_PAYLOAD);
 800228c:	687b      	ldr	r3, [r7, #4]
 800228e:	681b      	ldr	r3, [r3, #0]
 8002290:	681b      	ldr	r3, [r3, #0]
 8002292:	4a8e      	ldr	r2, [pc, #568]	@ (80024cc <CRYP_AESCCM_Process+0x364>)
 8002294:	401a      	ands	r2, r3
 8002296:	687b      	ldr	r3, [r7, #4]
 8002298:	681b      	ldr	r3, [r3, #0]
 800229a:	2180      	movs	r1, #128	@ 0x80
 800229c:	01c9      	lsls	r1, r1, #7
 800229e:	430a      	orrs	r2, r1
 80022a0:	601a      	str	r2, [r3, #0]

    /* Set to 0 the number of non-valid bytes using NPBLB register*/
    MODIFY_REG(hcryp->Instance->CR, AES_CR_NPBLB, 0U);
 80022a2:	687b      	ldr	r3, [r7, #4]
 80022a4:	681b      	ldr	r3, [r3, #0]
 80022a6:	681a      	ldr	r2, [r3, #0]
 80022a8:	687b      	ldr	r3, [r7, #4]
 80022aa:	681b      	ldr	r3, [r3, #0]
 80022ac:	4988      	ldr	r1, [pc, #544]	@ (80024d0 <CRYP_AESCCM_Process+0x368>)
 80022ae:	400a      	ands	r2, r1
 80022b0:	601a      	str	r2, [r3, #0]

  } /* if (DoKeyIVConfig == 1U) */

  if ((hcryp->Size % 16U) != 0U)
 80022b2:	687b      	ldr	r3, [r7, #4]
 80022b4:	2242      	movs	r2, #66	@ 0x42
 80022b6:	5a9b      	ldrh	r3, [r3, r2]
 80022b8:	220f      	movs	r2, #15
 80022ba:	4013      	ands	r3, r2
 80022bc:	b29b      	uxth	r3, r3
 80022be:	2b00      	cmp	r3, #0
 80022c0:	d003      	beq.n	80022ca <CRYP_AESCCM_Process+0x162>
  {
    /* recalculate  wordsize */
    wordsize = ((wordsize / 4U) * 4U) ;
 80022c2:	6b7b      	ldr	r3, [r7, #52]	@ 0x34
 80022c4:	2203      	movs	r2, #3
 80022c6:	4393      	bics	r3, r2
 80022c8:	637b      	str	r3, [r7, #52]	@ 0x34
  }
  /* Get tick */
  tickstart = HAL_GetTick();
 80022ca:	f7fe fefd 	bl	80010c8 <HAL_GetTick>
 80022ce:	0003      	movs	r3, r0
 80022d0:	61fb      	str	r3, [r7, #28]

  /* Write input data and get output data */
  incount = hcryp->CrypInCount;
 80022d2:	687b      	ldr	r3, [r7, #4]
 80022d4:	8fdb      	ldrh	r3, [r3, #62]	@ 0x3e
 80022d6:	b29b      	uxth	r3, r3
 80022d8:	62bb      	str	r3, [r7, #40]	@ 0x28
  outcount = hcryp->CrypOutCount;
 80022da:	687b      	ldr	r3, [r7, #4]
 80022dc:	2240      	movs	r2, #64	@ 0x40
 80022de:	5a9b      	ldrh	r3, [r3, r2]
 80022e0:	b29b      	uxth	r3, r3
 80022e2:	627b      	str	r3, [r7, #36]	@ 0x24
  while ((incount < wordsize) && (outcount < wordsize))
 80022e4:	e034      	b.n	8002350 <CRYP_AESCCM_Process+0x1e8>
  {
    /* Write plain data and get cipher data */
    CRYP_AES_ProcessData(hcryp, Timeout);
 80022e6:	683a      	ldr	r2, [r7, #0]
 80022e8:	687b      	ldr	r3, [r7, #4]
 80022ea:	0011      	movs	r1, r2
 80022ec:	0018      	movs	r0, r3
 80022ee:	f7ff fb98 	bl	8001a22 <CRYP_AES_ProcessData>

    /* Check for the Timeout */
    if (Timeout != HAL_MAX_DELAY)
 80022f2:	683b      	ldr	r3, [r7, #0]
 80022f4:	3301      	adds	r3, #1
 80022f6:	d022      	beq.n	800233e <CRYP_AESCCM_Process+0x1d6>
    {
      if (((HAL_GetTick() - tickstart) > Timeout) || (Timeout == 0U))
 80022f8:	f7fe fee6 	bl	80010c8 <HAL_GetTick>
 80022fc:	0002      	movs	r2, r0
 80022fe:	69fb      	ldr	r3, [r7, #28]
 8002300:	1ad3      	subs	r3, r2, r3
 8002302:	683a      	ldr	r2, [r7, #0]
 8002304:	429a      	cmp	r2, r3
 8002306:	d302      	bcc.n	800230e <CRYP_AESCCM_Process+0x1a6>
 8002308:	683b      	ldr	r3, [r7, #0]
 800230a:	2b00      	cmp	r3, #0
 800230c:	d117      	bne.n	800233e <CRYP_AESCCM_Process+0x1d6>
      {
        /* Disable the CRYP peripheral clock */
        __HAL_CRYP_DISABLE(hcryp);
 800230e:	687b      	ldr	r3, [r7, #4]
 8002310:	681b      	ldr	r3, [r3, #0]
 8002312:	681a      	ldr	r2, [r3, #0]
 8002314:	687b      	ldr	r3, [r7, #4]
 8002316:	681b      	ldr	r3, [r3, #0]
 8002318:	2101      	movs	r1, #1
 800231a:	438a      	bics	r2, r1
 800231c:	601a      	str	r2, [r3, #0]

        /* Change state */
        hcryp->ErrorCode |= HAL_CRYP_ERROR_TIMEOUT;
 800231e:	687b      	ldr	r3, [r7, #4]
 8002320:	6d5b      	ldr	r3, [r3, #84]	@ 0x54
 8002322:	2210      	movs	r2, #16
 8002324:	431a      	orrs	r2, r3
 8002326:	687b      	ldr	r3, [r7, #4]
 8002328:	655a      	str	r2, [r3, #84]	@ 0x54
        hcryp->State = HAL_CRYP_STATE_READY;
 800232a:	687b      	ldr	r3, [r7, #4]
 800232c:	2251      	movs	r2, #81	@ 0x51
 800232e:	2101      	movs	r1, #1
 8002330:	5499      	strb	r1, [r3, r2]

        /* Process unlocked */
        __HAL_UNLOCK(hcryp);
 8002332:	687b      	ldr	r3, [r7, #4]
 8002334:	2250      	movs	r2, #80	@ 0x50
 8002336:	2100      	movs	r1, #0
 8002338:	5499      	strb	r1, [r3, r2]
        return HAL_ERROR;
 800233a:	2301      	movs	r3, #1
 800233c:	e0c2      	b.n	80024c4 <CRYP_AESCCM_Process+0x35c>
      }
    }
    incount = hcryp->CrypInCount;
 800233e:	687b      	ldr	r3, [r7, #4]
 8002340:	8fdb      	ldrh	r3, [r3, #62]	@ 0x3e
 8002342:	b29b      	uxth	r3, r3
 8002344:	62bb      	str	r3, [r7, #40]	@ 0x28
    outcount = hcryp->CrypOutCount;
 8002346:	687b      	ldr	r3, [r7, #4]
 8002348:	2240      	movs	r2, #64	@ 0x40
 800234a:	5a9b      	ldrh	r3, [r3, r2]
 800234c:	b29b      	uxth	r3, r3
 800234e:	627b      	str	r3, [r7, #36]	@ 0x24
  while ((incount < wordsize) && (outcount < wordsize))
 8002350:	6aba      	ldr	r2, [r7, #40]	@ 0x28
 8002352:	6b7b      	ldr	r3, [r7, #52]	@ 0x34
 8002354:	429a      	cmp	r2, r3
 8002356:	d203      	bcs.n	8002360 <CRYP_AESCCM_Process+0x1f8>
 8002358:	6a7a      	ldr	r2, [r7, #36]	@ 0x24
 800235a:	6b7b      	ldr	r3, [r7, #52]	@ 0x34
 800235c:	429a      	cmp	r2, r3
 800235e:	d3c2      	bcc.n	80022e6 <CRYP_AESCCM_Process+0x17e>
  }

  if ((hcryp->Size % 16U) != 0U)
 8002360:	687b      	ldr	r3, [r7, #4]
 8002362:	2242      	movs	r2, #66	@ 0x42
 8002364:	5a9b      	ldrh	r3, [r3, r2]
 8002366:	220f      	movs	r2, #15
 8002368:	4013      	ands	r3, r2
 800236a:	b29b      	uxth	r3, r3
 800236c:	2b00      	cmp	r3, #0
 800236e:	d100      	bne.n	8002372 <CRYP_AESCCM_Process+0x20a>
 8002370:	e0a7      	b.n	80024c2 <CRYP_AESCCM_Process+0x35a>
  {
    /* Compute the number of padding bytes in last block of payload */
    npblb = ((((uint32_t)hcryp->Size / 16U) + 1U) * 16U) - ((uint32_t)hcryp->Size);
 8002372:	687b      	ldr	r3, [r7, #4]
 8002374:	2242      	movs	r2, #66	@ 0x42
 8002376:	5a9b      	ldrh	r3, [r3, r2]
 8002378:	091b      	lsrs	r3, r3, #4
 800237a:	b29b      	uxth	r3, r3
 800237c:	3301      	adds	r3, #1
 800237e:	011b      	lsls	r3, r3, #4
 8002380:	687a      	ldr	r2, [r7, #4]
 8002382:	2142      	movs	r1, #66	@ 0x42
 8002384:	5a52      	ldrh	r2, [r2, r1]
 8002386:	1a9b      	subs	r3, r3, r2
 8002388:	61bb      	str	r3, [r7, #24]

    if ((hcryp->Instance->CR & AES_CR_MODE) == CRYP_OPERATINGMODE_DECRYPT)
 800238a:	687b      	ldr	r3, [r7, #4]
 800238c:	681b      	ldr	r3, [r3, #0]
 800238e:	681b      	ldr	r3, [r3, #0]
 8002390:	2218      	movs	r2, #24
 8002392:	4013      	ands	r3, r2
 8002394:	2b10      	cmp	r3, #16
 8002396:	d10b      	bne.n	80023b0 <CRYP_AESCCM_Process+0x248>
    {
      /* Set Npblb in case of AES CCM payload decryption to get right tag  */
      MODIFY_REG(hcryp->Instance->CR, AES_CR_NPBLB, npblb << 20);
 8002398:	687b      	ldr	r3, [r7, #4]
 800239a:	681b      	ldr	r3, [r3, #0]
 800239c:	681b      	ldr	r3, [r3, #0]
 800239e:	4a4c      	ldr	r2, [pc, #304]	@ (80024d0 <CRYP_AESCCM_Process+0x368>)
 80023a0:	4013      	ands	r3, r2
 80023a2:	0019      	movs	r1, r3
 80023a4:	69bb      	ldr	r3, [r7, #24]
 80023a6:	051a      	lsls	r2, r3, #20
 80023a8:	687b      	ldr	r3, [r7, #4]
 80023aa:	681b      	ldr	r3, [r3, #0]
 80023ac:	430a      	orrs	r2, r1
 80023ae:	601a      	str	r2, [r3, #0]

    }
    /* Number of valid words (lastwordsize) in last block */
    if ((npblb % 4U) == 0U)
 80023b0:	69bb      	ldr	r3, [r7, #24]
 80023b2:	2203      	movs	r2, #3
 80023b4:	4013      	ands	r3, r2
 80023b6:	d105      	bne.n	80023c4 <CRYP_AESCCM_Process+0x25c>
    {
      lastwordsize = (16U - npblb) / 4U;
 80023b8:	69bb      	ldr	r3, [r7, #24]
 80023ba:	2210      	movs	r2, #16
 80023bc:	1ad3      	subs	r3, r2, r3
 80023be:	089b      	lsrs	r3, r3, #2
 80023c0:	62fb      	str	r3, [r7, #44]	@ 0x2c
 80023c2:	e005      	b.n	80023d0 <CRYP_AESCCM_Process+0x268>
    }
    else
    {
      lastwordsize = ((16U - npblb) / 4U) + 1U;
 80023c4:	69bb      	ldr	r3, [r7, #24]
 80023c6:	2210      	movs	r2, #16
 80023c8:	1ad3      	subs	r3, r2, r3
 80023ca:	089b      	lsrs	r3, r3, #2
 80023cc:	3301      	adds	r3, #1
 80023ce:	62fb      	str	r3, [r7, #44]	@ 0x2c
    }

    /* Write the last input block in the IN FIFO */
    for (loopcounter = 0U; loopcounter < lastwordsize; loopcounter ++)
 80023d0:	2300      	movs	r3, #0
 80023d2:	633b      	str	r3, [r7, #48]	@ 0x30
 80023d4:	e014      	b.n	8002400 <CRYP_AESCCM_Process+0x298>
    {
      hcryp->Instance->DINR  = *(uint32_t *)(hcryp->pCrypInBuffPtr + hcryp->CrypInCount);
 80023d6:	687b      	ldr	r3, [r7, #4]
 80023d8:	6b5a      	ldr	r2, [r3, #52]	@ 0x34
 80023da:	687b      	ldr	r3, [r7, #4]
 80023dc:	8fdb      	ldrh	r3, [r3, #62]	@ 0x3e
 80023de:	b29b      	uxth	r3, r3
 80023e0:	009b      	lsls	r3, r3, #2
 80023e2:	18d2      	adds	r2, r2, r3
 80023e4:	687b      	ldr	r3, [r7, #4]
 80023e6:	681b      	ldr	r3, [r3, #0]
 80023e8:	6812      	ldr	r2, [r2, #0]
 80023ea:	609a      	str	r2, [r3, #8]
      hcryp->CrypInCount++;
 80023ec:	687b      	ldr	r3, [r7, #4]
 80023ee:	8fdb      	ldrh	r3, [r3, #62]	@ 0x3e
 80023f0:	b29b      	uxth	r3, r3
 80023f2:	3301      	adds	r3, #1
 80023f4:	b29a      	uxth	r2, r3
 80023f6:	687b      	ldr	r3, [r7, #4]
 80023f8:	87da      	strh	r2, [r3, #62]	@ 0x3e
    for (loopcounter = 0U; loopcounter < lastwordsize; loopcounter ++)
 80023fa:	6b3b      	ldr	r3, [r7, #48]	@ 0x30
 80023fc:	3301      	adds	r3, #1
 80023fe:	633b      	str	r3, [r7, #48]	@ 0x30
 8002400:	6b3a      	ldr	r2, [r7, #48]	@ 0x30
 8002402:	6afb      	ldr	r3, [r7, #44]	@ 0x2c
 8002404:	429a      	cmp	r2, r3
 8002406:	d3e6      	bcc.n	80023d6 <CRYP_AESCCM_Process+0x26e>
    }

    /* Pad the data with zeros to have a complete block */
    while (loopcounter < 4U)
 8002408:	e006      	b.n	8002418 <CRYP_AESCCM_Process+0x2b0>
    {
      hcryp->Instance->DINR  = 0U;
 800240a:	687b      	ldr	r3, [r7, #4]
 800240c:	681b      	ldr	r3, [r3, #0]
 800240e:	2200      	movs	r2, #0
 8002410:	609a      	str	r2, [r3, #8]
      loopcounter++;
 8002412:	6b3b      	ldr	r3, [r7, #48]	@ 0x30
 8002414:	3301      	adds	r3, #1
 8002416:	633b      	str	r3, [r7, #48]	@ 0x30
    while (loopcounter < 4U)
 8002418:	6b3b      	ldr	r3, [r7, #48]	@ 0x30
 800241a:	2b03      	cmp	r3, #3
 800241c:	d9f5      	bls.n	800240a <CRYP_AESCCM_Process+0x2a2>
    }
    /* just wait for hash computation */
    if (CRYP_WaitOnCCFlag(hcryp, Timeout) != HAL_OK)
 800241e:	683a      	ldr	r2, [r7, #0]
 8002420:	687b      	ldr	r3, [r7, #4]
 8002422:	0011      	movs	r1, r2
 8002424:	0018      	movs	r0, r3
 8002426:	f000 fd65 	bl	8002ef4 <CRYP_WaitOnCCFlag>
 800242a:	1e03      	subs	r3, r0, #0
 800242c:	d00f      	beq.n	800244e <CRYP_AESCCM_Process+0x2e6>
    {
      /* Change state */
      hcryp->ErrorCode |= HAL_CRYP_ERROR_TIMEOUT;
 800242e:	687b      	ldr	r3, [r7, #4]
 8002430:	6d5b      	ldr	r3, [r3, #84]	@ 0x54
 8002432:	2210      	movs	r2, #16
 8002434:	431a      	orrs	r2, r3
 8002436:	687b      	ldr	r3, [r7, #4]
 8002438:	655a      	str	r2, [r3, #84]	@ 0x54
      hcryp->State = HAL_CRYP_STATE_READY;
 800243a:	687b      	ldr	r3, [r7, #4]
 800243c:	2251      	movs	r2, #81	@ 0x51
 800243e:	2101      	movs	r1, #1
 8002440:	5499      	strb	r1, [r3, r2]

      /* Process unlocked & return error */
      __HAL_UNLOCK(hcryp);
 8002442:	687b      	ldr	r3, [r7, #4]
 8002444:	2250      	movs	r2, #80	@ 0x50
 8002446:	2100      	movs	r1, #0
 8002448:	5499      	strb	r1, [r3, r2]
      return HAL_ERROR;
 800244a:	2301      	movs	r3, #1
 800244c:	e03a      	b.n	80024c4 <CRYP_AESCCM_Process+0x35c>
    }
    /* Clear CCF flag */
    __HAL_CRYP_CLEAR_FLAG(hcryp, CRYP_CCF_CLEAR);
 800244e:	687b      	ldr	r3, [r7, #4]
 8002450:	681b      	ldr	r3, [r3, #0]
 8002452:	681a      	ldr	r2, [r3, #0]
 8002454:	687b      	ldr	r3, [r7, #4]
 8002456:	681b      	ldr	r3, [r3, #0]
 8002458:	2180      	movs	r1, #128	@ 0x80
 800245a:	430a      	orrs	r2, r1
 800245c:	601a      	str	r2, [r3, #0]

    for (loopcounter = 0U; loopcounter < 4U; loopcounter++)
 800245e:	2300      	movs	r3, #0
 8002460:	633b      	str	r3, [r7, #48]	@ 0x30
 8002462:	e00a      	b.n	800247a <CRYP_AESCCM_Process+0x312>
    {
      /* Read the output block from the output FIFO and put them in temporary buffer
         then get CrypOutBuff from temporary buffer */
      temp[loopcounter] = hcryp->Instance->DOUTR;
 8002464:	687b      	ldr	r3, [r7, #4]
 8002466:	681b      	ldr	r3, [r3, #0]
 8002468:	68d9      	ldr	r1, [r3, #12]
 800246a:	2308      	movs	r3, #8
 800246c:	18fb      	adds	r3, r7, r3
 800246e:	6b3a      	ldr	r2, [r7, #48]	@ 0x30
 8002470:	0092      	lsls	r2, r2, #2
 8002472:	50d1      	str	r1, [r2, r3]
    for (loopcounter = 0U; loopcounter < 4U; loopcounter++)
 8002474:	6b3b      	ldr	r3, [r7, #48]	@ 0x30
 8002476:	3301      	adds	r3, #1
 8002478:	633b      	str	r3, [r7, #48]	@ 0x30
 800247a:	6b3b      	ldr	r3, [r7, #48]	@ 0x30
 800247c:	2b03      	cmp	r3, #3
 800247e:	d9f1      	bls.n	8002464 <CRYP_AESCCM_Process+0x2fc>
    }
    for (loopcounter = 0U; loopcounter < lastwordsize; loopcounter++)
 8002480:	2300      	movs	r3, #0
 8002482:	633b      	str	r3, [r7, #48]	@ 0x30
 8002484:	e019      	b.n	80024ba <CRYP_AESCCM_Process+0x352>
    {
      *(uint32_t *)(hcryp->pCrypOutBuffPtr + hcryp->CrypOutCount) = temp[loopcounter];
 8002486:	687b      	ldr	r3, [r7, #4]
 8002488:	6b9a      	ldr	r2, [r3, #56]	@ 0x38
 800248a:	687b      	ldr	r3, [r7, #4]
 800248c:	2140      	movs	r1, #64	@ 0x40
 800248e:	5a5b      	ldrh	r3, [r3, r1]
 8002490:	b29b      	uxth	r3, r3
 8002492:	009b      	lsls	r3, r3, #2
 8002494:	18d3      	adds	r3, r2, r3
 8002496:	2208      	movs	r2, #8
 8002498:	18ba      	adds	r2, r7, r2
 800249a:	6b39      	ldr	r1, [r7, #48]	@ 0x30
 800249c:	0089      	lsls	r1, r1, #2
 800249e:	588a      	ldr	r2, [r1, r2]
 80024a0:	601a      	str	r2, [r3, #0]
      hcryp->CrypOutCount++;
 80024a2:	687b      	ldr	r3, [r7, #4]
 80024a4:	2240      	movs	r2, #64	@ 0x40
 80024a6:	5a9b      	ldrh	r3, [r3, r2]
 80024a8:	b29b      	uxth	r3, r3
 80024aa:	3301      	adds	r3, #1
 80024ac:	b299      	uxth	r1, r3
 80024ae:	687b      	ldr	r3, [r7, #4]
 80024b0:	2240      	movs	r2, #64	@ 0x40
 80024b2:	5299      	strh	r1, [r3, r2]
    for (loopcounter = 0U; loopcounter < lastwordsize; loopcounter++)
 80024b4:	6b3b      	ldr	r3, [r7, #48]	@ 0x30
 80024b6:	3301      	adds	r3, #1
 80024b8:	633b      	str	r3, [r7, #48]	@ 0x30
 80024ba:	6b3a      	ldr	r2, [r7, #48]	@ 0x30
 80024bc:	6afb      	ldr	r3, [r7, #44]	@ 0x2c
 80024be:	429a      	cmp	r2, r3
 80024c0:	d3e1      	bcc.n	8002486 <CRYP_AESCCM_Process+0x31e>
    }
  }

  /* Return function status */
  return HAL_OK;
 80024c2:	2300      	movs	r3, #0
}
 80024c4:	0018      	movs	r0, r3
 80024c6:	46bd      	mov	sp, r7
 80024c8:	b00e      	add	sp, #56	@ 0x38
 80024ca:	bd80      	pop	{r7, pc}
 80024cc:	ffff9fff 	.word	0xffff9fff
 80024d0:	ff0fffff 	.word	0xff0fffff

080024d4 <CRYP_GCMCCM_SetPayloadPhase_IT>:
  * @param  hcryp pointer to a CRYP_HandleTypeDef structure that contains
  *         the configuration information for CRYP module
  * @retval state
  */
static void CRYP_GCMCCM_SetPayloadPhase_IT(CRYP_HandleTypeDef *hcryp)
{
 80024d4:	b590      	push	{r4, r7, lr}
 80024d6:	b08d      	sub	sp, #52	@ 0x34
 80024d8:	af00      	add	r7, sp, #0
 80024da:	6078      	str	r0, [r7, #4]

  /***************************** Payload phase *******************************/

  /* Read the output block from the output FIFO and put them in temporary buffer
     then get CrypOutBuff from temporary buffer*/
  for (i = 0U; i < 4U; i++)
 80024dc:	2300      	movs	r3, #0
 80024de:	627b      	str	r3, [r7, #36]	@ 0x24
 80024e0:	e00a      	b.n	80024f8 <CRYP_GCMCCM_SetPayloadPhase_IT+0x24>
  {
    temp[i] = hcryp->Instance->DOUTR;
 80024e2:	687b      	ldr	r3, [r7, #4]
 80024e4:	681b      	ldr	r3, [r3, #0]
 80024e6:	68d9      	ldr	r1, [r3, #12]
 80024e8:	2308      	movs	r3, #8
 80024ea:	18fb      	adds	r3, r7, r3
 80024ec:	6a7a      	ldr	r2, [r7, #36]	@ 0x24
 80024ee:	0092      	lsls	r2, r2, #2
 80024f0:	50d1      	str	r1, [r2, r3]
  for (i = 0U; i < 4U; i++)
 80024f2:	6a7b      	ldr	r3, [r7, #36]	@ 0x24
 80024f4:	3301      	adds	r3, #1
 80024f6:	627b      	str	r3, [r7, #36]	@ 0x24
 80024f8:	6a7b      	ldr	r3, [r7, #36]	@ 0x24
 80024fa:	2b03      	cmp	r3, #3
 80024fc:	d9f1      	bls.n	80024e2 <CRYP_GCMCCM_SetPayloadPhase_IT+0xe>
  }
  i = 0U;
 80024fe:	2300      	movs	r3, #0
 8002500:	627b      	str	r3, [r7, #36]	@ 0x24
  while ((hcryp->CrypOutCount < ((hcryp->Size + 3U) / 4U)) && (i < 4U))
 8002502:	e019      	b.n	8002538 <CRYP_GCMCCM_SetPayloadPhase_IT+0x64>
  {
    *(uint32_t *)(hcryp->pCrypOutBuffPtr + hcryp->CrypOutCount) = temp[i];
 8002504:	687b      	ldr	r3, [r7, #4]
 8002506:	6b9a      	ldr	r2, [r3, #56]	@ 0x38
 8002508:	687b      	ldr	r3, [r7, #4]
 800250a:	2140      	movs	r1, #64	@ 0x40
 800250c:	5a5b      	ldrh	r3, [r3, r1]
 800250e:	b29b      	uxth	r3, r3
 8002510:	009b      	lsls	r3, r3, #2
 8002512:	18d3      	adds	r3, r2, r3
 8002514:	2208      	movs	r2, #8
 8002516:	18ba      	adds	r2, r7, r2
 8002518:	6a79      	ldr	r1, [r7, #36]	@ 0x24
 800251a:	0089      	lsls	r1, r1, #2
 800251c:	588a      	ldr	r2, [r1, r2]
 800251e:	601a      	str	r2, [r3, #0]
    hcryp->CrypOutCount++;
 8002520:	687b      	ldr	r3, [r7, #4]
 8002522:	2240      	movs	r2, #64	@ 0x40
 8002524:	5a9b      	ldrh	r3, [r3, r2]
 8002526:	b29b      	uxth	r3, r3
 8002528:	3301      	adds	r3, #1
 800252a:	b299      	uxth	r1, r3
 800252c:	687b      	ldr	r3, [r7, #4]
 800252e:	2240      	movs	r2, #64	@ 0x40
 8002530:	5299      	strh	r1, [r3, r2]
    i++;
 8002532:	6a7b      	ldr	r3, [r7, #36]	@ 0x24
 8002534:	3301      	adds	r3, #1
 8002536:	627b      	str	r3, [r7, #36]	@ 0x24
  while ((hcryp->CrypOutCount < ((hcryp->Size + 3U) / 4U)) && (i < 4U))
 8002538:	687b      	ldr	r3, [r7, #4]
 800253a:	2240      	movs	r2, #64	@ 0x40
 800253c:	5a9b      	ldrh	r3, [r3, r2]
 800253e:	b29b      	uxth	r3, r3
 8002540:	0019      	movs	r1, r3
 8002542:	687b      	ldr	r3, [r7, #4]
 8002544:	2242      	movs	r2, #66	@ 0x42
 8002546:	5a9b      	ldrh	r3, [r3, r2]
 8002548:	3303      	adds	r3, #3
 800254a:	089b      	lsrs	r3, r3, #2
 800254c:	4299      	cmp	r1, r3
 800254e:	d202      	bcs.n	8002556 <CRYP_GCMCCM_SetPayloadPhase_IT+0x82>
 8002550:	6a7b      	ldr	r3, [r7, #36]	@ 0x24
 8002552:	2b03      	cmp	r3, #3
 8002554:	d9d6      	bls.n	8002504 <CRYP_GCMCCM_SetPayloadPhase_IT+0x30>
  }
  incount = hcryp->CrypInCount;
 8002556:	2022      	movs	r0, #34	@ 0x22
 8002558:	183b      	adds	r3, r7, r0
 800255a:	687a      	ldr	r2, [r7, #4]
 800255c:	8fd2      	ldrh	r2, [r2, #62]	@ 0x3e
 800255e:	801a      	strh	r2, [r3, #0]
  outcount = hcryp->CrypOutCount;
 8002560:	2420      	movs	r4, #32
 8002562:	193b      	adds	r3, r7, r4
 8002564:	687a      	ldr	r2, [r7, #4]
 8002566:	2140      	movs	r1, #64	@ 0x40
 8002568:	5a52      	ldrh	r2, [r2, r1]
 800256a:	801a      	strh	r2, [r3, #0]
  if ((outcount >= (hcryp->Size / 4U)) && ((incount * 4U) >=  hcryp->Size))
 800256c:	687b      	ldr	r3, [r7, #4]
 800256e:	2242      	movs	r2, #66	@ 0x42
 8002570:	5a9b      	ldrh	r3, [r3, r2]
 8002572:	089b      	lsrs	r3, r3, #2
 8002574:	b29b      	uxth	r3, r3
 8002576:	193a      	adds	r2, r7, r4
 8002578:	8812      	ldrh	r2, [r2, #0]
 800257a:	429a      	cmp	r2, r3
 800257c:	d326      	bcc.n	80025cc <CRYP_GCMCCM_SetPayloadPhase_IT+0xf8>
 800257e:	183b      	adds	r3, r7, r0
 8002580:	881b      	ldrh	r3, [r3, #0]
 8002582:	009b      	lsls	r3, r3, #2
 8002584:	687a      	ldr	r2, [r7, #4]
 8002586:	2142      	movs	r1, #66	@ 0x42
 8002588:	5a52      	ldrh	r2, [r2, r1]
 800258a:	4293      	cmp	r3, r2
 800258c:	d31e      	bcc.n	80025cc <CRYP_GCMCCM_SetPayloadPhase_IT+0xf8>
  {

    /* When in CCM with Key and IV configuration skipped, don't disable interruptions */
    if (!((hcryp->Init.Algorithm == CRYP_AES_CCM) && (hcryp->KeyIVConfig == 1U)))
 800258e:	687b      	ldr	r3, [r7, #4]
 8002590:	695a      	ldr	r2, [r3, #20]
 8002592:	2380      	movs	r3, #128	@ 0x80
 8002594:	025b      	lsls	r3, r3, #9
 8002596:	429a      	cmp	r2, r3
 8002598:	d103      	bne.n	80025a2 <CRYP_GCMCCM_SetPayloadPhase_IT+0xce>
 800259a:	687b      	ldr	r3, [r7, #4]
 800259c:	6d9b      	ldr	r3, [r3, #88]	@ 0x58
 800259e:	2b01      	cmp	r3, #1
 80025a0:	d007      	beq.n	80025b2 <CRYP_GCMCCM_SetPayloadPhase_IT+0xde>
    {
      /* Disable computation complete flag and errors interrupts */
      __HAL_CRYP_DISABLE_IT(hcryp, CRYP_IT_CCFIE | CRYP_IT_ERRIE);
 80025a2:	687b      	ldr	r3, [r7, #4]
 80025a4:	681b      	ldr	r3, [r3, #0]
 80025a6:	681a      	ldr	r2, [r3, #0]
 80025a8:	687b      	ldr	r3, [r7, #4]
 80025aa:	681b      	ldr	r3, [r3, #0]
 80025ac:	4974      	ldr	r1, [pc, #464]	@ (8002780 <CRYP_GCMCCM_SetPayloadPhase_IT+0x2ac>)
 80025ae:	400a      	ands	r2, r1
 80025b0:	601a      	str	r2, [r3, #0]
    }

    /* Change the CRYP state */
    hcryp->State = HAL_CRYP_STATE_READY;
 80025b2:	687b      	ldr	r3, [r7, #4]
 80025b4:	2251      	movs	r2, #81	@ 0x51
 80025b6:	2101      	movs	r1, #1
 80025b8:	5499      	strb	r1, [r3, r2]

    /* Process unlocked */
    __HAL_UNLOCK(hcryp);
 80025ba:	687b      	ldr	r3, [r7, #4]
 80025bc:	2250      	movs	r2, #80	@ 0x50
 80025be:	2100      	movs	r1, #0
 80025c0:	5499      	strb	r1, [r3, r2]
#if (USE_HAL_CRYP_REGISTER_CALLBACKS == 1U)
    /*Call registered Output complete callback*/
    hcryp->OutCpltCallback(hcryp);
#else
    /*Call legacy weak Output complete callback*/
    HAL_CRYP_OutCpltCallback(hcryp);
 80025c2:	687b      	ldr	r3, [r7, #4]
 80025c4:	0018      	movs	r0, r3
 80025c6:	f7ff f8a4 	bl	8001712 <HAL_CRYP_OutCpltCallback>
#else
    /*Call legacy weak Input complete callback*/
    HAL_CRYP_InCpltCallback(hcryp);
#endif /* USE_HAL_CRYP_REGISTER_CALLBACKS */
  }
}
 80025ca:	e0d5      	b.n	8002778 <CRYP_GCMCCM_SetPayloadPhase_IT+0x2a4>
  else if (((hcryp->Size / 4U) - (hcryp->CrypInCount)) >= 4U)
 80025cc:	687b      	ldr	r3, [r7, #4]
 80025ce:	2242      	movs	r2, #66	@ 0x42
 80025d0:	5a9b      	ldrh	r3, [r3, r2]
 80025d2:	089b      	lsrs	r3, r3, #2
 80025d4:	b29b      	uxth	r3, r3
 80025d6:	001a      	movs	r2, r3
 80025d8:	687b      	ldr	r3, [r7, #4]
 80025da:	8fdb      	ldrh	r3, [r3, #62]	@ 0x3e
 80025dc:	b29b      	uxth	r3, r3
 80025de:	1ad3      	subs	r3, r2, r3
 80025e0:	2b03      	cmp	r3, #3
 80025e2:	d960      	bls.n	80026a6 <CRYP_GCMCCM_SetPayloadPhase_IT+0x1d2>
      hcryp->Instance->DINR  = *(uint32_t *)(hcryp->pCrypInBuffPtr + hcryp->CrypInCount);
 80025e4:	687b      	ldr	r3, [r7, #4]
 80025e6:	6b5a      	ldr	r2, [r3, #52]	@ 0x34
 80025e8:	687b      	ldr	r3, [r7, #4]
 80025ea:	8fdb      	ldrh	r3, [r3, #62]	@ 0x3e
 80025ec:	b29b      	uxth	r3, r3
 80025ee:	009b      	lsls	r3, r3, #2
 80025f0:	18d2      	adds	r2, r2, r3
 80025f2:	687b      	ldr	r3, [r7, #4]
 80025f4:	681b      	ldr	r3, [r3, #0]
 80025f6:	6812      	ldr	r2, [r2, #0]
 80025f8:	609a      	str	r2, [r3, #8]
      hcryp->CrypInCount++;
 80025fa:	687b      	ldr	r3, [r7, #4]
 80025fc:	8fdb      	ldrh	r3, [r3, #62]	@ 0x3e
 80025fe:	b29b      	uxth	r3, r3
 8002600:	3301      	adds	r3, #1
 8002602:	b29a      	uxth	r2, r3
 8002604:	687b      	ldr	r3, [r7, #4]
 8002606:	87da      	strh	r2, [r3, #62]	@ 0x3e
      hcryp->Instance->DINR  = *(uint32_t *)(hcryp->pCrypInBuffPtr + hcryp->CrypInCount);
 8002608:	687b      	ldr	r3, [r7, #4]
 800260a:	6b5a      	ldr	r2, [r3, #52]	@ 0x34
 800260c:	687b      	ldr	r3, [r7, #4]
 800260e:	8fdb      	ldrh	r3, [r3, #62]	@ 0x3e
 8002610:	b29b      	uxth	r3, r3
 8002612:	009b      	lsls	r3, r3, #2
 8002614:	18d2      	adds	r2, r2, r3
 8002616:	687b      	ldr	r3, [r7, #4]
 8002618:	681b      	ldr	r3, [r3, #0]
 800261a:	6812      	ldr	r2, [r2, #0]
 800261c:	609a      	str	r2, [r3, #8]
      hcryp->CrypInCount++;
 800261e:	687b      	ldr	r3, [r7, #4]
 8002620:	8fdb      	ldrh	r3, [r3, #62]	@ 0x3e
 8002622:	b29b      	uxth	r3, r3
 8002624:	3301      	adds	r3, #1
 8002626:	b29a      	uxth	r2, r3
 8002628:	687b      	ldr	r3, [r7, #4]
 800262a:	87da      	strh	r2, [r3, #62]	@ 0x3e
      hcryp->Instance->DINR  = *(uint32_t *)(hcryp->pCrypInBuffPtr + hcryp->CrypInCount);
 800262c:	687b      	ldr	r3, [r7, #4]
 800262e:	6b5a      	ldr	r2, [r3, #52]	@ 0x34
 8002630:	687b      	ldr	r3, [r7, #4]
 8002632:	8fdb      	ldrh	r3, [r3, #62]	@ 0x3e
 8002634:	b29b      	uxth	r3, r3
 8002636:	009b      	lsls	r3, r3, #2
 8002638:	18d2      	adds	r2, r2, r3
 800263a:	687b      	ldr	r3, [r7, #4]
 800263c:	681b      	ldr	r3, [r3, #0]
 800263e:	6812      	ldr	r2, [r2, #0]
 8002640:	609a      	str	r2, [r3, #8]
      hcryp->CrypInCount++;
 8002642:	687b      	ldr	r3, [r7, #4]
 8002644:	8fdb      	ldrh	r3, [r3, #62]	@ 0x3e
 8002646:	b29b      	uxth	r3, r3
 8002648:	3301      	adds	r3, #1
 800264a:	b29a      	uxth	r2, r3
 800264c:	687b      	ldr	r3, [r7, #4]
 800264e:	87da      	strh	r2, [r3, #62]	@ 0x3e
      hcryp->Instance->DINR  = *(uint32_t *)(hcryp->pCrypInBuffPtr + hcryp->CrypInCount);
 8002650:	687b      	ldr	r3, [r7, #4]
 8002652:	6b5a      	ldr	r2, [r3, #52]	@ 0x34
 8002654:	687b      	ldr	r3, [r7, #4]
 8002656:	8fdb      	ldrh	r3, [r3, #62]	@ 0x3e
 8002658:	b29b      	uxth	r3, r3
 800265a:	009b      	lsls	r3, r3, #2
 800265c:	18d2      	adds	r2, r2, r3
 800265e:	687b      	ldr	r3, [r7, #4]
 8002660:	681b      	ldr	r3, [r3, #0]
 8002662:	6812      	ldr	r2, [r2, #0]
 8002664:	609a      	str	r2, [r3, #8]
      hcryp->CrypInCount++;
 8002666:	687b      	ldr	r3, [r7, #4]
 8002668:	8fdb      	ldrh	r3, [r3, #62]	@ 0x3e
 800266a:	b29b      	uxth	r3, r3
 800266c:	3301      	adds	r3, #1
 800266e:	b29a      	uxth	r2, r3
 8002670:	687b      	ldr	r3, [r7, #4]
 8002672:	87da      	strh	r2, [r3, #62]	@ 0x3e
      if ((hcryp->CrypInCount == (hcryp->Size / 4U)) && ((hcryp->Size % 16U) == 0U))
 8002674:	687b      	ldr	r3, [r7, #4]
 8002676:	8fdb      	ldrh	r3, [r3, #62]	@ 0x3e
 8002678:	b29a      	uxth	r2, r3
 800267a:	687b      	ldr	r3, [r7, #4]
 800267c:	2142      	movs	r1, #66	@ 0x42
 800267e:	5a5b      	ldrh	r3, [r3, r1]
 8002680:	089b      	lsrs	r3, r3, #2
 8002682:	b29b      	uxth	r3, r3
 8002684:	429a      	cmp	r2, r3
 8002686:	d000      	beq.n	800268a <CRYP_GCMCCM_SetPayloadPhase_IT+0x1b6>
 8002688:	e076      	b.n	8002778 <CRYP_GCMCCM_SetPayloadPhase_IT+0x2a4>
 800268a:	687b      	ldr	r3, [r7, #4]
 800268c:	2242      	movs	r2, #66	@ 0x42
 800268e:	5a9b      	ldrh	r3, [r3, r2]
 8002690:	220f      	movs	r2, #15
 8002692:	4013      	ands	r3, r2
 8002694:	b29b      	uxth	r3, r3
 8002696:	2b00      	cmp	r3, #0
 8002698:	d000      	beq.n	800269c <CRYP_GCMCCM_SetPayloadPhase_IT+0x1c8>
 800269a:	e06d      	b.n	8002778 <CRYP_GCMCCM_SetPayloadPhase_IT+0x2a4>
        HAL_CRYP_InCpltCallback(hcryp);
 800269c:	687b      	ldr	r3, [r7, #4]
 800269e:	0018      	movs	r0, r3
 80026a0:	f7ff f82f 	bl	8001702 <HAL_CRYP_InCpltCallback>
}
 80026a4:	e068      	b.n	8002778 <CRYP_GCMCCM_SetPayloadPhase_IT+0x2a4>
    npblb = ((((uint32_t)hcryp->Size / 16U) + 1U) * 16U) - ((uint32_t)hcryp->Size);
 80026a6:	687b      	ldr	r3, [r7, #4]
 80026a8:	2242      	movs	r2, #66	@ 0x42
 80026aa:	5a9b      	ldrh	r3, [r3, r2]
 80026ac:	091b      	lsrs	r3, r3, #4
 80026ae:	b29b      	uxth	r3, r3
 80026b0:	3301      	adds	r3, #1
 80026b2:	011b      	lsls	r3, r3, #4
 80026b4:	687a      	ldr	r2, [r7, #4]
 80026b6:	2142      	movs	r1, #66	@ 0x42
 80026b8:	5a52      	ldrh	r2, [r2, r1]
 80026ba:	1a9b      	subs	r3, r3, r2
 80026bc:	61fb      	str	r3, [r7, #28]
    mode = hcryp->Instance->CR & AES_CR_MODE;
 80026be:	687b      	ldr	r3, [r7, #4]
 80026c0:	681b      	ldr	r3, [r3, #0]
 80026c2:	681b      	ldr	r3, [r3, #0]
 80026c4:	2218      	movs	r2, #24
 80026c6:	4013      	ands	r3, r2
 80026c8:	61bb      	str	r3, [r7, #24]
    if (((mode == CRYP_OPERATINGMODE_ENCRYPT) && (hcryp->Init.Algorithm == CRYP_AES_GCM_GMAC)) ||
 80026ca:	69bb      	ldr	r3, [r7, #24]
 80026cc:	2b00      	cmp	r3, #0
 80026ce:	d103      	bne.n	80026d8 <CRYP_GCMCCM_SetPayloadPhase_IT+0x204>
 80026d0:	687b      	ldr	r3, [r7, #4]
 80026d2:	695b      	ldr	r3, [r3, #20]
 80026d4:	2b60      	cmp	r3, #96	@ 0x60
 80026d6:	d008      	beq.n	80026ea <CRYP_GCMCCM_SetPayloadPhase_IT+0x216>
 80026d8:	69bb      	ldr	r3, [r7, #24]
 80026da:	2b10      	cmp	r3, #16
 80026dc:	d111      	bne.n	8002702 <CRYP_GCMCCM_SetPayloadPhase_IT+0x22e>
        ((mode == CRYP_OPERATINGMODE_DECRYPT) && (hcryp->Init.Algorithm == CRYP_AES_CCM)))
 80026de:	687b      	ldr	r3, [r7, #4]
 80026e0:	695a      	ldr	r2, [r3, #20]
 80026e2:	2380      	movs	r3, #128	@ 0x80
 80026e4:	025b      	lsls	r3, r3, #9
 80026e6:	429a      	cmp	r2, r3
 80026e8:	d10b      	bne.n	8002702 <CRYP_GCMCCM_SetPayloadPhase_IT+0x22e>
      MODIFY_REG(hcryp->Instance->CR, AES_CR_NPBLB, npblb << 20U);
 80026ea:	687b      	ldr	r3, [r7, #4]
 80026ec:	681b      	ldr	r3, [r3, #0]
 80026ee:	681b      	ldr	r3, [r3, #0]
 80026f0:	4a24      	ldr	r2, [pc, #144]	@ (8002784 <CRYP_GCMCCM_SetPayloadPhase_IT+0x2b0>)
 80026f2:	4013      	ands	r3, r2
 80026f4:	0019      	movs	r1, r3
 80026f6:	69fb      	ldr	r3, [r7, #28]
 80026f8:	051a      	lsls	r2, r3, #20
 80026fa:	687b      	ldr	r3, [r7, #4]
 80026fc:	681b      	ldr	r3, [r3, #0]
 80026fe:	430a      	orrs	r2, r1
 8002700:	601a      	str	r2, [r3, #0]
    if ((npblb % 4U) == 0U)
 8002702:	69fb      	ldr	r3, [r7, #28]
 8002704:	2203      	movs	r2, #3
 8002706:	4013      	ands	r3, r2
 8002708:	d105      	bne.n	8002716 <CRYP_GCMCCM_SetPayloadPhase_IT+0x242>
      lastwordsize = (16U - npblb) / 4U;
 800270a:	69fb      	ldr	r3, [r7, #28]
 800270c:	2210      	movs	r2, #16
 800270e:	1ad3      	subs	r3, r2, r3
 8002710:	089b      	lsrs	r3, r3, #2
 8002712:	62bb      	str	r3, [r7, #40]	@ 0x28
 8002714:	e005      	b.n	8002722 <CRYP_GCMCCM_SetPayloadPhase_IT+0x24e>
      lastwordsize = ((16U - npblb) / 4U) + 1U;
 8002716:	69fb      	ldr	r3, [r7, #28]
 8002718:	2210      	movs	r2, #16
 800271a:	1ad3      	subs	r3, r2, r3
 800271c:	089b      	lsrs	r3, r3, #2
 800271e:	3301      	adds	r3, #1
 8002720:	62bb      	str	r3, [r7, #40]	@ 0x28
    for (loopcounter = 0U; loopcounter < lastwordsize; loopcounter++)
 8002722:	2300      	movs	r3, #0
 8002724:	62fb      	str	r3, [r7, #44]	@ 0x2c
 8002726:	e014      	b.n	8002752 <CRYP_GCMCCM_SetPayloadPhase_IT+0x27e>
      hcryp->Instance->DINR = *(uint32_t *)(hcryp->pCrypInBuffPtr + hcryp->CrypInCount);
 8002728:	687b      	ldr	r3, [r7, #4]
 800272a:	6b5a      	ldr	r2, [r3, #52]	@ 0x34
 800272c:	687b      	ldr	r3, [r7, #4]
 800272e:	8fdb      	ldrh	r3, [r3, #62]	@ 0x3e
 8002730:	b29b      	uxth	r3, r3
 8002732:	009b      	lsls	r3, r3, #2
 8002734:	18d2      	adds	r2, r2, r3
 8002736:	687b      	ldr	r3, [r7, #4]
 8002738:	681b      	ldr	r3, [r3, #0]
 800273a:	6812      	ldr	r2, [r2, #0]
 800273c:	609a      	str	r2, [r3, #8]
      hcryp->CrypInCount++;
 800273e:	687b      	ldr	r3, [r7, #4]
 8002740:	8fdb      	ldrh	r3, [r3, #62]	@ 0x3e
 8002742:	b29b      	uxth	r3, r3
 8002744:	3301      	adds	r3, #1
 8002746:	b29a      	uxth	r2, r3
 8002748:	687b      	ldr	r3, [r7, #4]
 800274a:	87da      	strh	r2, [r3, #62]	@ 0x3e
    for (loopcounter = 0U; loopcounter < lastwordsize; loopcounter++)
 800274c:	6afb      	ldr	r3, [r7, #44]	@ 0x2c
 800274e:	3301      	adds	r3, #1
 8002750:	62fb      	str	r3, [r7, #44]	@ 0x2c
 8002752:	6afa      	ldr	r2, [r7, #44]	@ 0x2c
 8002754:	6abb      	ldr	r3, [r7, #40]	@ 0x28
 8002756:	429a      	cmp	r2, r3
 8002758:	d3e6      	bcc.n	8002728 <CRYP_GCMCCM_SetPayloadPhase_IT+0x254>
    while (loopcounter < 4U)
 800275a:	e006      	b.n	800276a <CRYP_GCMCCM_SetPayloadPhase_IT+0x296>
      hcryp->Instance->DINR = 0x0U;
 800275c:	687b      	ldr	r3, [r7, #4]
 800275e:	681b      	ldr	r3, [r3, #0]
 8002760:	2200      	movs	r2, #0
 8002762:	609a      	str	r2, [r3, #8]
      loopcounter++;
 8002764:	6afb      	ldr	r3, [r7, #44]	@ 0x2c
 8002766:	3301      	adds	r3, #1
 8002768:	62fb      	str	r3, [r7, #44]	@ 0x2c
    while (loopcounter < 4U)
 800276a:	6afb      	ldr	r3, [r7, #44]	@ 0x2c
 800276c:	2b03      	cmp	r3, #3
 800276e:	d9f5      	bls.n	800275c <CRYP_GCMCCM_SetPayloadPhase_IT+0x288>
    HAL_CRYP_InCpltCallback(hcryp);
 8002770:	687b      	ldr	r3, [r7, #4]
 8002772:	0018      	movs	r0, r3
 8002774:	f7fe ffc5 	bl	8001702 <HAL_CRYP_InCpltCallback>
}
 8002778:	46c0      	nop			@ (mov r8, r8)
 800277a:	46bd      	mov	sp, r7
 800277c:	b00d      	add	sp, #52	@ 0x34
 800277e:	bd90      	pop	{r4, r7, pc}
 8002780:	fffff9ff 	.word	0xfffff9ff
 8002784:	ff0fffff 	.word	0xff0fffff

08002788 <CRYP_GCMCCM_SetHeaderPhase>:
  *         the configuration information for CRYP module(Header & HeaderSize)
  * @param  Timeout Timeout value
  * @retval state
  */
static HAL_StatusTypeDef CRYP_GCMCCM_SetHeaderPhase(CRYP_HandleTypeDef *hcryp, uint32_t Timeout)
{
 8002788:	b580      	push	{r7, lr}
 800278a:	b086      	sub	sp, #24
 800278c:	af00      	add	r7, sp, #0
 800278e:	6078      	str	r0, [r7, #4]
 8002790:	6039      	str	r1, [r7, #0]
                                     0x0U, 0x0000FF00U, 0x0000FFFFU, 0xFF00FFFFU,  /* 16-bit data type */
                                     0x0U, 0x000000FFU, 0x0000FFFFU, 0x00FFFFFFU
                                    }; /*  8-bit data type */

  /***************************** Header phase for GCM/GMAC or CCM *********************************/
  if (hcryp->Init.HeaderWidthUnit == CRYP_HEADERWIDTHUNIT_WORD)
 8002792:	687b      	ldr	r3, [r7, #4]
 8002794:	6a9b      	ldr	r3, [r3, #40]	@ 0x28
 8002796:	2b00      	cmp	r3, #0
 8002798:	d104      	bne.n	80027a4 <CRYP_GCMCCM_SetHeaderPhase+0x1c>
  {
    size_in_bytes = hcryp->Init.HeaderSize * 4U;
 800279a:	687b      	ldr	r3, [r7, #4]
 800279c:	69db      	ldr	r3, [r3, #28]
 800279e:	009b      	lsls	r3, r3, #2
 80027a0:	613b      	str	r3, [r7, #16]
 80027a2:	e002      	b.n	80027aa <CRYP_GCMCCM_SetHeaderPhase+0x22>
  }
  else
  {
    size_in_bytes = hcryp->Init.HeaderSize;
 80027a4:	687b      	ldr	r3, [r7, #4]
 80027a6:	69db      	ldr	r3, [r3, #28]
 80027a8:	613b      	str	r3, [r7, #16]
  }

  if ((size_in_bytes != 0U))
 80027aa:	693b      	ldr	r3, [r7, #16]
 80027ac:	2b00      	cmp	r3, #0
 80027ae:	d100      	bne.n	80027b2 <CRYP_GCMCCM_SetHeaderPhase+0x2a>
 80027b0:	e191      	b.n	8002ad6 <CRYP_GCMCCM_SetHeaderPhase+0x34e>
  {
    /* Select header phase */
    CRYP_SET_PHASE(hcryp, CRYP_PHASE_HEADER);
 80027b2:	687b      	ldr	r3, [r7, #4]
 80027b4:	681b      	ldr	r3, [r3, #0]
 80027b6:	681b      	ldr	r3, [r3, #0]
 80027b8:	4ad9      	ldr	r2, [pc, #868]	@ (8002b20 <CRYP_GCMCCM_SetHeaderPhase+0x398>)
 80027ba:	401a      	ands	r2, r3
 80027bc:	687b      	ldr	r3, [r7, #4]
 80027be:	681b      	ldr	r3, [r3, #0]
 80027c0:	2180      	movs	r1, #128	@ 0x80
 80027c2:	0189      	lsls	r1, r1, #6
 80027c4:	430a      	orrs	r2, r1
 80027c6:	601a      	str	r2, [r3, #0]

    /* Enable the CRYP peripheral */
    __HAL_CRYP_ENABLE(hcryp);
 80027c8:	687b      	ldr	r3, [r7, #4]
 80027ca:	681b      	ldr	r3, [r3, #0]
 80027cc:	681a      	ldr	r2, [r3, #0]
 80027ce:	687b      	ldr	r3, [r7, #4]
 80027d0:	681b      	ldr	r3, [r3, #0]
 80027d2:	2101      	movs	r1, #1
 80027d4:	430a      	orrs	r2, r1
 80027d6:	601a      	str	r2, [r3, #0]

    /* If size_in_bytes is a multiple of blocks (a multiple of four 32-bits words ) */
    if ((size_in_bytes % 16U) == 0U)
 80027d8:	693b      	ldr	r3, [r7, #16]
 80027da:	220f      	movs	r2, #15
 80027dc:	4013      	ands	r3, r2
 80027de:	d000      	beq.n	80027e2 <CRYP_GCMCCM_SetHeaderPhase+0x5a>
 80027e0:	e07c      	b.n	80028dc <CRYP_GCMCCM_SetHeaderPhase+0x154>
    {
      /*  No padding */
      for (loopcounter = 0U; (loopcounter < (size_in_bytes / 4U)); loopcounter += 4U)
 80027e2:	2300      	movs	r3, #0
 80027e4:	617b      	str	r3, [r7, #20]
 80027e6:	e072      	b.n	80028ce <CRYP_GCMCCM_SetHeaderPhase+0x146>
      {
        /* Write the input block in the data input register */
        hcryp->Instance->DINR = *(uint32_t *)(hcryp->Init.Header + hcryp->CrypHeaderCount);
 80027e8:	687b      	ldr	r3, [r7, #4]
 80027ea:	699a      	ldr	r2, [r3, #24]
 80027ec:	687b      	ldr	r3, [r7, #4]
 80027ee:	8f9b      	ldrh	r3, [r3, #60]	@ 0x3c
 80027f0:	b29b      	uxth	r3, r3
 80027f2:	009b      	lsls	r3, r3, #2
 80027f4:	18d2      	adds	r2, r2, r3
 80027f6:	687b      	ldr	r3, [r7, #4]
 80027f8:	681b      	ldr	r3, [r3, #0]
 80027fa:	6812      	ldr	r2, [r2, #0]
 80027fc:	609a      	str	r2, [r3, #8]
        hcryp->CrypHeaderCount++ ;
 80027fe:	687b      	ldr	r3, [r7, #4]
 8002800:	8f9b      	ldrh	r3, [r3, #60]	@ 0x3c
 8002802:	b29b      	uxth	r3, r3
 8002804:	3301      	adds	r3, #1
 8002806:	b29a      	uxth	r2, r3
 8002808:	687b      	ldr	r3, [r7, #4]
 800280a:	879a      	strh	r2, [r3, #60]	@ 0x3c
        hcryp->Instance->DINR = *(uint32_t *)(hcryp->Init.Header + hcryp->CrypHeaderCount);
 800280c:	687b      	ldr	r3, [r7, #4]
 800280e:	699a      	ldr	r2, [r3, #24]
 8002810:	687b      	ldr	r3, [r7, #4]
 8002812:	8f9b      	ldrh	r3, [r3, #60]	@ 0x3c
 8002814:	b29b      	uxth	r3, r3
 8002816:	009b      	lsls	r3, r3, #2
 8002818:	18d2      	adds	r2, r2, r3
 800281a:	687b      	ldr	r3, [r7, #4]
 800281c:	681b      	ldr	r3, [r3, #0]
 800281e:	6812      	ldr	r2, [r2, #0]
 8002820:	609a      	str	r2, [r3, #8]
        hcryp->CrypHeaderCount++ ;
 8002822:	687b      	ldr	r3, [r7, #4]
 8002824:	8f9b      	ldrh	r3, [r3, #60]	@ 0x3c
 8002826:	b29b      	uxth	r3, r3
 8002828:	3301      	adds	r3, #1
 800282a:	b29a      	uxth	r2, r3
 800282c:	687b      	ldr	r3, [r7, #4]
 800282e:	879a      	strh	r2, [r3, #60]	@ 0x3c
        hcryp->Instance->DINR  = *(uint32_t *)(hcryp->Init.Header + hcryp->CrypHeaderCount);
 8002830:	687b      	ldr	r3, [r7, #4]
 8002832:	699a      	ldr	r2, [r3, #24]
 8002834:	687b      	ldr	r3, [r7, #4]
 8002836:	8f9b      	ldrh	r3, [r3, #60]	@ 0x3c
 8002838:	b29b      	uxth	r3, r3
 800283a:	009b      	lsls	r3, r3, #2
 800283c:	18d2      	adds	r2, r2, r3
 800283e:	687b      	ldr	r3, [r7, #4]
 8002840:	681b      	ldr	r3, [r3, #0]
 8002842:	6812      	ldr	r2, [r2, #0]
 8002844:	609a      	str	r2, [r3, #8]
        hcryp->CrypHeaderCount++ ;
 8002846:	687b      	ldr	r3, [r7, #4]
 8002848:	8f9b      	ldrh	r3, [r3, #60]	@ 0x3c
 800284a:	b29b      	uxth	r3, r3
 800284c:	3301      	adds	r3, #1
 800284e:	b29a      	uxth	r2, r3
 8002850:	687b      	ldr	r3, [r7, #4]
 8002852:	879a      	strh	r2, [r3, #60]	@ 0x3c
        hcryp->Instance->DINR = *(uint32_t *)(hcryp->Init.Header + hcryp->CrypHeaderCount);
 8002854:	687b      	ldr	r3, [r7, #4]
 8002856:	699a      	ldr	r2, [r3, #24]
 8002858:	687b      	ldr	r3, [r7, #4]
 800285a:	8f9b      	ldrh	r3, [r3, #60]	@ 0x3c
 800285c:	b29b      	uxth	r3, r3
 800285e:	009b      	lsls	r3, r3, #2
 8002860:	18d2      	adds	r2, r2, r3
 8002862:	687b      	ldr	r3, [r7, #4]
 8002864:	681b      	ldr	r3, [r3, #0]
 8002866:	6812      	ldr	r2, [r2, #0]
 8002868:	609a      	str	r2, [r3, #8]
        hcryp->CrypHeaderCount++ ;
 800286a:	687b      	ldr	r3, [r7, #4]
 800286c:	8f9b      	ldrh	r3, [r3, #60]	@ 0x3c
 800286e:	b29b      	uxth	r3, r3
 8002870:	3301      	adds	r3, #1
 8002872:	b29a      	uxth	r2, r3
 8002874:	687b      	ldr	r3, [r7, #4]
 8002876:	879a      	strh	r2, [r3, #60]	@ 0x3c

        if (CRYP_WaitOnCCFlag(hcryp, Timeout) != HAL_OK)
 8002878:	683a      	ldr	r2, [r7, #0]
 800287a:	687b      	ldr	r3, [r7, #4]
 800287c:	0011      	movs	r1, r2
 800287e:	0018      	movs	r0, r3
 8002880:	f000 fb38 	bl	8002ef4 <CRYP_WaitOnCCFlag>
 8002884:	1e03      	subs	r3, r0, #0
 8002886:	d017      	beq.n	80028b8 <CRYP_GCMCCM_SetHeaderPhase+0x130>
        {
          /* Disable the CRYP peripheral clock */
          __HAL_CRYP_DISABLE(hcryp);
 8002888:	687b      	ldr	r3, [r7, #4]
 800288a:	681b      	ldr	r3, [r3, #0]
 800288c:	681a      	ldr	r2, [r3, #0]
 800288e:	687b      	ldr	r3, [r7, #4]
 8002890:	681b      	ldr	r3, [r3, #0]
 8002892:	2101      	movs	r1, #1
 8002894:	438a      	bics	r2, r1
 8002896:	601a      	str	r2, [r3, #0]

          /* Change state */
          hcryp->ErrorCode |= HAL_CRYP_ERROR_TIMEOUT;
 8002898:	687b      	ldr	r3, [r7, #4]
 800289a:	6d5b      	ldr	r3, [r3, #84]	@ 0x54
 800289c:	2210      	movs	r2, #16
 800289e:	431a      	orrs	r2, r3
 80028a0:	687b      	ldr	r3, [r7, #4]
 80028a2:	655a      	str	r2, [r3, #84]	@ 0x54
          hcryp->State = HAL_CRYP_STATE_READY;
 80028a4:	687b      	ldr	r3, [r7, #4]
 80028a6:	2251      	movs	r2, #81	@ 0x51
 80028a8:	2101      	movs	r1, #1
 80028aa:	5499      	strb	r1, [r3, r2]

          /* Process unlocked */
          __HAL_UNLOCK(hcryp);
 80028ac:	687b      	ldr	r3, [r7, #4]
 80028ae:	2250      	movs	r2, #80	@ 0x50
 80028b0:	2100      	movs	r1, #0
 80028b2:	5499      	strb	r1, [r3, r2]
          return HAL_ERROR;
 80028b4:	2301      	movs	r3, #1
 80028b6:	e12e      	b.n	8002b16 <CRYP_GCMCCM_SetHeaderPhase+0x38e>
        }
        /* Clear CCF flag */
        __HAL_CRYP_CLEAR_FLAG(hcryp, CRYP_CCF_CLEAR);
 80028b8:	687b      	ldr	r3, [r7, #4]
 80028ba:	681b      	ldr	r3, [r3, #0]
 80028bc:	681a      	ldr	r2, [r3, #0]
 80028be:	687b      	ldr	r3, [r7, #4]
 80028c0:	681b      	ldr	r3, [r3, #0]
 80028c2:	2180      	movs	r1, #128	@ 0x80
 80028c4:	430a      	orrs	r2, r1
 80028c6:	601a      	str	r2, [r3, #0]
      for (loopcounter = 0U; (loopcounter < (size_in_bytes / 4U)); loopcounter += 4U)
 80028c8:	697b      	ldr	r3, [r7, #20]
 80028ca:	3304      	adds	r3, #4
 80028cc:	617b      	str	r3, [r7, #20]
 80028ce:	693b      	ldr	r3, [r7, #16]
 80028d0:	089b      	lsrs	r3, r3, #2
 80028d2:	697a      	ldr	r2, [r7, #20]
 80028d4:	429a      	cmp	r2, r3
 80028d6:	d200      	bcs.n	80028da <CRYP_GCMCCM_SetHeaderPhase+0x152>
 80028d8:	e786      	b.n	80027e8 <CRYP_GCMCCM_SetHeaderPhase+0x60>
 80028da:	e11b      	b.n	8002b14 <CRYP_GCMCCM_SetHeaderPhase+0x38c>
      }
    }
    else
    {
      /* Write header block in the IN FIFO without last block */
      for (loopcounter = 0U; (loopcounter < ((size_in_bytes / 16U) * 4U)); loopcounter += 4U)
 80028dc:	2300      	movs	r3, #0
 80028de:	617b      	str	r3, [r7, #20]
 80028e0:	e072      	b.n	80029c8 <CRYP_GCMCCM_SetHeaderPhase+0x240>
      {
        /* Write the input block in the data input register */
        hcryp->Instance->DINR = *(uint32_t *)(hcryp->Init.Header + hcryp->CrypHeaderCount);
 80028e2:	687b      	ldr	r3, [r7, #4]
 80028e4:	699a      	ldr	r2, [r3, #24]
 80028e6:	687b      	ldr	r3, [r7, #4]
 80028e8:	8f9b      	ldrh	r3, [r3, #60]	@ 0x3c
 80028ea:	b29b      	uxth	r3, r3
 80028ec:	009b      	lsls	r3, r3, #2
 80028ee:	18d2      	adds	r2, r2, r3
 80028f0:	687b      	ldr	r3, [r7, #4]
 80028f2:	681b      	ldr	r3, [r3, #0]
 80028f4:	6812      	ldr	r2, [r2, #0]
 80028f6:	609a      	str	r2, [r3, #8]
        hcryp->CrypHeaderCount++ ;
 80028f8:	687b      	ldr	r3, [r7, #4]
 80028fa:	8f9b      	ldrh	r3, [r3, #60]	@ 0x3c
 80028fc:	b29b      	uxth	r3, r3
 80028fe:	3301      	adds	r3, #1
 8002900:	b29a      	uxth	r2, r3
 8002902:	687b      	ldr	r3, [r7, #4]
 8002904:	879a      	strh	r2, [r3, #60]	@ 0x3c
        hcryp->Instance->DINR = *(uint32_t *)(hcryp->Init.Header + hcryp->CrypHeaderCount);
 8002906:	687b      	ldr	r3, [r7, #4]
 8002908:	699a      	ldr	r2, [r3, #24]
 800290a:	687b      	ldr	r3, [r7, #4]
 800290c:	8f9b      	ldrh	r3, [r3, #60]	@ 0x3c
 800290e:	b29b      	uxth	r3, r3
 8002910:	009b      	lsls	r3, r3, #2
 8002912:	18d2      	adds	r2, r2, r3
 8002914:	687b      	ldr	r3, [r7, #4]
 8002916:	681b      	ldr	r3, [r3, #0]
 8002918:	6812      	ldr	r2, [r2, #0]
 800291a:	609a      	str	r2, [r3, #8]
        hcryp->CrypHeaderCount++ ;
 800291c:	687b      	ldr	r3, [r7, #4]
 800291e:	8f9b      	ldrh	r3, [r3, #60]	@ 0x3c
 8002920:	b29b      	uxth	r3, r3
 8002922:	3301      	adds	r3, #1
 8002924:	b29a      	uxth	r2, r3
 8002926:	687b      	ldr	r3, [r7, #4]
 8002928:	879a      	strh	r2, [r3, #60]	@ 0x3c
        hcryp->Instance->DINR  = *(uint32_t *)(hcryp->Init.Header + hcryp->CrypHeaderCount);
 800292a:	687b      	ldr	r3, [r7, #4]
 800292c:	699a      	ldr	r2, [r3, #24]
 800292e:	687b      	ldr	r3, [r7, #4]
 8002930:	8f9b      	ldrh	r3, [r3, #60]	@ 0x3c
 8002932:	b29b      	uxth	r3, r3
 8002934:	009b      	lsls	r3, r3, #2
 8002936:	18d2      	adds	r2, r2, r3
 8002938:	687b      	ldr	r3, [r7, #4]
 800293a:	681b      	ldr	r3, [r3, #0]
 800293c:	6812      	ldr	r2, [r2, #0]
 800293e:	609a      	str	r2, [r3, #8]
        hcryp->CrypHeaderCount++ ;
 8002940:	687b      	ldr	r3, [r7, #4]
 8002942:	8f9b      	ldrh	r3, [r3, #60]	@ 0x3c
 8002944:	b29b      	uxth	r3, r3
 8002946:	3301      	adds	r3, #1
 8002948:	b29a      	uxth	r2, r3
 800294a:	687b      	ldr	r3, [r7, #4]
 800294c:	879a      	strh	r2, [r3, #60]	@ 0x3c
        hcryp->Instance->DINR = *(uint32_t *)(hcryp->Init.Header + hcryp->CrypHeaderCount);
 800294e:	687b      	ldr	r3, [r7, #4]
 8002950:	699a      	ldr	r2, [r3, #24]
 8002952:	687b      	ldr	r3, [r7, #4]
 8002954:	8f9b      	ldrh	r3, [r3, #60]	@ 0x3c
 8002956:	b29b      	uxth	r3, r3
 8002958:	009b      	lsls	r3, r3, #2
 800295a:	18d2      	adds	r2, r2, r3
 800295c:	687b      	ldr	r3, [r7, #4]
 800295e:	681b      	ldr	r3, [r3, #0]
 8002960:	6812      	ldr	r2, [r2, #0]
 8002962:	609a      	str	r2, [r3, #8]
        hcryp->CrypHeaderCount++ ;
 8002964:	687b      	ldr	r3, [r7, #4]
 8002966:	8f9b      	ldrh	r3, [r3, #60]	@ 0x3c
 8002968:	b29b      	uxth	r3, r3
 800296a:	3301      	adds	r3, #1
 800296c:	b29a      	uxth	r2, r3
 800296e:	687b      	ldr	r3, [r7, #4]
 8002970:	879a      	strh	r2, [r3, #60]	@ 0x3c

        if (CRYP_WaitOnCCFlag(hcryp, Timeout) != HAL_OK)
 8002972:	683a      	ldr	r2, [r7, #0]
 8002974:	687b      	ldr	r3, [r7, #4]
 8002976:	0011      	movs	r1, r2
 8002978:	0018      	movs	r0, r3
 800297a:	f000 fabb 	bl	8002ef4 <CRYP_WaitOnCCFlag>
 800297e:	1e03      	subs	r3, r0, #0
 8002980:	d017      	beq.n	80029b2 <CRYP_GCMCCM_SetHeaderPhase+0x22a>
        {
          /* Disable the CRYP peripheral clock */
          __HAL_CRYP_DISABLE(hcryp);
 8002982:	687b      	ldr	r3, [r7, #4]
 8002984:	681b      	ldr	r3, [r3, #0]
 8002986:	681a      	ldr	r2, [r3, #0]
 8002988:	687b      	ldr	r3, [r7, #4]
 800298a:	681b      	ldr	r3, [r3, #0]
 800298c:	2101      	movs	r1, #1
 800298e:	438a      	bics	r2, r1
 8002990:	601a      	str	r2, [r3, #0]

          /* Change state */
          hcryp->ErrorCode |= HAL_CRYP_ERROR_TIMEOUT;
 8002992:	687b      	ldr	r3, [r7, #4]
 8002994:	6d5b      	ldr	r3, [r3, #84]	@ 0x54
 8002996:	2210      	movs	r2, #16
 8002998:	431a      	orrs	r2, r3
 800299a:	687b      	ldr	r3, [r7, #4]
 800299c:	655a      	str	r2, [r3, #84]	@ 0x54
          hcryp->State = HAL_CRYP_STATE_READY;
 800299e:	687b      	ldr	r3, [r7, #4]
 80029a0:	2251      	movs	r2, #81	@ 0x51
 80029a2:	2101      	movs	r1, #1
 80029a4:	5499      	strb	r1, [r3, r2]

          /* Process unlocked */
          __HAL_UNLOCK(hcryp);
 80029a6:	687b      	ldr	r3, [r7, #4]
 80029a8:	2250      	movs	r2, #80	@ 0x50
 80029aa:	2100      	movs	r1, #0
 80029ac:	5499      	strb	r1, [r3, r2]
          return HAL_ERROR;
 80029ae:	2301      	movs	r3, #1
 80029b0:	e0b1      	b.n	8002b16 <CRYP_GCMCCM_SetHeaderPhase+0x38e>
        }
        /* Clear CCF flag */
        __HAL_CRYP_CLEAR_FLAG(hcryp, CRYP_CCF_CLEAR);
 80029b2:	687b      	ldr	r3, [r7, #4]
 80029b4:	681b      	ldr	r3, [r3, #0]
 80029b6:	681a      	ldr	r2, [r3, #0]
 80029b8:	687b      	ldr	r3, [r7, #4]
 80029ba:	681b      	ldr	r3, [r3, #0]
 80029bc:	2180      	movs	r1, #128	@ 0x80
 80029be:	430a      	orrs	r2, r1
 80029c0:	601a      	str	r2, [r3, #0]
      for (loopcounter = 0U; (loopcounter < ((size_in_bytes / 16U) * 4U)); loopcounter += 4U)
 80029c2:	697b      	ldr	r3, [r7, #20]
 80029c4:	3304      	adds	r3, #4
 80029c6:	617b      	str	r3, [r7, #20]
 80029c8:	693b      	ldr	r3, [r7, #16]
 80029ca:	091b      	lsrs	r3, r3, #4
 80029cc:	009b      	lsls	r3, r3, #2
 80029ce:	697a      	ldr	r2, [r7, #20]
 80029d0:	429a      	cmp	r2, r3
 80029d2:	d200      	bcs.n	80029d6 <CRYP_GCMCCM_SetHeaderPhase+0x24e>
 80029d4:	e785      	b.n	80028e2 <CRYP_GCMCCM_SetHeaderPhase+0x15a>
      }
      /* Write last complete words */
      for (loopcounter = 0U; (loopcounter < ((size_in_bytes / 4U) % 4U)); loopcounter++)
 80029d6:	2300      	movs	r3, #0
 80029d8:	617b      	str	r3, [r7, #20]
 80029da:	e014      	b.n	8002a06 <CRYP_GCMCCM_SetHeaderPhase+0x27e>
      {
        hcryp->Instance->DINR = *(uint32_t *)(hcryp->Init.Header + hcryp->CrypHeaderCount);
 80029dc:	687b      	ldr	r3, [r7, #4]
 80029de:	699a      	ldr	r2, [r3, #24]
 80029e0:	687b      	ldr	r3, [r7, #4]
 80029e2:	8f9b      	ldrh	r3, [r3, #60]	@ 0x3c
 80029e4:	b29b      	uxth	r3, r3
 80029e6:	009b      	lsls	r3, r3, #2
 80029e8:	18d2      	adds	r2, r2, r3
 80029ea:	687b      	ldr	r3, [r7, #4]
 80029ec:	681b      	ldr	r3, [r3, #0]
 80029ee:	6812      	ldr	r2, [r2, #0]
 80029f0:	609a      	str	r2, [r3, #8]
        hcryp->CrypHeaderCount++ ;
 80029f2:	687b      	ldr	r3, [r7, #4]
 80029f4:	8f9b      	ldrh	r3, [r3, #60]	@ 0x3c
 80029f6:	b29b      	uxth	r3, r3
 80029f8:	3301      	adds	r3, #1
 80029fa:	b29a      	uxth	r2, r3
 80029fc:	687b      	ldr	r3, [r7, #4]
 80029fe:	879a      	strh	r2, [r3, #60]	@ 0x3c
      for (loopcounter = 0U; (loopcounter < ((size_in_bytes / 4U) % 4U)); loopcounter++)
 8002a00:	697b      	ldr	r3, [r7, #20]
 8002a02:	3301      	adds	r3, #1
 8002a04:	617b      	str	r3, [r7, #20]
 8002a06:	693b      	ldr	r3, [r7, #16]
 8002a08:	089b      	lsrs	r3, r3, #2
 8002a0a:	2203      	movs	r2, #3
 8002a0c:	4013      	ands	r3, r2
 8002a0e:	697a      	ldr	r2, [r7, #20]
 8002a10:	429a      	cmp	r2, r3
 8002a12:	d3e3      	bcc.n	80029dc <CRYP_GCMCCM_SetHeaderPhase+0x254>
      }
      /* If the header size is a multiple of words */
      if ((size_in_bytes % 4U) == 0U)
 8002a14:	693b      	ldr	r3, [r7, #16]
 8002a16:	2203      	movs	r2, #3
 8002a18:	4013      	ands	r3, r2
 8002a1a:	d10b      	bne.n	8002a34 <CRYP_GCMCCM_SetHeaderPhase+0x2ac>
      {
        /* Pad the data with zeros to have a complete block */
        while (loopcounter < 4U)
 8002a1c:	e006      	b.n	8002a2c <CRYP_GCMCCM_SetHeaderPhase+0x2a4>
        {
          hcryp->Instance->DINR = 0x0U;
 8002a1e:	687b      	ldr	r3, [r7, #4]
 8002a20:	681b      	ldr	r3, [r3, #0]
 8002a22:	2200      	movs	r2, #0
 8002a24:	609a      	str	r2, [r3, #8]
          loopcounter++;
 8002a26:	697b      	ldr	r3, [r7, #20]
 8002a28:	3301      	adds	r3, #1
 8002a2a:	617b      	str	r3, [r7, #20]
        while (loopcounter < 4U)
 8002a2c:	697b      	ldr	r3, [r7, #20]
 8002a2e:	2b03      	cmp	r3, #3
 8002a30:	d9f5      	bls.n	8002a1e <CRYP_GCMCCM_SetHeaderPhase+0x296>
 8002a32:	e027      	b.n	8002a84 <CRYP_GCMCCM_SetHeaderPhase+0x2fc>
        }
      }
      else
      {
        /* Enter last bytes, padded with zeros */
        tmp =  *(uint32_t *)(hcryp->Init.Header + hcryp->CrypHeaderCount);
 8002a34:	687b      	ldr	r3, [r7, #4]
 8002a36:	699a      	ldr	r2, [r3, #24]
 8002a38:	687b      	ldr	r3, [r7, #4]
 8002a3a:	8f9b      	ldrh	r3, [r3, #60]	@ 0x3c
 8002a3c:	b29b      	uxth	r3, r3
 8002a3e:	009b      	lsls	r3, r3, #2
 8002a40:	18d3      	adds	r3, r2, r3
 8002a42:	681b      	ldr	r3, [r3, #0]
 8002a44:	60fb      	str	r3, [r7, #12]
        tmp &= mask[(hcryp->Init.DataType * 2U) + (size_in_bytes % 4U)];
 8002a46:	687b      	ldr	r3, [r7, #4]
 8002a48:	685b      	ldr	r3, [r3, #4]
 8002a4a:	005a      	lsls	r2, r3, #1
 8002a4c:	693b      	ldr	r3, [r7, #16]
 8002a4e:	2103      	movs	r1, #3
 8002a50:	400b      	ands	r3, r1
 8002a52:	18d2      	adds	r2, r2, r3
 8002a54:	4b33      	ldr	r3, [pc, #204]	@ (8002b24 <CRYP_GCMCCM_SetHeaderPhase+0x39c>)
 8002a56:	0092      	lsls	r2, r2, #2
 8002a58:	58d2      	ldr	r2, [r2, r3]
 8002a5a:	68fb      	ldr	r3, [r7, #12]
 8002a5c:	4013      	ands	r3, r2
 8002a5e:	60fb      	str	r3, [r7, #12]
        hcryp->Instance->DINR = tmp;
 8002a60:	687b      	ldr	r3, [r7, #4]
 8002a62:	681b      	ldr	r3, [r3, #0]
 8002a64:	68fa      	ldr	r2, [r7, #12]
 8002a66:	609a      	str	r2, [r3, #8]
        loopcounter++;
 8002a68:	697b      	ldr	r3, [r7, #20]
 8002a6a:	3301      	adds	r3, #1
 8002a6c:	617b      	str	r3, [r7, #20]
        /* Pad the data with zeros to have a complete block */
        while (loopcounter < 4U)
 8002a6e:	e006      	b.n	8002a7e <CRYP_GCMCCM_SetHeaderPhase+0x2f6>
        {
          hcryp->Instance->DINR = 0x0U;
 8002a70:	687b      	ldr	r3, [r7, #4]
 8002a72:	681b      	ldr	r3, [r3, #0]
 8002a74:	2200      	movs	r2, #0
 8002a76:	609a      	str	r2, [r3, #8]
          loopcounter++;
 8002a78:	697b      	ldr	r3, [r7, #20]
 8002a7a:	3301      	adds	r3, #1
 8002a7c:	617b      	str	r3, [r7, #20]
        while (loopcounter < 4U)
 8002a7e:	697b      	ldr	r3, [r7, #20]
 8002a80:	2b03      	cmp	r3, #3
 8002a82:	d9f5      	bls.n	8002a70 <CRYP_GCMCCM_SetHeaderPhase+0x2e8>
        }
      }

      if (CRYP_WaitOnCCFlag(hcryp, Timeout) != HAL_OK)
 8002a84:	683a      	ldr	r2, [r7, #0]
 8002a86:	687b      	ldr	r3, [r7, #4]
 8002a88:	0011      	movs	r1, r2
 8002a8a:	0018      	movs	r0, r3
 8002a8c:	f000 fa32 	bl	8002ef4 <CRYP_WaitOnCCFlag>
 8002a90:	1e03      	subs	r3, r0, #0
 8002a92:	d017      	beq.n	8002ac4 <CRYP_GCMCCM_SetHeaderPhase+0x33c>
      {
        /* Disable the CRYP peripheral clock */
        __HAL_CRYP_DISABLE(hcryp);
 8002a94:	687b      	ldr	r3, [r7, #4]
 8002a96:	681b      	ldr	r3, [r3, #0]
 8002a98:	681a      	ldr	r2, [r3, #0]
 8002a9a:	687b      	ldr	r3, [r7, #4]
 8002a9c:	681b      	ldr	r3, [r3, #0]
 8002a9e:	2101      	movs	r1, #1
 8002aa0:	438a      	bics	r2, r1
 8002aa2:	601a      	str	r2, [r3, #0]

        /* Change state */
        hcryp->ErrorCode |= HAL_CRYP_ERROR_TIMEOUT;
 8002aa4:	687b      	ldr	r3, [r7, #4]
 8002aa6:	6d5b      	ldr	r3, [r3, #84]	@ 0x54
 8002aa8:	2210      	movs	r2, #16
 8002aaa:	431a      	orrs	r2, r3
 8002aac:	687b      	ldr	r3, [r7, #4]
 8002aae:	655a      	str	r2, [r3, #84]	@ 0x54
        hcryp->State = HAL_CRYP_STATE_READY;
 8002ab0:	687b      	ldr	r3, [r7, #4]
 8002ab2:	2251      	movs	r2, #81	@ 0x51
 8002ab4:	2101      	movs	r1, #1
 8002ab6:	5499      	strb	r1, [r3, r2]

        /* Process unlocked */
        __HAL_UNLOCK(hcryp);
 8002ab8:	687b      	ldr	r3, [r7, #4]
 8002aba:	2250      	movs	r2, #80	@ 0x50
 8002abc:	2100      	movs	r1, #0
 8002abe:	5499      	strb	r1, [r3, r2]
        return HAL_ERROR;
 8002ac0:	2301      	movs	r3, #1
 8002ac2:	e028      	b.n	8002b16 <CRYP_GCMCCM_SetHeaderPhase+0x38e>
      }
      /* Clear CCF flag */
      __HAL_CRYP_CLEAR_FLAG(hcryp, CRYP_CCF_CLEAR);
 8002ac4:	687b      	ldr	r3, [r7, #4]
 8002ac6:	681b      	ldr	r3, [r3, #0]
 8002ac8:	681a      	ldr	r2, [r3, #0]
 8002aca:	687b      	ldr	r3, [r7, #4]
 8002acc:	681b      	ldr	r3, [r3, #0]
 8002ace:	2180      	movs	r1, #128	@ 0x80
 8002ad0:	430a      	orrs	r2, r1
 8002ad2:	601a      	str	r2, [r3, #0]
 8002ad4:	e01e      	b.n	8002b14 <CRYP_GCMCCM_SetHeaderPhase+0x38c>
    }
  }
  else
  {
    /*Workaround 1: only AES, before re-enabling the peripheral, datatype can be configured.*/
    MODIFY_REG(hcryp->Instance->CR, AES_CR_DATATYPE, hcryp->Init.DataType);
 8002ad6:	687b      	ldr	r3, [r7, #4]
 8002ad8:	681b      	ldr	r3, [r3, #0]
 8002ada:	681b      	ldr	r3, [r3, #0]
 8002adc:	2206      	movs	r2, #6
 8002ade:	4393      	bics	r3, r2
 8002ae0:	0019      	movs	r1, r3
 8002ae2:	687b      	ldr	r3, [r7, #4]
 8002ae4:	685a      	ldr	r2, [r3, #4]
 8002ae6:	687b      	ldr	r3, [r7, #4]
 8002ae8:	681b      	ldr	r3, [r3, #0]
 8002aea:	430a      	orrs	r2, r1
 8002aec:	601a      	str	r2, [r3, #0]

    /* Select header phase */
    CRYP_SET_PHASE(hcryp, CRYP_PHASE_HEADER);
 8002aee:	687b      	ldr	r3, [r7, #4]
 8002af0:	681b      	ldr	r3, [r3, #0]
 8002af2:	681b      	ldr	r3, [r3, #0]
 8002af4:	4a0a      	ldr	r2, [pc, #40]	@ (8002b20 <CRYP_GCMCCM_SetHeaderPhase+0x398>)
 8002af6:	401a      	ands	r2, r3
 8002af8:	687b      	ldr	r3, [r7, #4]
 8002afa:	681b      	ldr	r3, [r3, #0]
 8002afc:	2180      	movs	r1, #128	@ 0x80
 8002afe:	0189      	lsls	r1, r1, #6
 8002b00:	430a      	orrs	r2, r1
 8002b02:	601a      	str	r2, [r3, #0]

    /* Enable the CRYP peripheral */
    __HAL_CRYP_ENABLE(hcryp);
 8002b04:	687b      	ldr	r3, [r7, #4]
 8002b06:	681b      	ldr	r3, [r3, #0]
 8002b08:	681a      	ldr	r2, [r3, #0]
 8002b0a:	687b      	ldr	r3, [r7, #4]
 8002b0c:	681b      	ldr	r3, [r3, #0]
 8002b0e:	2101      	movs	r1, #1
 8002b10:	430a      	orrs	r2, r1
 8002b12:	601a      	str	r2, [r3, #0]
  }
  /* Return function status */
  return HAL_OK;
 8002b14:	2300      	movs	r3, #0
}
 8002b16:	0018      	movs	r0, r3
 8002b18:	46bd      	mov	sp, r7
 8002b1a:	b006      	add	sp, #24
 8002b1c:	bd80      	pop	{r7, pc}
 8002b1e:	46c0      	nop			@ (mov r8, r8)
 8002b20:	ffff9fff 	.word	0xffff9fff
 8002b24:	08006e00 	.word	0x08006e00

08002b28 <CRYP_GCMCCM_SetHeaderPhase_IT>:
  * @param  hcryp pointer to a CRYP_HandleTypeDef structure that contains
  *         the configuration information for CRYP module(Header & HeaderSize)
  * @retval None
  */
static void CRYP_GCMCCM_SetHeaderPhase_IT(CRYP_HandleTypeDef *hcryp)
{
 8002b28:	b580      	push	{r7, lr}
 8002b2a:	b088      	sub	sp, #32
 8002b2c:	af00      	add	r7, sp, #0
 8002b2e:	6078      	str	r0, [r7, #4]
  static const uint32_t mask[12U] = {0x0U, 0xFF000000U, 0xFFFF0000U, 0xFFFFFF00U,  /* 32-bit data type */
                                     0x0U, 0x0000FF00U, 0x0000FFFFU, 0xFF00FFFFU,  /* 16-bit data type */
                                     0x0U, 0x000000FFU, 0x0000FFFFU, 0x00FFFFFFU
                                    }; /*  8-bit data type */

  if (hcryp->Init.HeaderWidthUnit == CRYP_HEADERWIDTHUNIT_WORD)
 8002b30:	687b      	ldr	r3, [r7, #4]
 8002b32:	6a9b      	ldr	r3, [r3, #40]	@ 0x28
 8002b34:	2b00      	cmp	r3, #0
 8002b36:	d104      	bne.n	8002b42 <CRYP_GCMCCM_SetHeaderPhase_IT+0x1a>
  {
    headersize_in_bytes = hcryp->Init.HeaderSize * 4U;
 8002b38:	687b      	ldr	r3, [r7, #4]
 8002b3a:	69db      	ldr	r3, [r3, #28]
 8002b3c:	009b      	lsls	r3, r3, #2
 8002b3e:	617b      	str	r3, [r7, #20]
 8002b40:	e002      	b.n	8002b48 <CRYP_GCMCCM_SetHeaderPhase_IT+0x20>
  }
  else
  {
    headersize_in_bytes = hcryp->Init.HeaderSize;
 8002b42:	687b      	ldr	r3, [r7, #4]
 8002b44:	69db      	ldr	r3, [r3, #28]
 8002b46:	617b      	str	r3, [r7, #20]
  }

  /***************************** Header phase *********************************/
  /* Test whether or not the header phase is over.
     If the test below is true, move to payload phase */
  if (headersize_in_bytes <= ((uint32_t)(hcryp->CrypHeaderCount) * 4U))
 8002b48:	687b      	ldr	r3, [r7, #4]
 8002b4a:	8f9b      	ldrh	r3, [r3, #60]	@ 0x3c
 8002b4c:	b29b      	uxth	r3, r3
 8002b4e:	009b      	lsls	r3, r3, #2
 8002b50:	697a      	ldr	r2, [r7, #20]
 8002b52:	429a      	cmp	r2, r3
 8002b54:	d900      	bls.n	8002b58 <CRYP_GCMCCM_SetHeaderPhase_IT+0x30>
 8002b56:	e103      	b.n	8002d60 <CRYP_GCMCCM_SetHeaderPhase_IT+0x238>
  {
    /* Set the phase */
    hcryp->Phase = CRYP_PHASE_PROCESS;
 8002b58:	687b      	ldr	r3, [r7, #4]
 8002b5a:	2202      	movs	r2, #2
 8002b5c:	645a      	str	r2, [r3, #68]	@ 0x44
    /* Select payload phase */
    MODIFY_REG(hcryp->Instance->CR, AES_CR_GCMPH, CRYP_PHASE_PAYLOAD);
 8002b5e:	687b      	ldr	r3, [r7, #4]
 8002b60:	681b      	ldr	r3, [r3, #0]
 8002b62:	681b      	ldr	r3, [r3, #0]
 8002b64:	4ad4      	ldr	r2, [pc, #848]	@ (8002eb8 <CRYP_GCMCCM_SetHeaderPhase_IT+0x390>)
 8002b66:	401a      	ands	r2, r3
 8002b68:	687b      	ldr	r3, [r7, #4]
 8002b6a:	681b      	ldr	r3, [r3, #0]
 8002b6c:	2180      	movs	r1, #128	@ 0x80
 8002b6e:	01c9      	lsls	r1, r1, #7
 8002b70:	430a      	orrs	r2, r1
 8002b72:	601a      	str	r2, [r3, #0]
    /* Set to 0 the number of non-valid bytes using NPBLB register*/
    MODIFY_REG(hcryp->Instance->CR, AES_CR_NPBLB, 0U);
 8002b74:	687b      	ldr	r3, [r7, #4]
 8002b76:	681b      	ldr	r3, [r3, #0]
 8002b78:	681a      	ldr	r2, [r3, #0]
 8002b7a:	687b      	ldr	r3, [r7, #4]
 8002b7c:	681b      	ldr	r3, [r3, #0]
 8002b7e:	49cf      	ldr	r1, [pc, #828]	@ (8002ebc <CRYP_GCMCCM_SetHeaderPhase_IT+0x394>)
 8002b80:	400a      	ands	r2, r1
 8002b82:	601a      	str	r2, [r3, #0]

    if (hcryp->Init.Algorithm == CRYP_AES_CCM)
 8002b84:	687b      	ldr	r3, [r7, #4]
 8002b86:	695a      	ldr	r2, [r3, #20]
 8002b88:	2380      	movs	r3, #128	@ 0x80
 8002b8a:	025b      	lsls	r3, r3, #9
 8002b8c:	429a      	cmp	r2, r3
 8002b8e:	d106      	bne.n	8002b9e <CRYP_GCMCCM_SetHeaderPhase_IT+0x76>
    {
      /* Increment CrypHeaderCount to pass in CRYP_GCMCCM_SetPayloadPhase_IT */
      hcryp->CrypHeaderCount++;
 8002b90:	687b      	ldr	r3, [r7, #4]
 8002b92:	8f9b      	ldrh	r3, [r3, #60]	@ 0x3c
 8002b94:	b29b      	uxth	r3, r3
 8002b96:	3301      	adds	r3, #1
 8002b98:	b29a      	uxth	r2, r3
 8002b9a:	687b      	ldr	r3, [r7, #4]
 8002b9c:	879a      	strh	r2, [r3, #60]	@ 0x3c
    }
    /* Write the payload Input block in the IN FIFO */
    if (hcryp->Size == 0U)
 8002b9e:	687b      	ldr	r3, [r7, #4]
 8002ba0:	2242      	movs	r2, #66	@ 0x42
 8002ba2:	5a9b      	ldrh	r3, [r3, r2]
 8002ba4:	2b00      	cmp	r3, #0
 8002ba6:	d110      	bne.n	8002bca <CRYP_GCMCCM_SetHeaderPhase_IT+0xa2>
    {
      /* Disable interrupts */
      __HAL_CRYP_DISABLE_IT(hcryp, CRYP_IT_CCFIE | CRYP_IT_ERRIE);
 8002ba8:	687b      	ldr	r3, [r7, #4]
 8002baa:	681b      	ldr	r3, [r3, #0]
 8002bac:	681a      	ldr	r2, [r3, #0]
 8002bae:	687b      	ldr	r3, [r7, #4]
 8002bb0:	681b      	ldr	r3, [r3, #0]
 8002bb2:	49c3      	ldr	r1, [pc, #780]	@ (8002ec0 <CRYP_GCMCCM_SetHeaderPhase_IT+0x398>)
 8002bb4:	400a      	ands	r2, r1
 8002bb6:	601a      	str	r2, [r3, #0]

      /* Change the CRYP state */
      hcryp->State = HAL_CRYP_STATE_READY;
 8002bb8:	687b      	ldr	r3, [r7, #4]
 8002bba:	2251      	movs	r2, #81	@ 0x51
 8002bbc:	2101      	movs	r1, #1
 8002bbe:	5499      	strb	r1, [r3, r2]

      /* Process unlocked */
      __HAL_UNLOCK(hcryp);
 8002bc0:	687b      	ldr	r3, [r7, #4]
 8002bc2:	2250      	movs	r2, #80	@ 0x50
 8002bc4:	2100      	movs	r1, #0
 8002bc6:	5499      	strb	r1, [r3, r2]
        loopcounter++;
        hcryp->CrypHeaderCount++;
      }
    }
  }
}
 8002bc8:	e18f      	b.n	8002eea <CRYP_GCMCCM_SetHeaderPhase_IT+0x3c2>
    else if (hcryp->Size >= 16U)
 8002bca:	687b      	ldr	r3, [r7, #4]
 8002bcc:	2242      	movs	r2, #66	@ 0x42
 8002bce:	5a9b      	ldrh	r3, [r3, r2]
 8002bd0:	2b0f      	cmp	r3, #15
 8002bd2:	d960      	bls.n	8002c96 <CRYP_GCMCCM_SetHeaderPhase_IT+0x16e>
      hcryp->Instance->DINR  = *(uint32_t *)(hcryp->pCrypInBuffPtr + hcryp->CrypInCount);
 8002bd4:	687b      	ldr	r3, [r7, #4]
 8002bd6:	6b5a      	ldr	r2, [r3, #52]	@ 0x34
 8002bd8:	687b      	ldr	r3, [r7, #4]
 8002bda:	8fdb      	ldrh	r3, [r3, #62]	@ 0x3e
 8002bdc:	b29b      	uxth	r3, r3
 8002bde:	009b      	lsls	r3, r3, #2
 8002be0:	18d2      	adds	r2, r2, r3
 8002be2:	687b      	ldr	r3, [r7, #4]
 8002be4:	681b      	ldr	r3, [r3, #0]
 8002be6:	6812      	ldr	r2, [r2, #0]
 8002be8:	609a      	str	r2, [r3, #8]
      hcryp->CrypInCount++;
 8002bea:	687b      	ldr	r3, [r7, #4]
 8002bec:	8fdb      	ldrh	r3, [r3, #62]	@ 0x3e
 8002bee:	b29b      	uxth	r3, r3
 8002bf0:	3301      	adds	r3, #1
 8002bf2:	b29a      	uxth	r2, r3
 8002bf4:	687b      	ldr	r3, [r7, #4]
 8002bf6:	87da      	strh	r2, [r3, #62]	@ 0x3e
      hcryp->Instance->DINR  = *(uint32_t *)(hcryp->pCrypInBuffPtr + hcryp->CrypInCount);
 8002bf8:	687b      	ldr	r3, [r7, #4]
 8002bfa:	6b5a      	ldr	r2, [r3, #52]	@ 0x34
 8002bfc:	687b      	ldr	r3, [r7, #4]
 8002bfe:	8fdb      	ldrh	r3, [r3, #62]	@ 0x3e
 8002c00:	b29b      	uxth	r3, r3
 8002c02:	009b      	lsls	r3, r3, #2
 8002c04:	18d2      	adds	r2, r2, r3
 8002c06:	687b      	ldr	r3, [r7, #4]
 8002c08:	681b      	ldr	r3, [r3, #0]
 8002c0a:	6812      	ldr	r2, [r2, #0]
 8002c0c:	609a      	str	r2, [r3, #8]
      hcryp->CrypInCount++;
 8002c0e:	687b      	ldr	r3, [r7, #4]
 8002c10:	8fdb      	ldrh	r3, [r3, #62]	@ 0x3e
 8002c12:	b29b      	uxth	r3, r3
 8002c14:	3301      	adds	r3, #1
 8002c16:	b29a      	uxth	r2, r3
 8002c18:	687b      	ldr	r3, [r7, #4]
 8002c1a:	87da      	strh	r2, [r3, #62]	@ 0x3e
      hcryp->Instance->DINR  = *(uint32_t *)(hcryp->pCrypInBuffPtr + hcryp->CrypInCount);
 8002c1c:	687b      	ldr	r3, [r7, #4]
 8002c1e:	6b5a      	ldr	r2, [r3, #52]	@ 0x34
 8002c20:	687b      	ldr	r3, [r7, #4]
 8002c22:	8fdb      	ldrh	r3, [r3, #62]	@ 0x3e
 8002c24:	b29b      	uxth	r3, r3
 8002c26:	009b      	lsls	r3, r3, #2
 8002c28:	18d2      	adds	r2, r2, r3
 8002c2a:	687b      	ldr	r3, [r7, #4]
 8002c2c:	681b      	ldr	r3, [r3, #0]
 8002c2e:	6812      	ldr	r2, [r2, #0]
 8002c30:	609a      	str	r2, [r3, #8]
      hcryp->CrypInCount++;
 8002c32:	687b      	ldr	r3, [r7, #4]
 8002c34:	8fdb      	ldrh	r3, [r3, #62]	@ 0x3e
 8002c36:	b29b      	uxth	r3, r3
 8002c38:	3301      	adds	r3, #1
 8002c3a:	b29a      	uxth	r2, r3
 8002c3c:	687b      	ldr	r3, [r7, #4]
 8002c3e:	87da      	strh	r2, [r3, #62]	@ 0x3e
      hcryp->Instance->DINR  = *(uint32_t *)(hcryp->pCrypInBuffPtr + hcryp->CrypInCount);
 8002c40:	687b      	ldr	r3, [r7, #4]
 8002c42:	6b5a      	ldr	r2, [r3, #52]	@ 0x34
 8002c44:	687b      	ldr	r3, [r7, #4]
 8002c46:	8fdb      	ldrh	r3, [r3, #62]	@ 0x3e
 8002c48:	b29b      	uxth	r3, r3
 8002c4a:	009b      	lsls	r3, r3, #2
 8002c4c:	18d2      	adds	r2, r2, r3
 8002c4e:	687b      	ldr	r3, [r7, #4]
 8002c50:	681b      	ldr	r3, [r3, #0]
 8002c52:	6812      	ldr	r2, [r2, #0]
 8002c54:	609a      	str	r2, [r3, #8]
      hcryp->CrypInCount++;
 8002c56:	687b      	ldr	r3, [r7, #4]
 8002c58:	8fdb      	ldrh	r3, [r3, #62]	@ 0x3e
 8002c5a:	b29b      	uxth	r3, r3
 8002c5c:	3301      	adds	r3, #1
 8002c5e:	b29a      	uxth	r2, r3
 8002c60:	687b      	ldr	r3, [r7, #4]
 8002c62:	87da      	strh	r2, [r3, #62]	@ 0x3e
      if ((hcryp->CrypInCount == (hcryp->Size / 4U)) && ((hcryp->Size % 16U) == 0U))
 8002c64:	687b      	ldr	r3, [r7, #4]
 8002c66:	8fdb      	ldrh	r3, [r3, #62]	@ 0x3e
 8002c68:	b29a      	uxth	r2, r3
 8002c6a:	687b      	ldr	r3, [r7, #4]
 8002c6c:	2142      	movs	r1, #66	@ 0x42
 8002c6e:	5a5b      	ldrh	r3, [r3, r1]
 8002c70:	089b      	lsrs	r3, r3, #2
 8002c72:	b29b      	uxth	r3, r3
 8002c74:	429a      	cmp	r2, r3
 8002c76:	d000      	beq.n	8002c7a <CRYP_GCMCCM_SetHeaderPhase_IT+0x152>
 8002c78:	e137      	b.n	8002eea <CRYP_GCMCCM_SetHeaderPhase_IT+0x3c2>
 8002c7a:	687b      	ldr	r3, [r7, #4]
 8002c7c:	2242      	movs	r2, #66	@ 0x42
 8002c7e:	5a9b      	ldrh	r3, [r3, r2]
 8002c80:	220f      	movs	r2, #15
 8002c82:	4013      	ands	r3, r2
 8002c84:	b29b      	uxth	r3, r3
 8002c86:	2b00      	cmp	r3, #0
 8002c88:	d000      	beq.n	8002c8c <CRYP_GCMCCM_SetHeaderPhase_IT+0x164>
 8002c8a:	e12e      	b.n	8002eea <CRYP_GCMCCM_SetHeaderPhase_IT+0x3c2>
        HAL_CRYP_InCpltCallback(hcryp);
 8002c8c:	687b      	ldr	r3, [r7, #4]
 8002c8e:	0018      	movs	r0, r3
 8002c90:	f7fe fd37 	bl	8001702 <HAL_CRYP_InCpltCallback>
}
 8002c94:	e129      	b.n	8002eea <CRYP_GCMCCM_SetHeaderPhase_IT+0x3c2>
      npblb = 16U - ((uint32_t)hcryp->Size);
 8002c96:	687b      	ldr	r3, [r7, #4]
 8002c98:	2242      	movs	r2, #66	@ 0x42
 8002c9a:	5a9b      	ldrh	r3, [r3, r2]
 8002c9c:	001a      	movs	r2, r3
 8002c9e:	2310      	movs	r3, #16
 8002ca0:	1a9b      	subs	r3, r3, r2
 8002ca2:	60fb      	str	r3, [r7, #12]
      mode = hcryp->Instance->CR & AES_CR_MODE;
 8002ca4:	687b      	ldr	r3, [r7, #4]
 8002ca6:	681b      	ldr	r3, [r3, #0]
 8002ca8:	681b      	ldr	r3, [r3, #0]
 8002caa:	2218      	movs	r2, #24
 8002cac:	4013      	ands	r3, r2
 8002cae:	60bb      	str	r3, [r7, #8]
      if (((mode == CRYP_OPERATINGMODE_ENCRYPT) && (hcryp->Init.Algorithm == CRYP_AES_GCM_GMAC)) ||
 8002cb0:	68bb      	ldr	r3, [r7, #8]
 8002cb2:	2b00      	cmp	r3, #0
 8002cb4:	d103      	bne.n	8002cbe <CRYP_GCMCCM_SetHeaderPhase_IT+0x196>
 8002cb6:	687b      	ldr	r3, [r7, #4]
 8002cb8:	695b      	ldr	r3, [r3, #20]
 8002cba:	2b60      	cmp	r3, #96	@ 0x60
 8002cbc:	d008      	beq.n	8002cd0 <CRYP_GCMCCM_SetHeaderPhase_IT+0x1a8>
 8002cbe:	68bb      	ldr	r3, [r7, #8]
 8002cc0:	2b10      	cmp	r3, #16
 8002cc2:	d111      	bne.n	8002ce8 <CRYP_GCMCCM_SetHeaderPhase_IT+0x1c0>
          ((mode == CRYP_OPERATINGMODE_DECRYPT) && (hcryp->Init.Algorithm == CRYP_AES_CCM)))
 8002cc4:	687b      	ldr	r3, [r7, #4]
 8002cc6:	695a      	ldr	r2, [r3, #20]
 8002cc8:	2380      	movs	r3, #128	@ 0x80
 8002cca:	025b      	lsls	r3, r3, #9
 8002ccc:	429a      	cmp	r2, r3
 8002cce:	d10b      	bne.n	8002ce8 <CRYP_GCMCCM_SetHeaderPhase_IT+0x1c0>
        MODIFY_REG(hcryp->Instance->CR, AES_CR_NPBLB, npblb << 20U);
 8002cd0:	687b      	ldr	r3, [r7, #4]
 8002cd2:	681b      	ldr	r3, [r3, #0]
 8002cd4:	681b      	ldr	r3, [r3, #0]
 8002cd6:	4a79      	ldr	r2, [pc, #484]	@ (8002ebc <CRYP_GCMCCM_SetHeaderPhase_IT+0x394>)
 8002cd8:	4013      	ands	r3, r2
 8002cda:	0019      	movs	r1, r3
 8002cdc:	68fb      	ldr	r3, [r7, #12]
 8002cde:	051a      	lsls	r2, r3, #20
 8002ce0:	687b      	ldr	r3, [r7, #4]
 8002ce2:	681b      	ldr	r3, [r3, #0]
 8002ce4:	430a      	orrs	r2, r1
 8002ce6:	601a      	str	r2, [r3, #0]
      if ((npblb % 4U) == 0U)
 8002ce8:	68fb      	ldr	r3, [r7, #12]
 8002cea:	2203      	movs	r2, #3
 8002cec:	4013      	ands	r3, r2
 8002cee:	d105      	bne.n	8002cfc <CRYP_GCMCCM_SetHeaderPhase_IT+0x1d4>
        lastwordsize = (16U - npblb) / 4U;
 8002cf0:	68fb      	ldr	r3, [r7, #12]
 8002cf2:	2210      	movs	r2, #16
 8002cf4:	1ad3      	subs	r3, r2, r3
 8002cf6:	089b      	lsrs	r3, r3, #2
 8002cf8:	61bb      	str	r3, [r7, #24]
 8002cfa:	e005      	b.n	8002d08 <CRYP_GCMCCM_SetHeaderPhase_IT+0x1e0>
        lastwordsize = ((16U - npblb) / 4U) + 1U;
 8002cfc:	68fb      	ldr	r3, [r7, #12]
 8002cfe:	2210      	movs	r2, #16
 8002d00:	1ad3      	subs	r3, r2, r3
 8002d02:	089b      	lsrs	r3, r3, #2
 8002d04:	3301      	adds	r3, #1
 8002d06:	61bb      	str	r3, [r7, #24]
      for (loopcounter = 0U; loopcounter < lastwordsize; loopcounter++)
 8002d08:	2300      	movs	r3, #0
 8002d0a:	61fb      	str	r3, [r7, #28]
 8002d0c:	e014      	b.n	8002d38 <CRYP_GCMCCM_SetHeaderPhase_IT+0x210>
        hcryp->Instance->DINR = *(uint32_t *)(hcryp->pCrypInBuffPtr + hcryp->CrypInCount);
 8002d0e:	687b      	ldr	r3, [r7, #4]
 8002d10:	6b5a      	ldr	r2, [r3, #52]	@ 0x34
 8002d12:	687b      	ldr	r3, [r7, #4]
 8002d14:	8fdb      	ldrh	r3, [r3, #62]	@ 0x3e
 8002d16:	b29b      	uxth	r3, r3
 8002d18:	009b      	lsls	r3, r3, #2
 8002d1a:	18d2      	adds	r2, r2, r3
 8002d1c:	687b      	ldr	r3, [r7, #4]
 8002d1e:	681b      	ldr	r3, [r3, #0]
 8002d20:	6812      	ldr	r2, [r2, #0]
 8002d22:	609a      	str	r2, [r3, #8]
        hcryp->CrypInCount++;
 8002d24:	687b      	ldr	r3, [r7, #4]
 8002d26:	8fdb      	ldrh	r3, [r3, #62]	@ 0x3e
 8002d28:	b29b      	uxth	r3, r3
 8002d2a:	3301      	adds	r3, #1
 8002d2c:	b29a      	uxth	r2, r3
 8002d2e:	687b      	ldr	r3, [r7, #4]
 8002d30:	87da      	strh	r2, [r3, #62]	@ 0x3e
      for (loopcounter = 0U; loopcounter < lastwordsize; loopcounter++)
 8002d32:	69fb      	ldr	r3, [r7, #28]
 8002d34:	3301      	adds	r3, #1
 8002d36:	61fb      	str	r3, [r7, #28]
 8002d38:	69fa      	ldr	r2, [r7, #28]
 8002d3a:	69bb      	ldr	r3, [r7, #24]
 8002d3c:	429a      	cmp	r2, r3
 8002d3e:	d3e6      	bcc.n	8002d0e <CRYP_GCMCCM_SetHeaderPhase_IT+0x1e6>
      while (loopcounter < 4U)
 8002d40:	e006      	b.n	8002d50 <CRYP_GCMCCM_SetHeaderPhase_IT+0x228>
        hcryp->Instance->DINR = 0x0U;
 8002d42:	687b      	ldr	r3, [r7, #4]
 8002d44:	681b      	ldr	r3, [r3, #0]
 8002d46:	2200      	movs	r2, #0
 8002d48:	609a      	str	r2, [r3, #8]
        loopcounter++;
 8002d4a:	69fb      	ldr	r3, [r7, #28]
 8002d4c:	3301      	adds	r3, #1
 8002d4e:	61fb      	str	r3, [r7, #28]
      while (loopcounter < 4U)
 8002d50:	69fb      	ldr	r3, [r7, #28]
 8002d52:	2b03      	cmp	r3, #3
 8002d54:	d9f5      	bls.n	8002d42 <CRYP_GCMCCM_SetHeaderPhase_IT+0x21a>
      HAL_CRYP_InCpltCallback(hcryp);
 8002d56:	687b      	ldr	r3, [r7, #4]
 8002d58:	0018      	movs	r0, r3
 8002d5a:	f7fe fcd2 	bl	8001702 <HAL_CRYP_InCpltCallback>
}
 8002d5e:	e0c4      	b.n	8002eea <CRYP_GCMCCM_SetHeaderPhase_IT+0x3c2>
  else if ((((headersize_in_bytes / 4U) - (hcryp->CrypHeaderCount)) >= 4U))
 8002d60:	697b      	ldr	r3, [r7, #20]
 8002d62:	089b      	lsrs	r3, r3, #2
 8002d64:	687a      	ldr	r2, [r7, #4]
 8002d66:	8f92      	ldrh	r2, [r2, #60]	@ 0x3c
 8002d68:	b292      	uxth	r2, r2
 8002d6a:	1a9b      	subs	r3, r3, r2
 8002d6c:	2b03      	cmp	r3, #3
 8002d6e:	d948      	bls.n	8002e02 <CRYP_GCMCCM_SetHeaderPhase_IT+0x2da>
      hcryp->Instance->DINR  = *(uint32_t *)(hcryp->Init.Header + hcryp->CrypHeaderCount);
 8002d70:	687b      	ldr	r3, [r7, #4]
 8002d72:	699a      	ldr	r2, [r3, #24]
 8002d74:	687b      	ldr	r3, [r7, #4]
 8002d76:	8f9b      	ldrh	r3, [r3, #60]	@ 0x3c
 8002d78:	b29b      	uxth	r3, r3
 8002d7a:	009b      	lsls	r3, r3, #2
 8002d7c:	18d2      	adds	r2, r2, r3
 8002d7e:	687b      	ldr	r3, [r7, #4]
 8002d80:	681b      	ldr	r3, [r3, #0]
 8002d82:	6812      	ldr	r2, [r2, #0]
 8002d84:	609a      	str	r2, [r3, #8]
      hcryp->CrypHeaderCount++;
 8002d86:	687b      	ldr	r3, [r7, #4]
 8002d88:	8f9b      	ldrh	r3, [r3, #60]	@ 0x3c
 8002d8a:	b29b      	uxth	r3, r3
 8002d8c:	3301      	adds	r3, #1
 8002d8e:	b29a      	uxth	r2, r3
 8002d90:	687b      	ldr	r3, [r7, #4]
 8002d92:	879a      	strh	r2, [r3, #60]	@ 0x3c
      hcryp->Instance->DINR  = *(uint32_t *)(hcryp->Init.Header + hcryp->CrypHeaderCount);
 8002d94:	687b      	ldr	r3, [r7, #4]
 8002d96:	699a      	ldr	r2, [r3, #24]
 8002d98:	687b      	ldr	r3, [r7, #4]
 8002d9a:	8f9b      	ldrh	r3, [r3, #60]	@ 0x3c
 8002d9c:	b29b      	uxth	r3, r3
 8002d9e:	009b      	lsls	r3, r3, #2
 8002da0:	18d2      	adds	r2, r2, r3
 8002da2:	687b      	ldr	r3, [r7, #4]
 8002da4:	681b      	ldr	r3, [r3, #0]
 8002da6:	6812      	ldr	r2, [r2, #0]
 8002da8:	609a      	str	r2, [r3, #8]
      hcryp->CrypHeaderCount++;
 8002daa:	687b      	ldr	r3, [r7, #4]
 8002dac:	8f9b      	ldrh	r3, [r3, #60]	@ 0x3c
 8002dae:	b29b      	uxth	r3, r3
 8002db0:	3301      	adds	r3, #1
 8002db2:	b29a      	uxth	r2, r3
 8002db4:	687b      	ldr	r3, [r7, #4]
 8002db6:	879a      	strh	r2, [r3, #60]	@ 0x3c
      hcryp->Instance->DINR  = *(uint32_t *)(hcryp->Init.Header + hcryp->CrypHeaderCount);
 8002db8:	687b      	ldr	r3, [r7, #4]
 8002dba:	699a      	ldr	r2, [r3, #24]
 8002dbc:	687b      	ldr	r3, [r7, #4]
 8002dbe:	8f9b      	ldrh	r3, [r3, #60]	@ 0x3c
 8002dc0:	b29b      	uxth	r3, r3
 8002dc2:	009b      	lsls	r3, r3, #2
 8002dc4:	18d2      	adds	r2, r2, r3
 8002dc6:	687b      	ldr	r3, [r7, #4]
 8002dc8:	681b      	ldr	r3, [r3, #0]
 8002dca:	6812      	ldr	r2, [r2, #0]
 8002dcc:	609a      	str	r2, [r3, #8]
      hcryp->CrypHeaderCount++;
 8002dce:	687b      	ldr	r3, [r7, #4]
 8002dd0:	8f9b      	ldrh	r3, [r3, #60]	@ 0x3c
 8002dd2:	b29b      	uxth	r3, r3
 8002dd4:	3301      	adds	r3, #1
 8002dd6:	b29a      	uxth	r2, r3
 8002dd8:	687b      	ldr	r3, [r7, #4]
 8002dda:	879a      	strh	r2, [r3, #60]	@ 0x3c
      hcryp->Instance->DINR  = *(uint32_t *)(hcryp->Init.Header + hcryp->CrypHeaderCount);
 8002ddc:	687b      	ldr	r3, [r7, #4]
 8002dde:	699a      	ldr	r2, [r3, #24]
 8002de0:	687b      	ldr	r3, [r7, #4]
 8002de2:	8f9b      	ldrh	r3, [r3, #60]	@ 0x3c
 8002de4:	b29b      	uxth	r3, r3
 8002de6:	009b      	lsls	r3, r3, #2
 8002de8:	18d2      	adds	r2, r2, r3
 8002dea:	687b      	ldr	r3, [r7, #4]
 8002dec:	681b      	ldr	r3, [r3, #0]
 8002dee:	6812      	ldr	r2, [r2, #0]
 8002df0:	609a      	str	r2, [r3, #8]
      hcryp->CrypHeaderCount++;
 8002df2:	687b      	ldr	r3, [r7, #4]
 8002df4:	8f9b      	ldrh	r3, [r3, #60]	@ 0x3c
 8002df6:	b29b      	uxth	r3, r3
 8002df8:	3301      	adds	r3, #1
 8002dfa:	b29a      	uxth	r2, r3
 8002dfc:	687b      	ldr	r3, [r7, #4]
 8002dfe:	879a      	strh	r2, [r3, #60]	@ 0x3c
}
 8002e00:	e073      	b.n	8002eea <CRYP_GCMCCM_SetHeaderPhase_IT+0x3c2>
    for (loopcounter = 0U; (loopcounter < ((headersize_in_bytes / 4U) % 4U)); loopcounter++)
 8002e02:	2300      	movs	r3, #0
 8002e04:	61fb      	str	r3, [r7, #28]
 8002e06:	e014      	b.n	8002e32 <CRYP_GCMCCM_SetHeaderPhase_IT+0x30a>
      hcryp->Instance->DINR = *(uint32_t *)(hcryp->Init.Header + hcryp->CrypHeaderCount);
 8002e08:	687b      	ldr	r3, [r7, #4]
 8002e0a:	699a      	ldr	r2, [r3, #24]
 8002e0c:	687b      	ldr	r3, [r7, #4]
 8002e0e:	8f9b      	ldrh	r3, [r3, #60]	@ 0x3c
 8002e10:	b29b      	uxth	r3, r3
 8002e12:	009b      	lsls	r3, r3, #2
 8002e14:	18d2      	adds	r2, r2, r3
 8002e16:	687b      	ldr	r3, [r7, #4]
 8002e18:	681b      	ldr	r3, [r3, #0]
 8002e1a:	6812      	ldr	r2, [r2, #0]
 8002e1c:	609a      	str	r2, [r3, #8]
      hcryp->CrypHeaderCount++ ;
 8002e1e:	687b      	ldr	r3, [r7, #4]
 8002e20:	8f9b      	ldrh	r3, [r3, #60]	@ 0x3c
 8002e22:	b29b      	uxth	r3, r3
 8002e24:	3301      	adds	r3, #1
 8002e26:	b29a      	uxth	r2, r3
 8002e28:	687b      	ldr	r3, [r7, #4]
 8002e2a:	879a      	strh	r2, [r3, #60]	@ 0x3c
    for (loopcounter = 0U; (loopcounter < ((headersize_in_bytes / 4U) % 4U)); loopcounter++)
 8002e2c:	69fb      	ldr	r3, [r7, #28]
 8002e2e:	3301      	adds	r3, #1
 8002e30:	61fb      	str	r3, [r7, #28]
 8002e32:	697b      	ldr	r3, [r7, #20]
 8002e34:	089b      	lsrs	r3, r3, #2
 8002e36:	2203      	movs	r2, #3
 8002e38:	4013      	ands	r3, r2
 8002e3a:	69fa      	ldr	r2, [r7, #28]
 8002e3c:	429a      	cmp	r2, r3
 8002e3e:	d3e3      	bcc.n	8002e08 <CRYP_GCMCCM_SetHeaderPhase_IT+0x2e0>
    if ((headersize_in_bytes % 4U) == 0U)
 8002e40:	697b      	ldr	r3, [r7, #20]
 8002e42:	2203      	movs	r2, #3
 8002e44:	4013      	ands	r3, r2
 8002e46:	d112      	bne.n	8002e6e <CRYP_GCMCCM_SetHeaderPhase_IT+0x346>
      while (loopcounter < 4U)
 8002e48:	e00d      	b.n	8002e66 <CRYP_GCMCCM_SetHeaderPhase_IT+0x33e>
        hcryp->Instance->DINR = 0x0U;
 8002e4a:	687b      	ldr	r3, [r7, #4]
 8002e4c:	681b      	ldr	r3, [r3, #0]
 8002e4e:	2200      	movs	r2, #0
 8002e50:	609a      	str	r2, [r3, #8]
        loopcounter++;
 8002e52:	69fb      	ldr	r3, [r7, #28]
 8002e54:	3301      	adds	r3, #1
 8002e56:	61fb      	str	r3, [r7, #28]
        hcryp->CrypHeaderCount++;
 8002e58:	687b      	ldr	r3, [r7, #4]
 8002e5a:	8f9b      	ldrh	r3, [r3, #60]	@ 0x3c
 8002e5c:	b29b      	uxth	r3, r3
 8002e5e:	3301      	adds	r3, #1
 8002e60:	b29a      	uxth	r2, r3
 8002e62:	687b      	ldr	r3, [r7, #4]
 8002e64:	879a      	strh	r2, [r3, #60]	@ 0x3c
      while (loopcounter < 4U)
 8002e66:	69fb      	ldr	r3, [r7, #28]
 8002e68:	2b03      	cmp	r3, #3
 8002e6a:	d9ee      	bls.n	8002e4a <CRYP_GCMCCM_SetHeaderPhase_IT+0x322>
}
 8002e6c:	e03d      	b.n	8002eea <CRYP_GCMCCM_SetHeaderPhase_IT+0x3c2>
      tmp =  *(uint32_t *)(hcryp->Init.Header + hcryp->CrypHeaderCount);
 8002e6e:	687b      	ldr	r3, [r7, #4]
 8002e70:	699a      	ldr	r2, [r3, #24]
 8002e72:	687b      	ldr	r3, [r7, #4]
 8002e74:	8f9b      	ldrh	r3, [r3, #60]	@ 0x3c
 8002e76:	b29b      	uxth	r3, r3
 8002e78:	009b      	lsls	r3, r3, #2
 8002e7a:	18d3      	adds	r3, r2, r3
 8002e7c:	681b      	ldr	r3, [r3, #0]
 8002e7e:	613b      	str	r3, [r7, #16]
      tmp &= mask[(hcryp->Init.DataType * 2U) + (headersize_in_bytes % 4U)];
 8002e80:	687b      	ldr	r3, [r7, #4]
 8002e82:	685b      	ldr	r3, [r3, #4]
 8002e84:	005a      	lsls	r2, r3, #1
 8002e86:	697b      	ldr	r3, [r7, #20]
 8002e88:	2103      	movs	r1, #3
 8002e8a:	400b      	ands	r3, r1
 8002e8c:	18d2      	adds	r2, r2, r3
 8002e8e:	4b0d      	ldr	r3, [pc, #52]	@ (8002ec4 <CRYP_GCMCCM_SetHeaderPhase_IT+0x39c>)
 8002e90:	0092      	lsls	r2, r2, #2
 8002e92:	58d2      	ldr	r2, [r2, r3]
 8002e94:	693b      	ldr	r3, [r7, #16]
 8002e96:	4013      	ands	r3, r2
 8002e98:	613b      	str	r3, [r7, #16]
      hcryp->Instance->DINR = tmp;
 8002e9a:	687b      	ldr	r3, [r7, #4]
 8002e9c:	681b      	ldr	r3, [r3, #0]
 8002e9e:	693a      	ldr	r2, [r7, #16]
 8002ea0:	609a      	str	r2, [r3, #8]
      loopcounter++;
 8002ea2:	69fb      	ldr	r3, [r7, #28]
 8002ea4:	3301      	adds	r3, #1
 8002ea6:	61fb      	str	r3, [r7, #28]
      hcryp->CrypHeaderCount++;
 8002ea8:	687b      	ldr	r3, [r7, #4]
 8002eaa:	8f9b      	ldrh	r3, [r3, #60]	@ 0x3c
 8002eac:	b29b      	uxth	r3, r3
 8002eae:	3301      	adds	r3, #1
 8002eb0:	b29a      	uxth	r2, r3
 8002eb2:	687b      	ldr	r3, [r7, #4]
 8002eb4:	879a      	strh	r2, [r3, #60]	@ 0x3c
      while (loopcounter < 4U)
 8002eb6:	e015      	b.n	8002ee4 <CRYP_GCMCCM_SetHeaderPhase_IT+0x3bc>
 8002eb8:	ffff9fff 	.word	0xffff9fff
 8002ebc:	ff0fffff 	.word	0xff0fffff
 8002ec0:	fffff9ff 	.word	0xfffff9ff
 8002ec4:	08006e30 	.word	0x08006e30
        hcryp->Instance->DINR = 0x0U;
 8002ec8:	687b      	ldr	r3, [r7, #4]
 8002eca:	681b      	ldr	r3, [r3, #0]
 8002ecc:	2200      	movs	r2, #0
 8002ece:	609a      	str	r2, [r3, #8]
        loopcounter++;
 8002ed0:	69fb      	ldr	r3, [r7, #28]
 8002ed2:	3301      	adds	r3, #1
 8002ed4:	61fb      	str	r3, [r7, #28]
        hcryp->CrypHeaderCount++;
 8002ed6:	687b      	ldr	r3, [r7, #4]
 8002ed8:	8f9b      	ldrh	r3, [r3, #60]	@ 0x3c
 8002eda:	b29b      	uxth	r3, r3
 8002edc:	3301      	adds	r3, #1
 8002ede:	b29a      	uxth	r2, r3
 8002ee0:	687b      	ldr	r3, [r7, #4]
 8002ee2:	879a      	strh	r2, [r3, #60]	@ 0x3c
      while (loopcounter < 4U)
 8002ee4:	69fb      	ldr	r3, [r7, #28]
 8002ee6:	2b03      	cmp	r3, #3
 8002ee8:	d9ee      	bls.n	8002ec8 <CRYP_GCMCCM_SetHeaderPhase_IT+0x3a0>
}
 8002eea:	46c0      	nop			@ (mov r8, r8)
 8002eec:	46bd      	mov	sp, r7
 8002eee:	b008      	add	sp, #32
 8002ef0:	bd80      	pop	{r7, pc}
 8002ef2:	46c0      	nop			@ (mov r8, r8)

08002ef4 <CRYP_WaitOnCCFlag>:
  * @param  Timeout Timeout duration.
  * @note   This function can only be used in thread mode.
  * @retval HAL status
  */
static HAL_StatusTypeDef CRYP_WaitOnCCFlag(CRYP_HandleTypeDef *hcryp, uint32_t Timeout)
{
 8002ef4:	b580      	push	{r7, lr}
 8002ef6:	b084      	sub	sp, #16
 8002ef8:	af00      	add	r7, sp, #0
 8002efa:	6078      	str	r0, [r7, #4]
 8002efc:	6039      	str	r1, [r7, #0]
  uint32_t tickstart;

  /* Get timeout */
  tickstart = HAL_GetTick();
 8002efe:	f7fe f8e3 	bl	80010c8 <HAL_GetTick>
 8002f02:	0003      	movs	r3, r0
 8002f04:	60fb      	str	r3, [r7, #12]

  while (HAL_IS_BIT_CLR(hcryp->Instance->SR, AES_SR_CCF))
 8002f06:	e00f      	b.n	8002f28 <CRYP_WaitOnCCFlag+0x34>
  {
    /* Check for the Timeout */
    if (Timeout != HAL_MAX_DELAY)
 8002f08:	683b      	ldr	r3, [r7, #0]
 8002f0a:	3301      	adds	r3, #1
 8002f0c:	d00c      	beq.n	8002f28 <CRYP_WaitOnCCFlag+0x34>
    {
      if (((HAL_GetTick() - tickstart) > Timeout) || (Timeout == 0U))
 8002f0e:	f7fe f8db 	bl	80010c8 <HAL_GetTick>
 8002f12:	0002      	movs	r2, r0
 8002f14:	68fb      	ldr	r3, [r7, #12]
 8002f16:	1ad3      	subs	r3, r2, r3
 8002f18:	683a      	ldr	r2, [r7, #0]
 8002f1a:	429a      	cmp	r2, r3
 8002f1c:	d302      	bcc.n	8002f24 <CRYP_WaitOnCCFlag+0x30>
 8002f1e:	683b      	ldr	r3, [r7, #0]
 8002f20:	2b00      	cmp	r3, #0
 8002f22:	d101      	bne.n	8002f28 <CRYP_WaitOnCCFlag+0x34>
      {
        return HAL_ERROR;
 8002f24:	2301      	movs	r3, #1
 8002f26:	e006      	b.n	8002f36 <CRYP_WaitOnCCFlag+0x42>
  while (HAL_IS_BIT_CLR(hcryp->Instance->SR, AES_SR_CCF))
 8002f28:	687b      	ldr	r3, [r7, #4]
 8002f2a:	681b      	ldr	r3, [r3, #0]
 8002f2c:	685b      	ldr	r3, [r3, #4]
 8002f2e:	2201      	movs	r2, #1
 8002f30:	4013      	ands	r3, r2
 8002f32:	d0e9      	beq.n	8002f08 <CRYP_WaitOnCCFlag+0x14>
      }
    }
  }
  return HAL_OK;
 8002f34:	2300      	movs	r3, #0
}
 8002f36:	0018      	movs	r0, r3
 8002f38:	46bd      	mov	sp, r7
 8002f3a:	b004      	add	sp, #16
 8002f3c:	bd80      	pop	{r7, pc}

08002f3e <HAL_EXTI_RegisterCallback>:
  * @param  pPendingCbfn function pointer to be stored as callback.
  * @retval HAL Status.
  */
HAL_StatusTypeDef HAL_EXTI_RegisterCallback(EXTI_HandleTypeDef *hexti, EXTI_CallbackIDTypeDef CallbackID,
                                            void (*pPendingCbfn)(void))
{
 8002f3e:	b580      	push	{r7, lr}
 8002f40:	b086      	sub	sp, #24
 8002f42:	af00      	add	r7, sp, #0
 8002f44:	60f8      	str	r0, [r7, #12]
 8002f46:	607a      	str	r2, [r7, #4]
 8002f48:	200b      	movs	r0, #11
 8002f4a:	183b      	adds	r3, r7, r0
 8002f4c:	1c0a      	adds	r2, r1, #0
 8002f4e:	701a      	strb	r2, [r3, #0]
  HAL_StatusTypeDef status = HAL_OK;
 8002f50:	2317      	movs	r3, #23
 8002f52:	18fb      	adds	r3, r7, r3
 8002f54:	2200      	movs	r2, #0
 8002f56:	701a      	strb	r2, [r3, #0]

  switch (CallbackID)
 8002f58:	183b      	adds	r3, r7, r0
 8002f5a:	781b      	ldrb	r3, [r3, #0]
 8002f5c:	2b02      	cmp	r3, #2
 8002f5e:	d010      	beq.n	8002f82 <HAL_EXTI_RegisterCallback+0x44>
 8002f60:	dc13      	bgt.n	8002f8a <HAL_EXTI_RegisterCallback+0x4c>
 8002f62:	2b00      	cmp	r3, #0
 8002f64:	d002      	beq.n	8002f6c <HAL_EXTI_RegisterCallback+0x2e>
 8002f66:	2b01      	cmp	r3, #1
 8002f68:	d007      	beq.n	8002f7a <HAL_EXTI_RegisterCallback+0x3c>
 8002f6a:	e00e      	b.n	8002f8a <HAL_EXTI_RegisterCallback+0x4c>
  {
    case  HAL_EXTI_COMMON_CB_ID:
      hexti->RisingCallback = pPendingCbfn;
 8002f6c:	68fb      	ldr	r3, [r7, #12]
 8002f6e:	687a      	ldr	r2, [r7, #4]
 8002f70:	605a      	str	r2, [r3, #4]
      hexti->FallingCallback = pPendingCbfn;
 8002f72:	68fb      	ldr	r3, [r7, #12]
 8002f74:	687a      	ldr	r2, [r7, #4]
 8002f76:	609a      	str	r2, [r3, #8]
      break;
 8002f78:	e00c      	b.n	8002f94 <HAL_EXTI_RegisterCallback+0x56>

    case  HAL_EXTI_RISING_CB_ID:
      hexti->RisingCallback = pPendingCbfn;
 8002f7a:	68fb      	ldr	r3, [r7, #12]
 8002f7c:	687a      	ldr	r2, [r7, #4]
 8002f7e:	605a      	str	r2, [r3, #4]
      break;
 8002f80:	e008      	b.n	8002f94 <HAL_EXTI_RegisterCallback+0x56>

    case  HAL_EXTI_FALLING_CB_ID:
      hexti->FallingCallback = pPendingCbfn;
 8002f82:	68fb      	ldr	r3, [r7, #12]
 8002f84:	687a      	ldr	r2, [r7, #4]
 8002f86:	609a      	str	r2, [r3, #8]
      break;
 8002f88:	e004      	b.n	8002f94 <HAL_EXTI_RegisterCallback+0x56>

    default:
      status = HAL_ERROR;
 8002f8a:	2317      	movs	r3, #23
 8002f8c:	18fb      	adds	r3, r7, r3
 8002f8e:	2201      	movs	r2, #1
 8002f90:	701a      	strb	r2, [r3, #0]
      break;
 8002f92:	46c0      	nop			@ (mov r8, r8)
  }

  return status;
 8002f94:	2317      	movs	r3, #23
 8002f96:	18fb      	adds	r3, r7, r3
 8002f98:	781b      	ldrb	r3, [r3, #0]
}
 8002f9a:	0018      	movs	r0, r3
 8002f9c:	46bd      	mov	sp, r7
 8002f9e:	b006      	add	sp, #24
 8002fa0:	bd80      	pop	{r7, pc}

08002fa2 <HAL_EXTI_GetHandle>:
  * @param  ExtiLine Exti line number.
  *         This parameter can be from 0 to @ref EXTI_LINE_NB.
  * @retval HAL Status.
  */
HAL_StatusTypeDef HAL_EXTI_GetHandle(EXTI_HandleTypeDef *hexti, uint32_t ExtiLine)
{
 8002fa2:	b580      	push	{r7, lr}
 8002fa4:	b082      	sub	sp, #8
 8002fa6:	af00      	add	r7, sp, #0
 8002fa8:	6078      	str	r0, [r7, #4]
 8002faa:	6039      	str	r1, [r7, #0]
  /* Check the parameters */
  assert_param(IS_EXTI_LINE(ExtiLine));

  /* Check null pointer */
  if (hexti == NULL)
 8002fac:	687b      	ldr	r3, [r7, #4]
 8002fae:	2b00      	cmp	r3, #0
 8002fb0:	d101      	bne.n	8002fb6 <HAL_EXTI_GetHandle+0x14>
  {
    return HAL_ERROR;
 8002fb2:	2301      	movs	r3, #1
 8002fb4:	e003      	b.n	8002fbe <HAL_EXTI_GetHandle+0x1c>
  }
  else
  {
    /* Store line number as handle private field */
    hexti->Line = ExtiLine;
 8002fb6:	687b      	ldr	r3, [r7, #4]
 8002fb8:	683a      	ldr	r2, [r7, #0]
 8002fba:	601a      	str	r2, [r3, #0]

    return HAL_OK;
 8002fbc:	2300      	movs	r3, #0
  }
}
 8002fbe:	0018      	movs	r0, r3
 8002fc0:	46bd      	mov	sp, r7
 8002fc2:	b002      	add	sp, #8
 8002fc4:	bd80      	pop	{r7, pc}
	...

08002fc8 <HAL_EXTI_IRQHandler>:
  * @brief  Handle EXTI interrupt request.
  * @param  hexti Exti handle.
  * @retval none.
  */
void HAL_EXTI_IRQHandler(EXTI_HandleTypeDef *hexti)
{
 8002fc8:	b580      	push	{r7, lr}
 8002fca:	b086      	sub	sp, #24
 8002fcc:	af00      	add	r7, sp, #0
 8002fce:	6078      	str	r0, [r7, #4]
  uint32_t regval;
  uint32_t maskline;
  uint32_t offset;

  /* compute line register offset and line mask */
  offset = ((hexti->Line & EXTI_REG_MASK) >> EXTI_REG_SHIFT);
 8002fd0:	687b      	ldr	r3, [r7, #4]
 8002fd2:	681b      	ldr	r3, [r3, #0]
 8002fd4:	0c1b      	lsrs	r3, r3, #16
 8002fd6:	2201      	movs	r2, #1
 8002fd8:	4013      	ands	r3, r2
 8002fda:	617b      	str	r3, [r7, #20]
  maskline = (1 << (hexti->Line & EXTI_PIN_MASK));
 8002fdc:	687b      	ldr	r3, [r7, #4]
 8002fde:	681b      	ldr	r3, [r3, #0]
 8002fe0:	221f      	movs	r2, #31
 8002fe2:	4013      	ands	r3, r2
 8002fe4:	2201      	movs	r2, #1
 8002fe6:	409a      	lsls	r2, r3
 8002fe8:	0013      	movs	r3, r2
 8002fea:	613b      	str	r3, [r7, #16]

  /* Get rising edge pending bit  */
  regaddr = (uint32_t *)(&EXTI->RPR1 + (EXTI_CONFIG_OFFSET * offset));
 8002fec:	697b      	ldr	r3, [r7, #20]
 8002fee:	015b      	lsls	r3, r3, #5
 8002ff0:	4a18      	ldr	r2, [pc, #96]	@ (8003054 <HAL_EXTI_IRQHandler+0x8c>)
 8002ff2:	4694      	mov	ip, r2
 8002ff4:	4463      	add	r3, ip
 8002ff6:	60fb      	str	r3, [r7, #12]
  regval = (*regaddr & maskline);
 8002ff8:	68fb      	ldr	r3, [r7, #12]
 8002ffa:	681a      	ldr	r2, [r3, #0]
 8002ffc:	693b      	ldr	r3, [r7, #16]
 8002ffe:	4013      	ands	r3, r2
 8003000:	60bb      	str	r3, [r7, #8]

  if (regval != 0x00U)
 8003002:	68bb      	ldr	r3, [r7, #8]
 8003004:	2b00      	cmp	r3, #0
 8003006:	d009      	beq.n	800301c <HAL_EXTI_IRQHandler+0x54>
  {
    /* Clear pending bit */
    *regaddr = maskline;
 8003008:	68fb      	ldr	r3, [r7, #12]
 800300a:	693a      	ldr	r2, [r7, #16]
 800300c:	601a      	str	r2, [r3, #0]

    /* Call rising callback */
    if (hexti->RisingCallback != NULL)
 800300e:	687b      	ldr	r3, [r7, #4]
 8003010:	685b      	ldr	r3, [r3, #4]
 8003012:	2b00      	cmp	r3, #0
 8003014:	d002      	beq.n	800301c <HAL_EXTI_IRQHandler+0x54>
    {
      hexti->RisingCallback();
 8003016:	687b      	ldr	r3, [r7, #4]
 8003018:	685b      	ldr	r3, [r3, #4]
 800301a:	4798      	blx	r3
    }
  }

  /* Get falling edge pending bit  */
  regaddr = (uint32_t *)(&EXTI->FPR1 + (EXTI_CONFIG_OFFSET * offset));
 800301c:	697b      	ldr	r3, [r7, #20]
 800301e:	015b      	lsls	r3, r3, #5
 8003020:	4a0d      	ldr	r2, [pc, #52]	@ (8003058 <HAL_EXTI_IRQHandler+0x90>)
 8003022:	4694      	mov	ip, r2
 8003024:	4463      	add	r3, ip
 8003026:	60fb      	str	r3, [r7, #12]
  regval = (*regaddr & maskline);
 8003028:	68fb      	ldr	r3, [r7, #12]
 800302a:	681a      	ldr	r2, [r3, #0]
 800302c:	693b      	ldr	r3, [r7, #16]
 800302e:	4013      	ands	r3, r2
 8003030:	60bb      	str	r3, [r7, #8]

  if (regval != 0x00U)
 8003032:	68bb      	ldr	r3, [r7, #8]
 8003034:	2b00      	cmp	r3, #0
 8003036:	d009      	beq.n	800304c <HAL_EXTI_IRQHandler+0x84>
  {
    /* Clear pending bit */
    *regaddr = maskline;
 8003038:	68fb      	ldr	r3, [r7, #12]
 800303a:	693a      	ldr	r2, [r7, #16]
 800303c:	601a      	str	r2, [r3, #0]

    /* Call rising callback */
    if (hexti->FallingCallback != NULL)
 800303e:	687b      	ldr	r3, [r7, #4]
 8003040:	689b      	ldr	r3, [r3, #8]
 8003042:	2b00      	cmp	r3, #0
 8003044:	d002      	beq.n	800304c <HAL_EXTI_IRQHandler+0x84>
    {
      hexti->FallingCallback();
 8003046:	687b      	ldr	r3, [r7, #4]
 8003048:	689b      	ldr	r3, [r3, #8]
 800304a:	4798      	blx	r3
    }
  }
}
 800304c:	46c0      	nop			@ (mov r8, r8)
 800304e:	46bd      	mov	sp, r7
 8003050:	b006      	add	sp, #24
 8003052:	bd80      	pop	{r7, pc}
 8003054:	4002180c 	.word	0x4002180c
 8003058:	40021810 	.word	0x40021810

0800305c <HAL_GPIO_Init>:
  * @param  GPIO_Init pointer to a GPIO_InitTypeDef structure that contains
  *         the configuration information for the specified GPIO peripheral.
  * @retval None
  */
void HAL_GPIO_Init(GPIO_TypeDef  *GPIOx, const GPIO_InitTypeDef *GPIO_Init)
{
 800305c:	b580      	push	{r7, lr}
 800305e:	b086      	sub	sp, #24
 8003060:	af00      	add	r7, sp, #0
 8003062:	6078      	str	r0, [r7, #4]
 8003064:	6039      	str	r1, [r7, #0]
  uint32_t position = 0x00u;
 8003066:	2300      	movs	r3, #0
 8003068:	617b      	str	r3, [r7, #20]
  assert_param(IS_GPIO_ALL_INSTANCE(GPIOx));
  assert_param(IS_GPIO_PIN(GPIO_Init->Pin));
  assert_param(IS_GPIO_MODE(GPIO_Init->Mode));

  /* Configure the port pins */
  while (((GPIO_Init->Pin) >> position) != 0x00u)
 800306a:	e153      	b.n	8003314 <HAL_GPIO_Init+0x2b8>
  {
    /* Get current io position */
    iocurrent = (GPIO_Init->Pin) & (1uL << position);
 800306c:	683b      	ldr	r3, [r7, #0]
 800306e:	681b      	ldr	r3, [r3, #0]
 8003070:	2101      	movs	r1, #1
 8003072:	697a      	ldr	r2, [r7, #20]
 8003074:	4091      	lsls	r1, r2
 8003076:	000a      	movs	r2, r1
 8003078:	4013      	ands	r3, r2
 800307a:	60fb      	str	r3, [r7, #12]

    if (iocurrent != 0x00u)
 800307c:	68fb      	ldr	r3, [r7, #12]
 800307e:	2b00      	cmp	r3, #0
 8003080:	d100      	bne.n	8003084 <HAL_GPIO_Init+0x28>
 8003082:	e144      	b.n	800330e <HAL_GPIO_Init+0x2b2>
    {
      /*--------------------- GPIO Mode Configuration ------------------------*/
      /* In case of Output or Alternate function mode selection */
      if (((GPIO_Init->Mode & GPIO_MODE) == MODE_OUTPUT) || ((GPIO_Init->Mode & GPIO_MODE) == MODE_AF))
 8003084:	683b      	ldr	r3, [r7, #0]
 8003086:	685b      	ldr	r3, [r3, #4]
 8003088:	2203      	movs	r2, #3
 800308a:	4013      	ands	r3, r2
 800308c:	2b01      	cmp	r3, #1
 800308e:	d005      	beq.n	800309c <HAL_GPIO_Init+0x40>
 8003090:	683b      	ldr	r3, [r7, #0]
 8003092:	685b      	ldr	r3, [r3, #4]
 8003094:	2203      	movs	r2, #3
 8003096:	4013      	ands	r3, r2
 8003098:	2b02      	cmp	r3, #2
 800309a:	d130      	bne.n	80030fe <HAL_GPIO_Init+0xa2>
      {
        /* Check the Speed parameter */
        assert_param(IS_GPIO_SPEED(GPIO_Init->Speed));

        /* Configure the IO Speed */
        temp = GPIOx->OSPEEDR;
 800309c:	687b      	ldr	r3, [r7, #4]
 800309e:	689b      	ldr	r3, [r3, #8]
 80030a0:	613b      	str	r3, [r7, #16]
        temp &= ~(GPIO_OSPEEDR_OSPEED0 << (position * GPIO_OSPEEDR_OSPEED1_Pos));
 80030a2:	697b      	ldr	r3, [r7, #20]
 80030a4:	005b      	lsls	r3, r3, #1
 80030a6:	2203      	movs	r2, #3
 80030a8:	409a      	lsls	r2, r3
 80030aa:	0013      	movs	r3, r2
 80030ac:	43da      	mvns	r2, r3
 80030ae:	693b      	ldr	r3, [r7, #16]
 80030b0:	4013      	ands	r3, r2
 80030b2:	613b      	str	r3, [r7, #16]
        temp |= (GPIO_Init->Speed << (position * GPIO_OSPEEDR_OSPEED1_Pos));
 80030b4:	683b      	ldr	r3, [r7, #0]
 80030b6:	68da      	ldr	r2, [r3, #12]
 80030b8:	697b      	ldr	r3, [r7, #20]
 80030ba:	005b      	lsls	r3, r3, #1
 80030bc:	409a      	lsls	r2, r3
 80030be:	0013      	movs	r3, r2
 80030c0:	693a      	ldr	r2, [r7, #16]
 80030c2:	4313      	orrs	r3, r2
 80030c4:	613b      	str	r3, [r7, #16]
        GPIOx->OSPEEDR = temp;
 80030c6:	687b      	ldr	r3, [r7, #4]
 80030c8:	693a      	ldr	r2, [r7, #16]
 80030ca:	609a      	str	r2, [r3, #8]

        /* Configure the IO Output Type */
        temp = GPIOx->OTYPER;
 80030cc:	687b      	ldr	r3, [r7, #4]
 80030ce:	685b      	ldr	r3, [r3, #4]
 80030d0:	613b      	str	r3, [r7, #16]
        temp &= ~(GPIO_OTYPER_OT0 << position) ;
 80030d2:	2201      	movs	r2, #1
 80030d4:	697b      	ldr	r3, [r7, #20]
 80030d6:	409a      	lsls	r2, r3
 80030d8:	0013      	movs	r3, r2
 80030da:	43da      	mvns	r2, r3
 80030dc:	693b      	ldr	r3, [r7, #16]
 80030de:	4013      	ands	r3, r2
 80030e0:	613b      	str	r3, [r7, #16]
        temp |= (((GPIO_Init->Mode & OUTPUT_TYPE) >> OUTPUT_TYPE_POS) << position);
 80030e2:	683b      	ldr	r3, [r7, #0]
 80030e4:	685b      	ldr	r3, [r3, #4]
 80030e6:	091b      	lsrs	r3, r3, #4
 80030e8:	2201      	movs	r2, #1
 80030ea:	401a      	ands	r2, r3
 80030ec:	697b      	ldr	r3, [r7, #20]
 80030ee:	409a      	lsls	r2, r3
 80030f0:	0013      	movs	r3, r2
 80030f2:	693a      	ldr	r2, [r7, #16]
 80030f4:	4313      	orrs	r3, r2
 80030f6:	613b      	str	r3, [r7, #16]
        GPIOx->OTYPER = temp;
 80030f8:	687b      	ldr	r3, [r7, #4]
 80030fa:	693a      	ldr	r2, [r7, #16]
 80030fc:	605a      	str	r2, [r3, #4]
      }

      if ((GPIO_Init->Mode & GPIO_MODE) != MODE_ANALOG)
 80030fe:	683b      	ldr	r3, [r7, #0]
 8003100:	685b      	ldr	r3, [r3, #4]
 8003102:	2203      	movs	r2, #3
 8003104:	4013      	ands	r3, r2
 8003106:	2b03      	cmp	r3, #3
 8003108:	d017      	beq.n	800313a <HAL_GPIO_Init+0xde>
      {
        /* Check the Pull parameter */
        assert_param(IS_GPIO_PULL(GPIO_Init->Pull));

        /* Activate the Pull-up or Pull down resistor for the current IO */
        temp = GPIOx->PUPDR;
 800310a:	687b      	ldr	r3, [r7, #4]
 800310c:	68db      	ldr	r3, [r3, #12]
 800310e:	613b      	str	r3, [r7, #16]
        temp &= ~(GPIO_PUPDR_PUPD0 << (position * GPIO_PUPDR_PUPD1_Pos));
 8003110:	697b      	ldr	r3, [r7, #20]
 8003112:	005b      	lsls	r3, r3, #1
 8003114:	2203      	movs	r2, #3
 8003116:	409a      	lsls	r2, r3
 8003118:	0013      	movs	r3, r2
 800311a:	43da      	mvns	r2, r3
 800311c:	693b      	ldr	r3, [r7, #16]
 800311e:	4013      	ands	r3, r2
 8003120:	613b      	str	r3, [r7, #16]
        temp |= ((GPIO_Init->Pull) << (position * GPIO_PUPDR_PUPD1_Pos));
 8003122:	683b      	ldr	r3, [r7, #0]
 8003124:	689a      	ldr	r2, [r3, #8]
 8003126:	697b      	ldr	r3, [r7, #20]
 8003128:	005b      	lsls	r3, r3, #1
 800312a:	409a      	lsls	r2, r3
 800312c:	0013      	movs	r3, r2
 800312e:	693a      	ldr	r2, [r7, #16]
 8003130:	4313      	orrs	r3, r2
 8003132:	613b      	str	r3, [r7, #16]
        GPIOx->PUPDR = temp;
 8003134:	687b      	ldr	r3, [r7, #4]
 8003136:	693a      	ldr	r2, [r7, #16]
 8003138:	60da      	str	r2, [r3, #12]
      }

      /* In case of Alternate function mode selection */
      if ((GPIO_Init->Mode & GPIO_MODE) == MODE_AF)
 800313a:	683b      	ldr	r3, [r7, #0]
 800313c:	685b      	ldr	r3, [r3, #4]
 800313e:	2203      	movs	r2, #3
 8003140:	4013      	ands	r3, r2
 8003142:	2b02      	cmp	r3, #2
 8003144:	d123      	bne.n	800318e <HAL_GPIO_Init+0x132>
        /* Check the Alternate function parameters */
        assert_param(IS_GPIO_AF_INSTANCE(GPIOx));
        assert_param(IS_GPIO_AF(GPIO_Init->Alternate));

        /* Configure Alternate function mapped with the current IO */
        temp = GPIOx->AFR[position >> 3u];
 8003146:	697b      	ldr	r3, [r7, #20]
 8003148:	08da      	lsrs	r2, r3, #3
 800314a:	687b      	ldr	r3, [r7, #4]
 800314c:	3208      	adds	r2, #8
 800314e:	0092      	lsls	r2, r2, #2
 8003150:	58d3      	ldr	r3, [r2, r3]
 8003152:	613b      	str	r3, [r7, #16]
        temp &= ~(0xFu << ((position & 0x07u) * GPIO_AFRL_AFSEL1_Pos));
 8003154:	697b      	ldr	r3, [r7, #20]
 8003156:	2207      	movs	r2, #7
 8003158:	4013      	ands	r3, r2
 800315a:	009b      	lsls	r3, r3, #2
 800315c:	220f      	movs	r2, #15
 800315e:	409a      	lsls	r2, r3
 8003160:	0013      	movs	r3, r2
 8003162:	43da      	mvns	r2, r3
 8003164:	693b      	ldr	r3, [r7, #16]
 8003166:	4013      	ands	r3, r2
 8003168:	613b      	str	r3, [r7, #16]
        temp |= ((GPIO_Init->Alternate) << ((position & 0x07u) * GPIO_AFRL_AFSEL1_Pos));
 800316a:	683b      	ldr	r3, [r7, #0]
 800316c:	691a      	ldr	r2, [r3, #16]
 800316e:	697b      	ldr	r3, [r7, #20]
 8003170:	2107      	movs	r1, #7
 8003172:	400b      	ands	r3, r1
 8003174:	009b      	lsls	r3, r3, #2
 8003176:	409a      	lsls	r2, r3
 8003178:	0013      	movs	r3, r2
 800317a:	693a      	ldr	r2, [r7, #16]
 800317c:	4313      	orrs	r3, r2
 800317e:	613b      	str	r3, [r7, #16]
        GPIOx->AFR[position >> 3u] = temp;
 8003180:	697b      	ldr	r3, [r7, #20]
 8003182:	08da      	lsrs	r2, r3, #3
 8003184:	687b      	ldr	r3, [r7, #4]
 8003186:	3208      	adds	r2, #8
 8003188:	0092      	lsls	r2, r2, #2
 800318a:	6939      	ldr	r1, [r7, #16]
 800318c:	50d1      	str	r1, [r2, r3]
      }

      /* Configure IO Direction mode (Input, Output, Alternate or Analog) */
      temp = GPIOx->MODER;
 800318e:	687b      	ldr	r3, [r7, #4]
 8003190:	681b      	ldr	r3, [r3, #0]
 8003192:	613b      	str	r3, [r7, #16]
      temp &= ~(GPIO_MODER_MODE0 << (position * GPIO_MODER_MODE1_Pos));
 8003194:	697b      	ldr	r3, [r7, #20]
 8003196:	005b      	lsls	r3, r3, #1
 8003198:	2203      	movs	r2, #3
 800319a:	409a      	lsls	r2, r3
 800319c:	0013      	movs	r3, r2
 800319e:	43da      	mvns	r2, r3
 80031a0:	693b      	ldr	r3, [r7, #16]
 80031a2:	4013      	ands	r3, r2
 80031a4:	613b      	str	r3, [r7, #16]
      temp |= ((GPIO_Init->Mode & GPIO_MODE) << (position * GPIO_MODER_MODE1_Pos));
 80031a6:	683b      	ldr	r3, [r7, #0]
 80031a8:	685b      	ldr	r3, [r3, #4]
 80031aa:	2203      	movs	r2, #3
 80031ac:	401a      	ands	r2, r3
 80031ae:	697b      	ldr	r3, [r7, #20]
 80031b0:	005b      	lsls	r3, r3, #1
 80031b2:	409a      	lsls	r2, r3
 80031b4:	0013      	movs	r3, r2
 80031b6:	693a      	ldr	r2, [r7, #16]
 80031b8:	4313      	orrs	r3, r2
 80031ba:	613b      	str	r3, [r7, #16]
      GPIOx->MODER = temp;
 80031bc:	687b      	ldr	r3, [r7, #4]
 80031be:	693a      	ldr	r2, [r7, #16]
 80031c0:	601a      	str	r2, [r3, #0]

      /*--------------------- EXTI Mode Configuration ------------------------*/
      /* Configure the External Interrupt or event for the current IO */
      if ((GPIO_Init->Mode & EXTI_MODE) != 0x00u)
 80031c2:	683b      	ldr	r3, [r7, #0]
 80031c4:	685a      	ldr	r2, [r3, #4]
 80031c6:	23c0      	movs	r3, #192	@ 0xc0
 80031c8:	029b      	lsls	r3, r3, #10
 80031ca:	4013      	ands	r3, r2
 80031cc:	d100      	bne.n	80031d0 <HAL_GPIO_Init+0x174>
 80031ce:	e09e      	b.n	800330e <HAL_GPIO_Init+0x2b2>
      {
        temp = EXTI->EXTICR[position >> 2u];
 80031d0:	4a56      	ldr	r2, [pc, #344]	@ (800332c <HAL_GPIO_Init+0x2d0>)
 80031d2:	697b      	ldr	r3, [r7, #20]
 80031d4:	089b      	lsrs	r3, r3, #2
 80031d6:	3318      	adds	r3, #24
 80031d8:	009b      	lsls	r3, r3, #2
 80031da:	589b      	ldr	r3, [r3, r2]
 80031dc:	613b      	str	r3, [r7, #16]
        temp &= ~(0x0FuL << (EXTI_EXTICR1_EXTI1_Pos * (position & 0x03u)));
 80031de:	697b      	ldr	r3, [r7, #20]
 80031e0:	2203      	movs	r2, #3
 80031e2:	4013      	ands	r3, r2
 80031e4:	00db      	lsls	r3, r3, #3
 80031e6:	220f      	movs	r2, #15
 80031e8:	409a      	lsls	r2, r3
 80031ea:	0013      	movs	r3, r2
 80031ec:	43da      	mvns	r2, r3
 80031ee:	693b      	ldr	r3, [r7, #16]
 80031f0:	4013      	ands	r3, r2
 80031f2:	613b      	str	r3, [r7, #16]
        temp |= (GPIO_GET_INDEX(GPIOx) << (EXTI_EXTICR1_EXTI1_Pos * (position & 0x03u)));
 80031f4:	687a      	ldr	r2, [r7, #4]
 80031f6:	23a0      	movs	r3, #160	@ 0xa0
 80031f8:	05db      	lsls	r3, r3, #23
 80031fa:	429a      	cmp	r2, r3
 80031fc:	d01f      	beq.n	800323e <HAL_GPIO_Init+0x1e2>
 80031fe:	687b      	ldr	r3, [r7, #4]
 8003200:	4a4b      	ldr	r2, [pc, #300]	@ (8003330 <HAL_GPIO_Init+0x2d4>)
 8003202:	4293      	cmp	r3, r2
 8003204:	d019      	beq.n	800323a <HAL_GPIO_Init+0x1de>
 8003206:	687b      	ldr	r3, [r7, #4]
 8003208:	4a4a      	ldr	r2, [pc, #296]	@ (8003334 <HAL_GPIO_Init+0x2d8>)
 800320a:	4293      	cmp	r3, r2
 800320c:	d013      	beq.n	8003236 <HAL_GPIO_Init+0x1da>
 800320e:	687b      	ldr	r3, [r7, #4]
 8003210:	4a49      	ldr	r2, [pc, #292]	@ (8003338 <HAL_GPIO_Init+0x2dc>)
 8003212:	4293      	cmp	r3, r2
 8003214:	d00d      	beq.n	8003232 <HAL_GPIO_Init+0x1d6>
 8003216:	687b      	ldr	r3, [r7, #4]
 8003218:	4a48      	ldr	r2, [pc, #288]	@ (800333c <HAL_GPIO_Init+0x2e0>)
 800321a:	4293      	cmp	r3, r2
 800321c:	d007      	beq.n	800322e <HAL_GPIO_Init+0x1d2>
 800321e:	687b      	ldr	r3, [r7, #4]
 8003220:	4a47      	ldr	r2, [pc, #284]	@ (8003340 <HAL_GPIO_Init+0x2e4>)
 8003222:	4293      	cmp	r3, r2
 8003224:	d101      	bne.n	800322a <HAL_GPIO_Init+0x1ce>
 8003226:	2305      	movs	r3, #5
 8003228:	e00a      	b.n	8003240 <HAL_GPIO_Init+0x1e4>
 800322a:	2306      	movs	r3, #6
 800322c:	e008      	b.n	8003240 <HAL_GPIO_Init+0x1e4>
 800322e:	2304      	movs	r3, #4
 8003230:	e006      	b.n	8003240 <HAL_GPIO_Init+0x1e4>
 8003232:	2303      	movs	r3, #3
 8003234:	e004      	b.n	8003240 <HAL_GPIO_Init+0x1e4>
 8003236:	2302      	movs	r3, #2
 8003238:	e002      	b.n	8003240 <HAL_GPIO_Init+0x1e4>
 800323a:	2301      	movs	r3, #1
 800323c:	e000      	b.n	8003240 <HAL_GPIO_Init+0x1e4>
 800323e:	2300      	movs	r3, #0
 8003240:	697a      	ldr	r2, [r7, #20]
 8003242:	2103      	movs	r1, #3
 8003244:	400a      	ands	r2, r1
 8003246:	00d2      	lsls	r2, r2, #3
 8003248:	4093      	lsls	r3, r2
 800324a:	693a      	ldr	r2, [r7, #16]
 800324c:	4313      	orrs	r3, r2
 800324e:	613b      	str	r3, [r7, #16]
        EXTI->EXTICR[position >> 2u] = temp;
 8003250:	4936      	ldr	r1, [pc, #216]	@ (800332c <HAL_GPIO_Init+0x2d0>)
 8003252:	697b      	ldr	r3, [r7, #20]
 8003254:	089b      	lsrs	r3, r3, #2
 8003256:	3318      	adds	r3, #24
 8003258:	009b      	lsls	r3, r3, #2
 800325a:	693a      	ldr	r2, [r7, #16]
 800325c:	505a      	str	r2, [r3, r1]

        /* Clear Rising Falling edge configuration */
        temp = EXTI->RTSR1;
 800325e:	4b33      	ldr	r3, [pc, #204]	@ (800332c <HAL_GPIO_Init+0x2d0>)
 8003260:	681b      	ldr	r3, [r3, #0]
 8003262:	613b      	str	r3, [r7, #16]
        temp &= ~(iocurrent);
 8003264:	68fb      	ldr	r3, [r7, #12]
 8003266:	43da      	mvns	r2, r3
 8003268:	693b      	ldr	r3, [r7, #16]
 800326a:	4013      	ands	r3, r2
 800326c:	613b      	str	r3, [r7, #16]
        if ((GPIO_Init->Mode & TRIGGER_RISING) != 0x00u)
 800326e:	683b      	ldr	r3, [r7, #0]
 8003270:	685a      	ldr	r2, [r3, #4]
 8003272:	2380      	movs	r3, #128	@ 0x80
 8003274:	035b      	lsls	r3, r3, #13
 8003276:	4013      	ands	r3, r2
 8003278:	d003      	beq.n	8003282 <HAL_GPIO_Init+0x226>
        {
          temp |= iocurrent;
 800327a:	693a      	ldr	r2, [r7, #16]
 800327c:	68fb      	ldr	r3, [r7, #12]
 800327e:	4313      	orrs	r3, r2
 8003280:	613b      	str	r3, [r7, #16]
        }
        EXTI->RTSR1 = temp;
 8003282:	4b2a      	ldr	r3, [pc, #168]	@ (800332c <HAL_GPIO_Init+0x2d0>)
 8003284:	693a      	ldr	r2, [r7, #16]
 8003286:	601a      	str	r2, [r3, #0]

        temp = EXTI->FTSR1;
 8003288:	4b28      	ldr	r3, [pc, #160]	@ (800332c <HAL_GPIO_Init+0x2d0>)
 800328a:	685b      	ldr	r3, [r3, #4]
 800328c:	613b      	str	r3, [r7, #16]
        temp &= ~(iocurrent);
 800328e:	68fb      	ldr	r3, [r7, #12]
 8003290:	43da      	mvns	r2, r3
 8003292:	693b      	ldr	r3, [r7, #16]
 8003294:	4013      	ands	r3, r2
 8003296:	613b      	str	r3, [r7, #16]
        if ((GPIO_Init->Mode & TRIGGER_FALLING) != 0x00u)
 8003298:	683b      	ldr	r3, [r7, #0]
 800329a:	685a      	ldr	r2, [r3, #4]
 800329c:	2380      	movs	r3, #128	@ 0x80
 800329e:	039b      	lsls	r3, r3, #14
 80032a0:	4013      	ands	r3, r2
 80032a2:	d003      	beq.n	80032ac <HAL_GPIO_Init+0x250>
        {
          temp |= iocurrent;
 80032a4:	693a      	ldr	r2, [r7, #16]
 80032a6:	68fb      	ldr	r3, [r7, #12]
 80032a8:	4313      	orrs	r3, r2
 80032aa:	613b      	str	r3, [r7, #16]
        }
        EXTI->FTSR1 = temp;
 80032ac:	4b1f      	ldr	r3, [pc, #124]	@ (800332c <HAL_GPIO_Init+0x2d0>)
 80032ae:	693a      	ldr	r2, [r7, #16]
 80032b0:	605a      	str	r2, [r3, #4]

        /* Clear EXTI line configuration */
        temp = EXTI->EMR1;
 80032b2:	4a1e      	ldr	r2, [pc, #120]	@ (800332c <HAL_GPIO_Init+0x2d0>)
 80032b4:	2384      	movs	r3, #132	@ 0x84
 80032b6:	58d3      	ldr	r3, [r2, r3]
 80032b8:	613b      	str	r3, [r7, #16]
        temp &= ~(iocurrent);
 80032ba:	68fb      	ldr	r3, [r7, #12]
 80032bc:	43da      	mvns	r2, r3
 80032be:	693b      	ldr	r3, [r7, #16]
 80032c0:	4013      	ands	r3, r2
 80032c2:	613b      	str	r3, [r7, #16]
        if ((GPIO_Init->Mode & EXTI_EVT) != 0x00u)
 80032c4:	683b      	ldr	r3, [r7, #0]
 80032c6:	685a      	ldr	r2, [r3, #4]
 80032c8:	2380      	movs	r3, #128	@ 0x80
 80032ca:	029b      	lsls	r3, r3, #10
 80032cc:	4013      	ands	r3, r2
 80032ce:	d003      	beq.n	80032d8 <HAL_GPIO_Init+0x27c>
        {
          temp |= iocurrent;
 80032d0:	693a      	ldr	r2, [r7, #16]
 80032d2:	68fb      	ldr	r3, [r7, #12]
 80032d4:	4313      	orrs	r3, r2
 80032d6:	613b      	str	r3, [r7, #16]
        }
        EXTI->EMR1 = temp;
 80032d8:	4914      	ldr	r1, [pc, #80]	@ (800332c <HAL_GPIO_Init+0x2d0>)
 80032da:	2284      	movs	r2, #132	@ 0x84
 80032dc:	693b      	ldr	r3, [r7, #16]
 80032de:	508b      	str	r3, [r1, r2]

        temp = EXTI->IMR1;
 80032e0:	4a12      	ldr	r2, [pc, #72]	@ (800332c <HAL_GPIO_Init+0x2d0>)
 80032e2:	2380      	movs	r3, #128	@ 0x80
 80032e4:	58d3      	ldr	r3, [r2, r3]
 80032e6:	613b      	str	r3, [r7, #16]
        temp &= ~(iocurrent);
 80032e8:	68fb      	ldr	r3, [r7, #12]
 80032ea:	43da      	mvns	r2, r3
 80032ec:	693b      	ldr	r3, [r7, #16]
 80032ee:	4013      	ands	r3, r2
 80032f0:	613b      	str	r3, [r7, #16]
        if ((GPIO_Init->Mode & EXTI_IT) != 0x00u)
 80032f2:	683b      	ldr	r3, [r7, #0]
 80032f4:	685a      	ldr	r2, [r3, #4]
 80032f6:	2380      	movs	r3, #128	@ 0x80
 80032f8:	025b      	lsls	r3, r3, #9
 80032fa:	4013      	ands	r3, r2
 80032fc:	d003      	beq.n	8003306 <HAL_GPIO_Init+0x2aa>
        {
          temp |= iocurrent;
 80032fe:	693a      	ldr	r2, [r7, #16]
 8003300:	68fb      	ldr	r3, [r7, #12]
 8003302:	4313      	orrs	r3, r2
 8003304:	613b      	str	r3, [r7, #16]
        }
        EXTI->IMR1 = temp;
 8003306:	4909      	ldr	r1, [pc, #36]	@ (800332c <HAL_GPIO_Init+0x2d0>)
 8003308:	2280      	movs	r2, #128	@ 0x80
 800330a:	693b      	ldr	r3, [r7, #16]
 800330c:	508b      	str	r3, [r1, r2]
      }
    }

    position++;
 800330e:	697b      	ldr	r3, [r7, #20]
 8003310:	3301      	adds	r3, #1
 8003312:	617b      	str	r3, [r7, #20]
  while (((GPIO_Init->Pin) >> position) != 0x00u)
 8003314:	683b      	ldr	r3, [r7, #0]
 8003316:	681a      	ldr	r2, [r3, #0]
 8003318:	697b      	ldr	r3, [r7, #20]
 800331a:	40da      	lsrs	r2, r3
 800331c:	1e13      	subs	r3, r2, #0
 800331e:	d000      	beq.n	8003322 <HAL_GPIO_Init+0x2c6>
 8003320:	e6a4      	b.n	800306c <HAL_GPIO_Init+0x10>
  }
}
 8003322:	46c0      	nop			@ (mov r8, r8)
 8003324:	46c0      	nop			@ (mov r8, r8)
 8003326:	46bd      	mov	sp, r7
 8003328:	b006      	add	sp, #24
 800332a:	bd80      	pop	{r7, pc}
 800332c:	40021800 	.word	0x40021800
 8003330:	50000400 	.word	0x50000400
 8003334:	50000800 	.word	0x50000800
 8003338:	50000c00 	.word	0x50000c00
 800333c:	50001000 	.word	0x50001000
 8003340:	50001400 	.word	0x50001400

08003344 <HAL_GPIO_WritePin>:
  *            @arg GPIO_PIN_RESET: to clear the port pin
  *            @arg GPIO_PIN_SET: to set the port pin
  * @retval None
  */
void HAL_GPIO_WritePin(GPIO_TypeDef *GPIOx, uint16_t GPIO_Pin, GPIO_PinState PinState)
{
 8003344:	b580      	push	{r7, lr}
 8003346:	b082      	sub	sp, #8
 8003348:	af00      	add	r7, sp, #0
 800334a:	6078      	str	r0, [r7, #4]
 800334c:	0008      	movs	r0, r1
 800334e:	0011      	movs	r1, r2
 8003350:	1cbb      	adds	r3, r7, #2
 8003352:	1c02      	adds	r2, r0, #0
 8003354:	801a      	strh	r2, [r3, #0]
 8003356:	1c7b      	adds	r3, r7, #1
 8003358:	1c0a      	adds	r2, r1, #0
 800335a:	701a      	strb	r2, [r3, #0]
  /* Check the parameters */
  assert_param(IS_GPIO_PIN(GPIO_Pin));
  assert_param(IS_GPIO_PIN_ACTION(PinState));

  if (PinState != GPIO_PIN_RESET)
 800335c:	1c7b      	adds	r3, r7, #1
 800335e:	781b      	ldrb	r3, [r3, #0]
 8003360:	2b00      	cmp	r3, #0
 8003362:	d004      	beq.n	800336e <HAL_GPIO_WritePin+0x2a>
  {
    GPIOx->BSRR = (uint32_t)GPIO_Pin;
 8003364:	1cbb      	adds	r3, r7, #2
 8003366:	881a      	ldrh	r2, [r3, #0]
 8003368:	687b      	ldr	r3, [r7, #4]
 800336a:	619a      	str	r2, [r3, #24]
  }
  else
  {
    GPIOx->BRR = (uint32_t)GPIO_Pin;
  }
}
 800336c:	e003      	b.n	8003376 <HAL_GPIO_WritePin+0x32>
    GPIOx->BRR = (uint32_t)GPIO_Pin;
 800336e:	1cbb      	adds	r3, r7, #2
 8003370:	881a      	ldrh	r2, [r3, #0]
 8003372:	687b      	ldr	r3, [r7, #4]
 8003374:	629a      	str	r2, [r3, #40]	@ 0x28
}
 8003376:	46c0      	nop			@ (mov r8, r8)
 8003378:	46bd      	mov	sp, r7
 800337a:	b002      	add	sp, #8
 800337c:	bd80      	pop	{r7, pc}

0800337e <HAL_GPIO_TogglePin>:
  * @param  GPIO_Pin specifies the pin to be toggled.
  *         This parameter can be any combination of GPIO_Pin_x where x can be (0..15).
  * @retval None
  */
void HAL_GPIO_TogglePin(GPIO_TypeDef *GPIOx, uint16_t GPIO_Pin)
{
 800337e:	b580      	push	{r7, lr}
 8003380:	b084      	sub	sp, #16
 8003382:	af00      	add	r7, sp, #0
 8003384:	6078      	str	r0, [r7, #4]
 8003386:	000a      	movs	r2, r1
 8003388:	1cbb      	adds	r3, r7, #2
 800338a:	801a      	strh	r2, [r3, #0]

  /* Check the parameters */
  assert_param(IS_GPIO_PIN(GPIO_Pin));

  /* get current Output Data Register value */
  odr = GPIOx->ODR;
 800338c:	687b      	ldr	r3, [r7, #4]
 800338e:	695b      	ldr	r3, [r3, #20]
 8003390:	60fb      	str	r3, [r7, #12]

  /* Set selected pins that were at low level, and reset ones that were high */
  GPIOx->BSRR = ((odr & GPIO_Pin) << GPIO_NUMBER) | (~odr & GPIO_Pin);
 8003392:	1cbb      	adds	r3, r7, #2
 8003394:	881b      	ldrh	r3, [r3, #0]
 8003396:	68fa      	ldr	r2, [r7, #12]
 8003398:	4013      	ands	r3, r2
 800339a:	041a      	lsls	r2, r3, #16
 800339c:	68fb      	ldr	r3, [r7, #12]
 800339e:	43db      	mvns	r3, r3
 80033a0:	1cb9      	adds	r1, r7, #2
 80033a2:	8809      	ldrh	r1, [r1, #0]
 80033a4:	400b      	ands	r3, r1
 80033a6:	431a      	orrs	r2, r3
 80033a8:	687b      	ldr	r3, [r7, #4]
 80033aa:	619a      	str	r2, [r3, #24]
}
 80033ac:	46c0      	nop			@ (mov r8, r8)
 80033ae:	46bd      	mov	sp, r7
 80033b0:	b004      	add	sp, #16
 80033b2:	bd80      	pop	{r7, pc}

080033b4 <HAL_PWREx_ControlVoltageScaling>:
  *        cleared before returning the status. If the flag is not cleared within
  *        50 microseconds, HAL_TIMEOUT status is reported.
  * @retval HAL Status
  */
HAL_StatusTypeDef HAL_PWREx_ControlVoltageScaling(uint32_t VoltageScaling)
{
 80033b4:	b580      	push	{r7, lr}
 80033b6:	b084      	sub	sp, #16
 80033b8:	af00      	add	r7, sp, #0
 80033ba:	6078      	str	r0, [r7, #4]
  uint32_t wait_loop_index;
  assert_param(IS_PWR_VOLTAGE_SCALING_RANGE(VoltageScaling));

  /* If Set Range 1 */
  if (VoltageScaling == PWR_REGULATOR_VOLTAGE_SCALE1)
 80033bc:	687a      	ldr	r2, [r7, #4]
 80033be:	2380      	movs	r3, #128	@ 0x80
 80033c0:	009b      	lsls	r3, r3, #2
 80033c2:	429a      	cmp	r2, r3
 80033c4:	d137      	bne.n	8003436 <HAL_PWREx_ControlVoltageScaling+0x82>
  {
    if (READ_BIT(PWR->CR1, PWR_CR1_VOS) != PWR_REGULATOR_VOLTAGE_SCALE1)
 80033c6:	4b27      	ldr	r3, [pc, #156]	@ (8003464 <HAL_PWREx_ControlVoltageScaling+0xb0>)
 80033c8:	681a      	ldr	r2, [r3, #0]
 80033ca:	23c0      	movs	r3, #192	@ 0xc0
 80033cc:	00db      	lsls	r3, r3, #3
 80033ce:	401a      	ands	r2, r3
 80033d0:	2380      	movs	r3, #128	@ 0x80
 80033d2:	009b      	lsls	r3, r3, #2
 80033d4:	429a      	cmp	r2, r3
 80033d6:	d040      	beq.n	800345a <HAL_PWREx_ControlVoltageScaling+0xa6>
    {
      /* Set Range 1 */
      MODIFY_REG(PWR->CR1, PWR_CR1_VOS, PWR_REGULATOR_VOLTAGE_SCALE1);
 80033d8:	4b22      	ldr	r3, [pc, #136]	@ (8003464 <HAL_PWREx_ControlVoltageScaling+0xb0>)
 80033da:	681b      	ldr	r3, [r3, #0]
 80033dc:	4a22      	ldr	r2, [pc, #136]	@ (8003468 <HAL_PWREx_ControlVoltageScaling+0xb4>)
 80033de:	401a      	ands	r2, r3
 80033e0:	4b20      	ldr	r3, [pc, #128]	@ (8003464 <HAL_PWREx_ControlVoltageScaling+0xb0>)
 80033e2:	2180      	movs	r1, #128	@ 0x80
 80033e4:	0089      	lsls	r1, r1, #2
 80033e6:	430a      	orrs	r2, r1
 80033e8:	601a      	str	r2, [r3, #0]
      /* Wait until VOSF is cleared */
      wait_loop_index = ((PWR_FLAG_SETTING_DELAY_US * SystemCoreClock) / 1000000U) + 1U;
 80033ea:	4b20      	ldr	r3, [pc, #128]	@ (800346c <HAL_PWREx_ControlVoltageScaling+0xb8>)
 80033ec:	681b      	ldr	r3, [r3, #0]
 80033ee:	2232      	movs	r2, #50	@ 0x32
 80033f0:	4353      	muls	r3, r2
 80033f2:	491f      	ldr	r1, [pc, #124]	@ (8003470 <HAL_PWREx_ControlVoltageScaling+0xbc>)
 80033f4:	0018      	movs	r0, r3
 80033f6:	f7fc fe91 	bl	800011c <__udivsi3>
 80033fa:	0003      	movs	r3, r0
 80033fc:	3301      	adds	r3, #1
 80033fe:	60fb      	str	r3, [r7, #12]
      while ((HAL_IS_BIT_SET(PWR->SR2, PWR_SR2_VOSF)) && (wait_loop_index != 0U))
 8003400:	e002      	b.n	8003408 <HAL_PWREx_ControlVoltageScaling+0x54>
      {
        wait_loop_index--;
 8003402:	68fb      	ldr	r3, [r7, #12]
 8003404:	3b01      	subs	r3, #1
 8003406:	60fb      	str	r3, [r7, #12]
      while ((HAL_IS_BIT_SET(PWR->SR2, PWR_SR2_VOSF)) && (wait_loop_index != 0U))
 8003408:	4b16      	ldr	r3, [pc, #88]	@ (8003464 <HAL_PWREx_ControlVoltageScaling+0xb0>)
 800340a:	695a      	ldr	r2, [r3, #20]
 800340c:	2380      	movs	r3, #128	@ 0x80
 800340e:	00db      	lsls	r3, r3, #3
 8003410:	401a      	ands	r2, r3
 8003412:	2380      	movs	r3, #128	@ 0x80
 8003414:	00db      	lsls	r3, r3, #3
 8003416:	429a      	cmp	r2, r3
 8003418:	d102      	bne.n	8003420 <HAL_PWREx_ControlVoltageScaling+0x6c>
 800341a:	68fb      	ldr	r3, [r7, #12]
 800341c:	2b00      	cmp	r3, #0
 800341e:	d1f0      	bne.n	8003402 <HAL_PWREx_ControlVoltageScaling+0x4e>
      }
      if (HAL_IS_BIT_SET(PWR->SR2, PWR_SR2_VOSF))
 8003420:	4b10      	ldr	r3, [pc, #64]	@ (8003464 <HAL_PWREx_ControlVoltageScaling+0xb0>)
 8003422:	695a      	ldr	r2, [r3, #20]
 8003424:	2380      	movs	r3, #128	@ 0x80
 8003426:	00db      	lsls	r3, r3, #3
 8003428:	401a      	ands	r2, r3
 800342a:	2380      	movs	r3, #128	@ 0x80
 800342c:	00db      	lsls	r3, r3, #3
 800342e:	429a      	cmp	r2, r3
 8003430:	d113      	bne.n	800345a <HAL_PWREx_ControlVoltageScaling+0xa6>
      {
        return HAL_TIMEOUT;
 8003432:	2303      	movs	r3, #3
 8003434:	e012      	b.n	800345c <HAL_PWREx_ControlVoltageScaling+0xa8>
      }
    }
  }
  else
  {
    if (READ_BIT(PWR->CR1, PWR_CR1_VOS) != PWR_REGULATOR_VOLTAGE_SCALE2)
 8003436:	4b0b      	ldr	r3, [pc, #44]	@ (8003464 <HAL_PWREx_ControlVoltageScaling+0xb0>)
 8003438:	681a      	ldr	r2, [r3, #0]
 800343a:	23c0      	movs	r3, #192	@ 0xc0
 800343c:	00db      	lsls	r3, r3, #3
 800343e:	401a      	ands	r2, r3
 8003440:	2380      	movs	r3, #128	@ 0x80
 8003442:	00db      	lsls	r3, r3, #3
 8003444:	429a      	cmp	r2, r3
 8003446:	d008      	beq.n	800345a <HAL_PWREx_ControlVoltageScaling+0xa6>
    {
      /* Set Range 2 */
      MODIFY_REG(PWR->CR1, PWR_CR1_VOS, PWR_REGULATOR_VOLTAGE_SCALE2);
 8003448:	4b06      	ldr	r3, [pc, #24]	@ (8003464 <HAL_PWREx_ControlVoltageScaling+0xb0>)
 800344a:	681b      	ldr	r3, [r3, #0]
 800344c:	4a06      	ldr	r2, [pc, #24]	@ (8003468 <HAL_PWREx_ControlVoltageScaling+0xb4>)
 800344e:	401a      	ands	r2, r3
 8003450:	4b04      	ldr	r3, [pc, #16]	@ (8003464 <HAL_PWREx_ControlVoltageScaling+0xb0>)
 8003452:	2180      	movs	r1, #128	@ 0x80
 8003454:	00c9      	lsls	r1, r1, #3
 8003456:	430a      	orrs	r2, r1
 8003458:	601a      	str	r2, [r3, #0]
      /* No need to wait for VOSF to be cleared for this transition */
    }
  }
  return HAL_OK;
 800345a:	2300      	movs	r3, #0
}
 800345c:	0018      	movs	r0, r3
 800345e:	46bd      	mov	sp, r7
 8003460:	b004      	add	sp, #16
 8003462:	bd80      	pop	{r7, pc}
 8003464:	40007000 	.word	0x40007000
 8003468:	fffff9ff 	.word	0xfffff9ff
 800346c:	20000034 	.word	0x20000034
 8003470:	000f4240 	.word	0x000f4240

08003474 <HAL_PWREx_GetVoltageRange>:
  * @brief Return Voltage Scaling Range.
  * @retval VOS bit field (PWR_REGULATOR_VOLTAGE_SCALE1 or PWR_REGULATOR_VOLTAGE_SCALE2)
  *
  */
uint32_t HAL_PWREx_GetVoltageRange(void)
{
 8003474:	b580      	push	{r7, lr}
 8003476:	af00      	add	r7, sp, #0
  return (PWR->CR1 & PWR_CR1_VOS);
 8003478:	4b03      	ldr	r3, [pc, #12]	@ (8003488 <HAL_PWREx_GetVoltageRange+0x14>)
 800347a:	681a      	ldr	r2, [r3, #0]
 800347c:	23c0      	movs	r3, #192	@ 0xc0
 800347e:	00db      	lsls	r3, r3, #3
 8003480:	4013      	ands	r3, r2
}
 8003482:	0018      	movs	r0, r3
 8003484:	46bd      	mov	sp, r7
 8003486:	bd80      	pop	{r7, pc}
 8003488:	40007000 	.word	0x40007000

0800348c <HAL_RCC_OscConfig>:
  *         supported by this macro. User should request a transition to HSE Off
  *         first and then HSE On or HSE Bypass.
  * @retval HAL status
  */
HAL_StatusTypeDef HAL_RCC_OscConfig(RCC_OscInitTypeDef  *RCC_OscInitStruct)
{
 800348c:	b5b0      	push	{r4, r5, r7, lr}
 800348e:	b088      	sub	sp, #32
 8003490:	af00      	add	r7, sp, #0
 8003492:	6078      	str	r0, [r7, #4]

  /* Check the parameters */
  assert_param(RCC_OscInitStruct != NULL);
  assert_param(IS_RCC_OSCILLATORTYPE(RCC_OscInitStruct->OscillatorType));

  sysclk_source = __HAL_RCC_GET_SYSCLK_SOURCE();
 8003494:	4bc9      	ldr	r3, [pc, #804]	@ (80037bc <HAL_RCC_OscConfig+0x330>)
 8003496:	689b      	ldr	r3, [r3, #8]
 8003498:	2238      	movs	r2, #56	@ 0x38
 800349a:	4013      	ands	r3, r2
 800349c:	61bb      	str	r3, [r7, #24]
  pll_config = __HAL_RCC_GET_PLL_OSCSOURCE();
 800349e:	4bc7      	ldr	r3, [pc, #796]	@ (80037bc <HAL_RCC_OscConfig+0x330>)
 80034a0:	68db      	ldr	r3, [r3, #12]
 80034a2:	2203      	movs	r2, #3
 80034a4:	4013      	ands	r3, r2
 80034a6:	617b      	str	r3, [r7, #20]

  /*----------------------------- MSI Configuration --------------------------*/
  if (((RCC_OscInitStruct->OscillatorType) & RCC_OSCILLATORTYPE_MSI) == RCC_OSCILLATORTYPE_MSI)
 80034a8:	687b      	ldr	r3, [r7, #4]
 80034aa:	681b      	ldr	r3, [r3, #0]
 80034ac:	2210      	movs	r2, #16
 80034ae:	4013      	ands	r3, r2
 80034b0:	d100      	bne.n	80034b4 <HAL_RCC_OscConfig+0x28>
 80034b2:	e0ef      	b.n	8003694 <HAL_RCC_OscConfig+0x208>
    assert_param(IS_RCC_MSI(RCC_OscInitStruct->MSIState));
    assert_param(IS_RCC_MSICALIBRATION_VALUE(RCC_OscInitStruct->MSICalibrationValue));
    assert_param(IS_RCC_MSI_CLOCK_RANGE(RCC_OscInitStruct->MSIClockRange));

    /* Check if MSI is used as system clock or as PLL source when PLL is selected as system clock */
    if ((sysclk_source == RCC_SYSCLKSOURCE_STATUS_MSI) ||
 80034b4:	69bb      	ldr	r3, [r7, #24]
 80034b6:	2b00      	cmp	r3, #0
 80034b8:	d007      	beq.n	80034ca <HAL_RCC_OscConfig+0x3e>
 80034ba:	69bb      	ldr	r3, [r7, #24]
 80034bc:	2b18      	cmp	r3, #24
 80034be:	d000      	beq.n	80034c2 <HAL_RCC_OscConfig+0x36>
 80034c0:	e093      	b.n	80035ea <HAL_RCC_OscConfig+0x15e>
        ((sysclk_source == RCC_SYSCLKSOURCE_STATUS_PLLCLK) && (pll_config == RCC_PLLSOURCE_MSI)))
 80034c2:	697b      	ldr	r3, [r7, #20]
 80034c4:	2b01      	cmp	r3, #1
 80034c6:	d000      	beq.n	80034ca <HAL_RCC_OscConfig+0x3e>
 80034c8:	e08f      	b.n	80035ea <HAL_RCC_OscConfig+0x15e>
    {
      if ((READ_BIT(RCC->CR, RCC_CR_MSIRDY) != 0U) && (RCC_OscInitStruct->MSIState == RCC_MSI_OFF))
 80034ca:	4bbc      	ldr	r3, [pc, #752]	@ (80037bc <HAL_RCC_OscConfig+0x330>)
 80034cc:	681b      	ldr	r3, [r3, #0]
 80034ce:	2202      	movs	r2, #2
 80034d0:	4013      	ands	r3, r2
 80034d2:	d006      	beq.n	80034e2 <HAL_RCC_OscConfig+0x56>
 80034d4:	687b      	ldr	r3, [r7, #4]
 80034d6:	69db      	ldr	r3, [r3, #28]
 80034d8:	2b00      	cmp	r3, #0
 80034da:	d102      	bne.n	80034e2 <HAL_RCC_OscConfig+0x56>
      {
        return HAL_ERROR;
 80034dc:	2301      	movs	r3, #1
 80034de:	f000 fbf2 	bl	8003cc6 <HAL_RCC_OscConfig+0x83a>
      else
      {
        /* To correctly read data from FLASH memory, the number of wait states (LATENCY)
           must be correctly programmed according to the frequency of the CPU clock
           (HCLK) and the supply voltage of the device. */
        if (RCC_OscInitStruct->MSIClockRange > __HAL_RCC_GET_MSI_RANGE())
 80034e2:	687b      	ldr	r3, [r7, #4]
 80034e4:	6a5a      	ldr	r2, [r3, #36]	@ 0x24
 80034e6:	4bb5      	ldr	r3, [pc, #724]	@ (80037bc <HAL_RCC_OscConfig+0x330>)
 80034e8:	681b      	ldr	r3, [r3, #0]
 80034ea:	2108      	movs	r1, #8
 80034ec:	400b      	ands	r3, r1
 80034ee:	d004      	beq.n	80034fa <HAL_RCC_OscConfig+0x6e>
 80034f0:	4bb2      	ldr	r3, [pc, #712]	@ (80037bc <HAL_RCC_OscConfig+0x330>)
 80034f2:	681b      	ldr	r3, [r3, #0]
 80034f4:	21f0      	movs	r1, #240	@ 0xf0
 80034f6:	400b      	ands	r3, r1
 80034f8:	e005      	b.n	8003506 <HAL_RCC_OscConfig+0x7a>
 80034fa:	49b0      	ldr	r1, [pc, #704]	@ (80037bc <HAL_RCC_OscConfig+0x330>)
 80034fc:	2394      	movs	r3, #148	@ 0x94
 80034fe:	58cb      	ldr	r3, [r1, r3]
 8003500:	091b      	lsrs	r3, r3, #4
 8003502:	21f0      	movs	r1, #240	@ 0xf0
 8003504:	400b      	ands	r3, r1
 8003506:	4293      	cmp	r3, r2
 8003508:	d225      	bcs.n	8003556 <HAL_RCC_OscConfig+0xca>
        {
          /* First increase number of wait states update if necessary */
          if (RCC_SetFlashLatencyFromMSIRange(RCC_OscInitStruct->MSIClockRange) != HAL_OK)
 800350a:	687b      	ldr	r3, [r7, #4]
 800350c:	6a5b      	ldr	r3, [r3, #36]	@ 0x24
 800350e:	0018      	movs	r0, r3
 8003510:	f000 fd90 	bl	8004034 <RCC_SetFlashLatencyFromMSIRange>
 8003514:	1e03      	subs	r3, r0, #0
 8003516:	d002      	beq.n	800351e <HAL_RCC_OscConfig+0x92>
          {
            return HAL_ERROR;
 8003518:	2301      	movs	r3, #1
 800351a:	f000 fbd4 	bl	8003cc6 <HAL_RCC_OscConfig+0x83a>
          }

          /* Selects the Multiple Speed oscillator (MSI) clock range .*/
          __HAL_RCC_MSI_RANGE_CONFIG(RCC_OscInitStruct->MSIClockRange);
 800351e:	4ba7      	ldr	r3, [pc, #668]	@ (80037bc <HAL_RCC_OscConfig+0x330>)
 8003520:	681a      	ldr	r2, [r3, #0]
 8003522:	4ba6      	ldr	r3, [pc, #664]	@ (80037bc <HAL_RCC_OscConfig+0x330>)
 8003524:	2108      	movs	r1, #8
 8003526:	430a      	orrs	r2, r1
 8003528:	601a      	str	r2, [r3, #0]
 800352a:	4ba4      	ldr	r3, [pc, #656]	@ (80037bc <HAL_RCC_OscConfig+0x330>)
 800352c:	681b      	ldr	r3, [r3, #0]
 800352e:	22f0      	movs	r2, #240	@ 0xf0
 8003530:	4393      	bics	r3, r2
 8003532:	0019      	movs	r1, r3
 8003534:	687b      	ldr	r3, [r7, #4]
 8003536:	6a5a      	ldr	r2, [r3, #36]	@ 0x24
 8003538:	4ba0      	ldr	r3, [pc, #640]	@ (80037bc <HAL_RCC_OscConfig+0x330>)
 800353a:	430a      	orrs	r2, r1
 800353c:	601a      	str	r2, [r3, #0]
          /* Adjusts the Multiple Speed oscillator (MSI) calibration value.*/
          __HAL_RCC_MSI_CALIBRATIONVALUE_ADJUST(RCC_OscInitStruct->MSICalibrationValue);
 800353e:	4b9f      	ldr	r3, [pc, #636]	@ (80037bc <HAL_RCC_OscConfig+0x330>)
 8003540:	685b      	ldr	r3, [r3, #4]
 8003542:	4a9f      	ldr	r2, [pc, #636]	@ (80037c0 <HAL_RCC_OscConfig+0x334>)
 8003544:	4013      	ands	r3, r2
 8003546:	0019      	movs	r1, r3
 8003548:	687b      	ldr	r3, [r7, #4]
 800354a:	6a1b      	ldr	r3, [r3, #32]
 800354c:	021a      	lsls	r2, r3, #8
 800354e:	4b9b      	ldr	r3, [pc, #620]	@ (80037bc <HAL_RCC_OscConfig+0x330>)
 8003550:	430a      	orrs	r2, r1
 8003552:	605a      	str	r2, [r3, #4]
 8003554:	e027      	b.n	80035a6 <HAL_RCC_OscConfig+0x11a>
        }
        else
        {
          /* Else, keep current flash latency while decreasing applies */
          /* Selects the Multiple Speed oscillator (MSI) clock range .*/
          __HAL_RCC_MSI_RANGE_CONFIG(RCC_OscInitStruct->MSIClockRange);
 8003556:	4b99      	ldr	r3, [pc, #612]	@ (80037bc <HAL_RCC_OscConfig+0x330>)
 8003558:	681a      	ldr	r2, [r3, #0]
 800355a:	4b98      	ldr	r3, [pc, #608]	@ (80037bc <HAL_RCC_OscConfig+0x330>)
 800355c:	2108      	movs	r1, #8
 800355e:	430a      	orrs	r2, r1
 8003560:	601a      	str	r2, [r3, #0]
 8003562:	4b96      	ldr	r3, [pc, #600]	@ (80037bc <HAL_RCC_OscConfig+0x330>)
 8003564:	681b      	ldr	r3, [r3, #0]
 8003566:	22f0      	movs	r2, #240	@ 0xf0
 8003568:	4393      	bics	r3, r2
 800356a:	0019      	movs	r1, r3
 800356c:	687b      	ldr	r3, [r7, #4]
 800356e:	6a5a      	ldr	r2, [r3, #36]	@ 0x24
 8003570:	4b92      	ldr	r3, [pc, #584]	@ (80037bc <HAL_RCC_OscConfig+0x330>)
 8003572:	430a      	orrs	r2, r1
 8003574:	601a      	str	r2, [r3, #0]
          /* Adjusts the Multiple Speed oscillator (MSI) calibration value.*/
          __HAL_RCC_MSI_CALIBRATIONVALUE_ADJUST(RCC_OscInitStruct->MSICalibrationValue);
 8003576:	4b91      	ldr	r3, [pc, #580]	@ (80037bc <HAL_RCC_OscConfig+0x330>)
 8003578:	685b      	ldr	r3, [r3, #4]
 800357a:	4a91      	ldr	r2, [pc, #580]	@ (80037c0 <HAL_RCC_OscConfig+0x334>)
 800357c:	4013      	ands	r3, r2
 800357e:	0019      	movs	r1, r3
 8003580:	687b      	ldr	r3, [r7, #4]
 8003582:	6a1b      	ldr	r3, [r3, #32]
 8003584:	021a      	lsls	r2, r3, #8
 8003586:	4b8d      	ldr	r3, [pc, #564]	@ (80037bc <HAL_RCC_OscConfig+0x330>)
 8003588:	430a      	orrs	r2, r1
 800358a:	605a      	str	r2, [r3, #4]

          /* Decrease number of wait states update if necessary */
          /* Only possible when MSI is the System clock source  */
          if (sysclk_source == RCC_SYSCLKSOURCE_STATUS_MSI)
 800358c:	69bb      	ldr	r3, [r7, #24]
 800358e:	2b00      	cmp	r3, #0
 8003590:	d109      	bne.n	80035a6 <HAL_RCC_OscConfig+0x11a>
          {
            if (RCC_SetFlashLatencyFromMSIRange(RCC_OscInitStruct->MSIClockRange) != HAL_OK)
 8003592:	687b      	ldr	r3, [r7, #4]
 8003594:	6a5b      	ldr	r3, [r3, #36]	@ 0x24
 8003596:	0018      	movs	r0, r3
 8003598:	f000 fd4c 	bl	8004034 <RCC_SetFlashLatencyFromMSIRange>
 800359c:	1e03      	subs	r3, r0, #0
 800359e:	d002      	beq.n	80035a6 <HAL_RCC_OscConfig+0x11a>
            {
              return HAL_ERROR;
 80035a0:	2301      	movs	r3, #1
 80035a2:	f000 fb90 	bl	8003cc6 <HAL_RCC_OscConfig+0x83a>
            }
          }
        }

        /* Update the SystemCoreClock global variable */
        SystemCoreClock = HAL_RCC_GetSysClockFreq() >> (AHBPrescTable[READ_BIT(RCC->CFGR, RCC_CFGR_HPRE) \
 80035a6:	f000 fc87 	bl	8003eb8 <HAL_RCC_GetSysClockFreq>
 80035aa:	0001      	movs	r1, r0
 80035ac:	4b83      	ldr	r3, [pc, #524]	@ (80037bc <HAL_RCC_OscConfig+0x330>)
 80035ae:	689b      	ldr	r3, [r3, #8]
                                                                      >> RCC_CFGR_HPRE_Pos] & 0x1FU);
 80035b0:	0a1b      	lsrs	r3, r3, #8
 80035b2:	220f      	movs	r2, #15
 80035b4:	4013      	ands	r3, r2
        SystemCoreClock = HAL_RCC_GetSysClockFreq() >> (AHBPrescTable[READ_BIT(RCC->CFGR, RCC_CFGR_HPRE) \
 80035b6:	4a83      	ldr	r2, [pc, #524]	@ (80037c4 <HAL_RCC_OscConfig+0x338>)
 80035b8:	5cd3      	ldrb	r3, [r2, r3]
                                                                      >> RCC_CFGR_HPRE_Pos] & 0x1FU);
 80035ba:	001a      	movs	r2, r3
 80035bc:	231f      	movs	r3, #31
 80035be:	4013      	ands	r3, r2
        SystemCoreClock = HAL_RCC_GetSysClockFreq() >> (AHBPrescTable[READ_BIT(RCC->CFGR, RCC_CFGR_HPRE) \
 80035c0:	000a      	movs	r2, r1
 80035c2:	40da      	lsrs	r2, r3
 80035c4:	4b80      	ldr	r3, [pc, #512]	@ (80037c8 <HAL_RCC_OscConfig+0x33c>)
 80035c6:	601a      	str	r2, [r3, #0]

        /* Configure the source of time base considering new system clocks settings*/
        status = HAL_InitTick(uwTickPrio);
 80035c8:	4b80      	ldr	r3, [pc, #512]	@ (80037cc <HAL_RCC_OscConfig+0x340>)
 80035ca:	681b      	ldr	r3, [r3, #0]
 80035cc:	250f      	movs	r5, #15
 80035ce:	197c      	adds	r4, r7, r5
 80035d0:	0018      	movs	r0, r3
 80035d2:	f7fd fd1d 	bl	8001010 <HAL_InitTick>
 80035d6:	0003      	movs	r3, r0
 80035d8:	7023      	strb	r3, [r4, #0]
        if (status != HAL_OK)
 80035da:	197b      	adds	r3, r7, r5
 80035dc:	781b      	ldrb	r3, [r3, #0]
 80035de:	2b00      	cmp	r3, #0
 80035e0:	d057      	beq.n	8003692 <HAL_RCC_OscConfig+0x206>
        {
          return status;
 80035e2:	197b      	adds	r3, r7, r5
 80035e4:	781b      	ldrb	r3, [r3, #0]
 80035e6:	f000 fb6e 	bl	8003cc6 <HAL_RCC_OscConfig+0x83a>
      }
    }
    else
    {
      /* Check the MSI State */
      if (RCC_OscInitStruct->MSIState != RCC_MSI_OFF)
 80035ea:	687b      	ldr	r3, [r7, #4]
 80035ec:	69db      	ldr	r3, [r3, #28]
 80035ee:	2b00      	cmp	r3, #0
 80035f0:	d035      	beq.n	800365e <HAL_RCC_OscConfig+0x1d2>
      {
        /* Enable the Internal High Speed oscillator (MSI). */
        __HAL_RCC_MSI_ENABLE();
 80035f2:	4b72      	ldr	r3, [pc, #456]	@ (80037bc <HAL_RCC_OscConfig+0x330>)
 80035f4:	681a      	ldr	r2, [r3, #0]
 80035f6:	4b71      	ldr	r3, [pc, #452]	@ (80037bc <HAL_RCC_OscConfig+0x330>)
 80035f8:	2101      	movs	r1, #1
 80035fa:	430a      	orrs	r2, r1
 80035fc:	601a      	str	r2, [r3, #0]

        /* Get timeout */
        tickstart = HAL_GetTick();
 80035fe:	f7fd fd63 	bl	80010c8 <HAL_GetTick>
 8003602:	0003      	movs	r3, r0
 8003604:	613b      	str	r3, [r7, #16]

        /* Wait till MSI is ready */
        while (READ_BIT(RCC->CR, RCC_CR_MSIRDY) == 0U)
 8003606:	e009      	b.n	800361c <HAL_RCC_OscConfig+0x190>
        {
          if ((HAL_GetTick() - tickstart) > RCC_MSI_TIMEOUT_VALUE)
 8003608:	f7fd fd5e 	bl	80010c8 <HAL_GetTick>
 800360c:	0002      	movs	r2, r0
 800360e:	693b      	ldr	r3, [r7, #16]
 8003610:	1ad3      	subs	r3, r2, r3
 8003612:	2b02      	cmp	r3, #2
 8003614:	d902      	bls.n	800361c <HAL_RCC_OscConfig+0x190>
          {
            return HAL_TIMEOUT;
 8003616:	2303      	movs	r3, #3
 8003618:	f000 fb55 	bl	8003cc6 <HAL_RCC_OscConfig+0x83a>
        while (READ_BIT(RCC->CR, RCC_CR_MSIRDY) == 0U)
 800361c:	4b67      	ldr	r3, [pc, #412]	@ (80037bc <HAL_RCC_OscConfig+0x330>)
 800361e:	681b      	ldr	r3, [r3, #0]
 8003620:	2202      	movs	r2, #2
 8003622:	4013      	ands	r3, r2
 8003624:	d0f0      	beq.n	8003608 <HAL_RCC_OscConfig+0x17c>
          }
        }
        /* Selects the Multiple Speed oscillator (MSI) clock range .*/
        __HAL_RCC_MSI_RANGE_CONFIG(RCC_OscInitStruct->MSIClockRange);
 8003626:	4b65      	ldr	r3, [pc, #404]	@ (80037bc <HAL_RCC_OscConfig+0x330>)
 8003628:	681a      	ldr	r2, [r3, #0]
 800362a:	4b64      	ldr	r3, [pc, #400]	@ (80037bc <HAL_RCC_OscConfig+0x330>)
 800362c:	2108      	movs	r1, #8
 800362e:	430a      	orrs	r2, r1
 8003630:	601a      	str	r2, [r3, #0]
 8003632:	4b62      	ldr	r3, [pc, #392]	@ (80037bc <HAL_RCC_OscConfig+0x330>)
 8003634:	681b      	ldr	r3, [r3, #0]
 8003636:	22f0      	movs	r2, #240	@ 0xf0
 8003638:	4393      	bics	r3, r2
 800363a:	0019      	movs	r1, r3
 800363c:	687b      	ldr	r3, [r7, #4]
 800363e:	6a5a      	ldr	r2, [r3, #36]	@ 0x24
 8003640:	4b5e      	ldr	r3, [pc, #376]	@ (80037bc <HAL_RCC_OscConfig+0x330>)
 8003642:	430a      	orrs	r2, r1
 8003644:	601a      	str	r2, [r3, #0]
        /* Adjusts the Multiple Speed oscillator (MSI) calibration value.*/
        __HAL_RCC_MSI_CALIBRATIONVALUE_ADJUST(RCC_OscInitStruct->MSICalibrationValue);
 8003646:	4b5d      	ldr	r3, [pc, #372]	@ (80037bc <HAL_RCC_OscConfig+0x330>)
 8003648:	685b      	ldr	r3, [r3, #4]
 800364a:	4a5d      	ldr	r2, [pc, #372]	@ (80037c0 <HAL_RCC_OscConfig+0x334>)
 800364c:	4013      	ands	r3, r2
 800364e:	0019      	movs	r1, r3
 8003650:	687b      	ldr	r3, [r7, #4]
 8003652:	6a1b      	ldr	r3, [r3, #32]
 8003654:	021a      	lsls	r2, r3, #8
 8003656:	4b59      	ldr	r3, [pc, #356]	@ (80037bc <HAL_RCC_OscConfig+0x330>)
 8003658:	430a      	orrs	r2, r1
 800365a:	605a      	str	r2, [r3, #4]
 800365c:	e01a      	b.n	8003694 <HAL_RCC_OscConfig+0x208>

      }
      else
      {
        /* Disable the Internal High Speed oscillator (MSI). */
        __HAL_RCC_MSI_DISABLE();
 800365e:	4b57      	ldr	r3, [pc, #348]	@ (80037bc <HAL_RCC_OscConfig+0x330>)
 8003660:	681a      	ldr	r2, [r3, #0]
 8003662:	4b56      	ldr	r3, [pc, #344]	@ (80037bc <HAL_RCC_OscConfig+0x330>)
 8003664:	2101      	movs	r1, #1
 8003666:	438a      	bics	r2, r1
 8003668:	601a      	str	r2, [r3, #0]

        /* Get timeout */
        tickstart = HAL_GetTick();
 800366a:	f7fd fd2d 	bl	80010c8 <HAL_GetTick>
 800366e:	0003      	movs	r3, r0
 8003670:	613b      	str	r3, [r7, #16]

        /* Wait till MSI is ready */
        while (READ_BIT(RCC->CR, RCC_CR_MSIRDY) != 0U)
 8003672:	e008      	b.n	8003686 <HAL_RCC_OscConfig+0x1fa>
        {
          if ((HAL_GetTick() - tickstart) > RCC_MSI_TIMEOUT_VALUE)
 8003674:	f7fd fd28 	bl	80010c8 <HAL_GetTick>
 8003678:	0002      	movs	r2, r0
 800367a:	693b      	ldr	r3, [r7, #16]
 800367c:	1ad3      	subs	r3, r2, r3
 800367e:	2b02      	cmp	r3, #2
 8003680:	d901      	bls.n	8003686 <HAL_RCC_OscConfig+0x1fa>
          {
            return HAL_TIMEOUT;
 8003682:	2303      	movs	r3, #3
 8003684:	e31f      	b.n	8003cc6 <HAL_RCC_OscConfig+0x83a>
        while (READ_BIT(RCC->CR, RCC_CR_MSIRDY) != 0U)
 8003686:	4b4d      	ldr	r3, [pc, #308]	@ (80037bc <HAL_RCC_OscConfig+0x330>)
 8003688:	681b      	ldr	r3, [r3, #0]
 800368a:	2202      	movs	r2, #2
 800368c:	4013      	ands	r3, r2
 800368e:	d1f1      	bne.n	8003674 <HAL_RCC_OscConfig+0x1e8>
 8003690:	e000      	b.n	8003694 <HAL_RCC_OscConfig+0x208>
      if ((READ_BIT(RCC->CR, RCC_CR_MSIRDY) != 0U) && (RCC_OscInitStruct->MSIState == RCC_MSI_OFF))
 8003692:	46c0      	nop			@ (mov r8, r8)
        }
      }
    }
  }
  /*------------------------------- HSE Configuration ------------------------*/
  if (((RCC_OscInitStruct->OscillatorType) & RCC_OSCILLATORTYPE_HSE) == RCC_OSCILLATORTYPE_HSE)
 8003694:	687b      	ldr	r3, [r7, #4]
 8003696:	681b      	ldr	r3, [r3, #0]
 8003698:	2201      	movs	r2, #1
 800369a:	4013      	ands	r3, r2
 800369c:	d100      	bne.n	80036a0 <HAL_RCC_OscConfig+0x214>
 800369e:	e065      	b.n	800376c <HAL_RCC_OscConfig+0x2e0>
  {
    /* Check the parameters */
    assert_param(IS_RCC_HSE(RCC_OscInitStruct->HSEState));

    /* When the HSE is used as system clock or clock source for PLL in these cases it is not allowed to be disabled */
    if ((sysclk_source == RCC_SYSCLKSOURCE_STATUS_HSE) ||
 80036a0:	69bb      	ldr	r3, [r7, #24]
 80036a2:	2b10      	cmp	r3, #16
 80036a4:	d005      	beq.n	80036b2 <HAL_RCC_OscConfig+0x226>
 80036a6:	69bb      	ldr	r3, [r7, #24]
 80036a8:	2b18      	cmp	r3, #24
 80036aa:	d10e      	bne.n	80036ca <HAL_RCC_OscConfig+0x23e>
        ((sysclk_source == RCC_SYSCLKSOURCE_STATUS_PLLCLK) && (pll_config == RCC_PLLSOURCE_HSE)))
 80036ac:	697b      	ldr	r3, [r7, #20]
 80036ae:	2b03      	cmp	r3, #3
 80036b0:	d10b      	bne.n	80036ca <HAL_RCC_OscConfig+0x23e>
    {
      if ((READ_BIT(RCC->CR, RCC_CR_HSERDY) != 0U) && (RCC_OscInitStruct->HSEState == RCC_HSE_OFF))
 80036b2:	4b42      	ldr	r3, [pc, #264]	@ (80037bc <HAL_RCC_OscConfig+0x330>)
 80036b4:	681a      	ldr	r2, [r3, #0]
 80036b6:	2380      	movs	r3, #128	@ 0x80
 80036b8:	029b      	lsls	r3, r3, #10
 80036ba:	4013      	ands	r3, r2
 80036bc:	d055      	beq.n	800376a <HAL_RCC_OscConfig+0x2de>
 80036be:	687b      	ldr	r3, [r7, #4]
 80036c0:	685b      	ldr	r3, [r3, #4]
 80036c2:	2b00      	cmp	r3, #0
 80036c4:	d151      	bne.n	800376a <HAL_RCC_OscConfig+0x2de>
      {
        return HAL_ERROR;
 80036c6:	2301      	movs	r3, #1
 80036c8:	e2fd      	b.n	8003cc6 <HAL_RCC_OscConfig+0x83a>
      }
    }
    else
    {
      /* Set the new HSE configuration ---------------------------------------*/
      __HAL_RCC_HSE_CONFIG(RCC_OscInitStruct->HSEState);
 80036ca:	687b      	ldr	r3, [r7, #4]
 80036cc:	685a      	ldr	r2, [r3, #4]
 80036ce:	2380      	movs	r3, #128	@ 0x80
 80036d0:	025b      	lsls	r3, r3, #9
 80036d2:	429a      	cmp	r2, r3
 80036d4:	d107      	bne.n	80036e6 <HAL_RCC_OscConfig+0x25a>
 80036d6:	4b39      	ldr	r3, [pc, #228]	@ (80037bc <HAL_RCC_OscConfig+0x330>)
 80036d8:	681a      	ldr	r2, [r3, #0]
 80036da:	4b38      	ldr	r3, [pc, #224]	@ (80037bc <HAL_RCC_OscConfig+0x330>)
 80036dc:	2180      	movs	r1, #128	@ 0x80
 80036de:	0249      	lsls	r1, r1, #9
 80036e0:	430a      	orrs	r2, r1
 80036e2:	601a      	str	r2, [r3, #0]
 80036e4:	e013      	b.n	800370e <HAL_RCC_OscConfig+0x282>
 80036e6:	687b      	ldr	r3, [r7, #4]
 80036e8:	685a      	ldr	r2, [r3, #4]
 80036ea:	23a0      	movs	r3, #160	@ 0xa0
 80036ec:	02db      	lsls	r3, r3, #11
 80036ee:	429a      	cmp	r2, r3
 80036f0:	d107      	bne.n	8003702 <HAL_RCC_OscConfig+0x276>
 80036f2:	4b32      	ldr	r3, [pc, #200]	@ (80037bc <HAL_RCC_OscConfig+0x330>)
 80036f4:	681a      	ldr	r2, [r3, #0]
 80036f6:	4b31      	ldr	r3, [pc, #196]	@ (80037bc <HAL_RCC_OscConfig+0x330>)
 80036f8:	21a0      	movs	r1, #160	@ 0xa0
 80036fa:	02c9      	lsls	r1, r1, #11
 80036fc:	430a      	orrs	r2, r1
 80036fe:	601a      	str	r2, [r3, #0]
 8003700:	e005      	b.n	800370e <HAL_RCC_OscConfig+0x282>
 8003702:	4b2e      	ldr	r3, [pc, #184]	@ (80037bc <HAL_RCC_OscConfig+0x330>)
 8003704:	681a      	ldr	r2, [r3, #0]
 8003706:	4b2d      	ldr	r3, [pc, #180]	@ (80037bc <HAL_RCC_OscConfig+0x330>)
 8003708:	4931      	ldr	r1, [pc, #196]	@ (80037d0 <HAL_RCC_OscConfig+0x344>)
 800370a:	400a      	ands	r2, r1
 800370c:	601a      	str	r2, [r3, #0]

      /* Check the HSE State */
      if (RCC_OscInitStruct->HSEState != RCC_HSE_OFF)
 800370e:	687b      	ldr	r3, [r7, #4]
 8003710:	685b      	ldr	r3, [r3, #4]
 8003712:	2b00      	cmp	r3, #0
 8003714:	d014      	beq.n	8003740 <HAL_RCC_OscConfig+0x2b4>
      {
        /* Get Start Tick*/
        tickstart = HAL_GetTick();
 8003716:	f7fd fcd7 	bl	80010c8 <HAL_GetTick>
 800371a:	0003      	movs	r3, r0
 800371c:	613b      	str	r3, [r7, #16]
        /* Wait till HSE is ready */
        while (READ_BIT(RCC->CR, RCC_CR_HSERDY) == 0U)
 800371e:	e008      	b.n	8003732 <HAL_RCC_OscConfig+0x2a6>
        {
          if ((HAL_GetTick() - tickstart) > RCC_HSE_TIMEOUT_VALUE)
 8003720:	f7fd fcd2 	bl	80010c8 <HAL_GetTick>
 8003724:	0002      	movs	r2, r0
 8003726:	693b      	ldr	r3, [r7, #16]
 8003728:	1ad3      	subs	r3, r2, r3
 800372a:	2b64      	cmp	r3, #100	@ 0x64
 800372c:	d901      	bls.n	8003732 <HAL_RCC_OscConfig+0x2a6>
          {
            return HAL_TIMEOUT;
 800372e:	2303      	movs	r3, #3
 8003730:	e2c9      	b.n	8003cc6 <HAL_RCC_OscConfig+0x83a>
        while (READ_BIT(RCC->CR, RCC_CR_HSERDY) == 0U)
 8003732:	4b22      	ldr	r3, [pc, #136]	@ (80037bc <HAL_RCC_OscConfig+0x330>)
 8003734:	681a      	ldr	r2, [r3, #0]
 8003736:	2380      	movs	r3, #128	@ 0x80
 8003738:	029b      	lsls	r3, r3, #10
 800373a:	4013      	ands	r3, r2
 800373c:	d0f0      	beq.n	8003720 <HAL_RCC_OscConfig+0x294>
 800373e:	e015      	b.n	800376c <HAL_RCC_OscConfig+0x2e0>
        }
      }
      else
      {
        /* Get Start Tick*/
        tickstart = HAL_GetTick();
 8003740:	f7fd fcc2 	bl	80010c8 <HAL_GetTick>
 8003744:	0003      	movs	r3, r0
 8003746:	613b      	str	r3, [r7, #16]

        /* Wait till HSE is disabled */
        while (READ_BIT(RCC->CR, RCC_CR_HSERDY) != 0U)
 8003748:	e008      	b.n	800375c <HAL_RCC_OscConfig+0x2d0>
        {
          if ((HAL_GetTick() - tickstart) > RCC_HSE_TIMEOUT_VALUE)
 800374a:	f7fd fcbd 	bl	80010c8 <HAL_GetTick>
 800374e:	0002      	movs	r2, r0
 8003750:	693b      	ldr	r3, [r7, #16]
 8003752:	1ad3      	subs	r3, r2, r3
 8003754:	2b64      	cmp	r3, #100	@ 0x64
 8003756:	d901      	bls.n	800375c <HAL_RCC_OscConfig+0x2d0>
          {
            return HAL_TIMEOUT;
 8003758:	2303      	movs	r3, #3
 800375a:	e2b4      	b.n	8003cc6 <HAL_RCC_OscConfig+0x83a>
        while (READ_BIT(RCC->CR, RCC_CR_HSERDY) != 0U)
 800375c:	4b17      	ldr	r3, [pc, #92]	@ (80037bc <HAL_RCC_OscConfig+0x330>)
 800375e:	681a      	ldr	r2, [r3, #0]
 8003760:	2380      	movs	r3, #128	@ 0x80
 8003762:	029b      	lsls	r3, r3, #10
 8003764:	4013      	ands	r3, r2
 8003766:	d1f0      	bne.n	800374a <HAL_RCC_OscConfig+0x2be>
 8003768:	e000      	b.n	800376c <HAL_RCC_OscConfig+0x2e0>
      if ((READ_BIT(RCC->CR, RCC_CR_HSERDY) != 0U) && (RCC_OscInitStruct->HSEState == RCC_HSE_OFF))
 800376a:	46c0      	nop			@ (mov r8, r8)
        }
      }
    }
  }
  /*----------------------------- HSI Configuration --------------------------*/
  if (((RCC_OscInitStruct->OscillatorType) & RCC_OSCILLATORTYPE_HSI) == RCC_OSCILLATORTYPE_HSI)
 800376c:	687b      	ldr	r3, [r7, #4]
 800376e:	681b      	ldr	r3, [r3, #0]
 8003770:	2202      	movs	r2, #2
 8003772:	4013      	ands	r3, r2
 8003774:	d100      	bne.n	8003778 <HAL_RCC_OscConfig+0x2ec>
 8003776:	e074      	b.n	8003862 <HAL_RCC_OscConfig+0x3d6>
    /* Check the parameters */
    assert_param(IS_RCC_HSI(RCC_OscInitStruct->HSIState));
    assert_param(IS_RCC_HSI_CALIBRATION_VALUE(RCC_OscInitStruct->HSICalibrationValue));

    /* Check if HSI is used as system clock or as PLL source when PLL is selected as system clock */
    if ((sysclk_source == RCC_SYSCLKSOURCE_STATUS_HSI) ||
 8003778:	69bb      	ldr	r3, [r7, #24]
 800377a:	2b08      	cmp	r3, #8
 800377c:	d005      	beq.n	800378a <HAL_RCC_OscConfig+0x2fe>
 800377e:	69bb      	ldr	r3, [r7, #24]
 8003780:	2b18      	cmp	r3, #24
 8003782:	d129      	bne.n	80037d8 <HAL_RCC_OscConfig+0x34c>
        ((sysclk_source == RCC_SYSCLKSOURCE_STATUS_PLLCLK) && (pll_config == RCC_PLLSOURCE_HSI)))
 8003784:	697b      	ldr	r3, [r7, #20]
 8003786:	2b02      	cmp	r3, #2
 8003788:	d126      	bne.n	80037d8 <HAL_RCC_OscConfig+0x34c>
    {
      /* When HSI is used as system clock it will not be disabled */
      if ((READ_BIT(RCC->CR, RCC_CR_HSIRDY) != 0U) && (RCC_OscInitStruct->HSIState == RCC_HSI_OFF))
 800378a:	4b0c      	ldr	r3, [pc, #48]	@ (80037bc <HAL_RCC_OscConfig+0x330>)
 800378c:	681a      	ldr	r2, [r3, #0]
 800378e:	2380      	movs	r3, #128	@ 0x80
 8003790:	00db      	lsls	r3, r3, #3
 8003792:	4013      	ands	r3, r2
 8003794:	d005      	beq.n	80037a2 <HAL_RCC_OscConfig+0x316>
 8003796:	687b      	ldr	r3, [r7, #4]
 8003798:	68db      	ldr	r3, [r3, #12]
 800379a:	2b00      	cmp	r3, #0
 800379c:	d101      	bne.n	80037a2 <HAL_RCC_OscConfig+0x316>
      {
        return HAL_ERROR;
 800379e:	2301      	movs	r3, #1
 80037a0:	e291      	b.n	8003cc6 <HAL_RCC_OscConfig+0x83a>
      }
      /* Otherwise, just the calibration is allowed */
      else
      {
        /* Adjusts the Internal High Speed oscillator (HSI) calibration value.*/
        __HAL_RCC_HSI_CALIBRATIONVALUE_ADJUST(RCC_OscInitStruct->HSICalibrationValue);
 80037a2:	4b06      	ldr	r3, [pc, #24]	@ (80037bc <HAL_RCC_OscConfig+0x330>)
 80037a4:	685b      	ldr	r3, [r3, #4]
 80037a6:	4a0b      	ldr	r2, [pc, #44]	@ (80037d4 <HAL_RCC_OscConfig+0x348>)
 80037a8:	4013      	ands	r3, r2
 80037aa:	0019      	movs	r1, r3
 80037ac:	687b      	ldr	r3, [r7, #4]
 80037ae:	691b      	ldr	r3, [r3, #16]
 80037b0:	061a      	lsls	r2, r3, #24
 80037b2:	4b02      	ldr	r3, [pc, #8]	@ (80037bc <HAL_RCC_OscConfig+0x330>)
 80037b4:	430a      	orrs	r2, r1
 80037b6:	605a      	str	r2, [r3, #4]
      if ((READ_BIT(RCC->CR, RCC_CR_HSIRDY) != 0U) && (RCC_OscInitStruct->HSIState == RCC_HSI_OFF))
 80037b8:	e053      	b.n	8003862 <HAL_RCC_OscConfig+0x3d6>
 80037ba:	46c0      	nop			@ (mov r8, r8)
 80037bc:	40021000 	.word	0x40021000
 80037c0:	ffff00ff 	.word	0xffff00ff
 80037c4:	08006db4 	.word	0x08006db4
 80037c8:	20000034 	.word	0x20000034
 80037cc:	2000004c 	.word	0x2000004c
 80037d0:	fffaffff 	.word	0xfffaffff
 80037d4:	80ffffff 	.word	0x80ffffff
      }
    }
    else
    {
      /* Check the HSI State */
      if (RCC_OscInitStruct->HSIState != RCC_HSI_OFF)
 80037d8:	687b      	ldr	r3, [r7, #4]
 80037da:	68db      	ldr	r3, [r3, #12]
 80037dc:	2b00      	cmp	r3, #0
 80037de:	d026      	beq.n	800382e <HAL_RCC_OscConfig+0x3a2>
      {
        /* Enable the Internal High Speed oscillator (HSI). */
        __HAL_RCC_HSI_ENABLE();
 80037e0:	4bc7      	ldr	r3, [pc, #796]	@ (8003b00 <HAL_RCC_OscConfig+0x674>)
 80037e2:	681a      	ldr	r2, [r3, #0]
 80037e4:	4bc6      	ldr	r3, [pc, #792]	@ (8003b00 <HAL_RCC_OscConfig+0x674>)
 80037e6:	2180      	movs	r1, #128	@ 0x80
 80037e8:	0049      	lsls	r1, r1, #1
 80037ea:	430a      	orrs	r2, r1
 80037ec:	601a      	str	r2, [r3, #0]

        /* Get Start Tick*/
        tickstart = HAL_GetTick();
 80037ee:	f7fd fc6b 	bl	80010c8 <HAL_GetTick>
 80037f2:	0003      	movs	r3, r0
 80037f4:	613b      	str	r3, [r7, #16]

        /* Wait till HSI is ready */
        while (READ_BIT(RCC->CR, RCC_CR_HSIRDY) == 0U)
 80037f6:	e008      	b.n	800380a <HAL_RCC_OscConfig+0x37e>
        {
          if ((HAL_GetTick() - tickstart) > RCC_HSI_TIMEOUT_VALUE)
 80037f8:	f7fd fc66 	bl	80010c8 <HAL_GetTick>
 80037fc:	0002      	movs	r2, r0
 80037fe:	693b      	ldr	r3, [r7, #16]
 8003800:	1ad3      	subs	r3, r2, r3
 8003802:	2b02      	cmp	r3, #2
 8003804:	d901      	bls.n	800380a <HAL_RCC_OscConfig+0x37e>
          {
            return HAL_TIMEOUT;
 8003806:	2303      	movs	r3, #3
 8003808:	e25d      	b.n	8003cc6 <HAL_RCC_OscConfig+0x83a>
        while (READ_BIT(RCC->CR, RCC_CR_HSIRDY) == 0U)
 800380a:	4bbd      	ldr	r3, [pc, #756]	@ (8003b00 <HAL_RCC_OscConfig+0x674>)
 800380c:	681a      	ldr	r2, [r3, #0]
 800380e:	2380      	movs	r3, #128	@ 0x80
 8003810:	00db      	lsls	r3, r3, #3
 8003812:	4013      	ands	r3, r2
 8003814:	d0f0      	beq.n	80037f8 <HAL_RCC_OscConfig+0x36c>
          }
        }

        /* Adjusts the Internal High Speed oscillator (HSI) calibration value.*/
        __HAL_RCC_HSI_CALIBRATIONVALUE_ADJUST(RCC_OscInitStruct->HSICalibrationValue);
 8003816:	4bba      	ldr	r3, [pc, #744]	@ (8003b00 <HAL_RCC_OscConfig+0x674>)
 8003818:	685b      	ldr	r3, [r3, #4]
 800381a:	4aba      	ldr	r2, [pc, #744]	@ (8003b04 <HAL_RCC_OscConfig+0x678>)
 800381c:	4013      	ands	r3, r2
 800381e:	0019      	movs	r1, r3
 8003820:	687b      	ldr	r3, [r7, #4]
 8003822:	691b      	ldr	r3, [r3, #16]
 8003824:	061a      	lsls	r2, r3, #24
 8003826:	4bb6      	ldr	r3, [pc, #728]	@ (8003b00 <HAL_RCC_OscConfig+0x674>)
 8003828:	430a      	orrs	r2, r1
 800382a:	605a      	str	r2, [r3, #4]
 800382c:	e019      	b.n	8003862 <HAL_RCC_OscConfig+0x3d6>
      }
      else
      {
        /* Disable the Internal High Speed oscillator (HSI). */
        __HAL_RCC_HSI_DISABLE();
 800382e:	4bb4      	ldr	r3, [pc, #720]	@ (8003b00 <HAL_RCC_OscConfig+0x674>)
 8003830:	681a      	ldr	r2, [r3, #0]
 8003832:	4bb3      	ldr	r3, [pc, #716]	@ (8003b00 <HAL_RCC_OscConfig+0x674>)
 8003834:	49b4      	ldr	r1, [pc, #720]	@ (8003b08 <HAL_RCC_OscConfig+0x67c>)
 8003836:	400a      	ands	r2, r1
 8003838:	601a      	str	r2, [r3, #0]

        /* Get Start Tick*/
        tickstart = HAL_GetTick();
 800383a:	f7fd fc45 	bl	80010c8 <HAL_GetTick>
 800383e:	0003      	movs	r3, r0
 8003840:	613b      	str	r3, [r7, #16]

        /* Wait till HSI is disabled */
        while (READ_BIT(RCC->CR, RCC_CR_HSIRDY) != 0U)
 8003842:	e008      	b.n	8003856 <HAL_RCC_OscConfig+0x3ca>
        {
          if ((HAL_GetTick() - tickstart) > RCC_HSI_TIMEOUT_VALUE)
 8003844:	f7fd fc40 	bl	80010c8 <HAL_GetTick>
 8003848:	0002      	movs	r2, r0
 800384a:	693b      	ldr	r3, [r7, #16]
 800384c:	1ad3      	subs	r3, r2, r3
 800384e:	2b02      	cmp	r3, #2
 8003850:	d901      	bls.n	8003856 <HAL_RCC_OscConfig+0x3ca>
          {
            return HAL_TIMEOUT;
 8003852:	2303      	movs	r3, #3
 8003854:	e237      	b.n	8003cc6 <HAL_RCC_OscConfig+0x83a>
        while (READ_BIT(RCC->CR, RCC_CR_HSIRDY) != 0U)
 8003856:	4baa      	ldr	r3, [pc, #680]	@ (8003b00 <HAL_RCC_OscConfig+0x674>)
 8003858:	681a      	ldr	r2, [r3, #0]
 800385a:	2380      	movs	r3, #128	@ 0x80
 800385c:	00db      	lsls	r3, r3, #3
 800385e:	4013      	ands	r3, r2
 8003860:	d1f0      	bne.n	8003844 <HAL_RCC_OscConfig+0x3b8>
        }
      }
    }
  }
  /*------------------------------ LSI Configuration -------------------------*/
  if (((RCC_OscInitStruct->OscillatorType) & RCC_OSCILLATORTYPE_LSI) == RCC_OSCILLATORTYPE_LSI)
 8003862:	687b      	ldr	r3, [r7, #4]
 8003864:	681b      	ldr	r3, [r3, #0]
 8003866:	2208      	movs	r2, #8
 8003868:	4013      	ands	r3, r2
 800386a:	d051      	beq.n	8003910 <HAL_RCC_OscConfig+0x484>
    /* Check the parameters */
    assert_param(IS_RCC_LSI(RCC_OscInitStruct->LSIState));
    assert_param(IS_RCC_LSIDIV(RCC_OscInitStruct->LSIDiv));

    /* Check the LSI State */
    if ((RCC_OscInitStruct->LSIState) != RCC_LSI_OFF)
 800386c:	687b      	ldr	r3, [r7, #4]
 800386e:	695b      	ldr	r3, [r3, #20]
 8003870:	2b00      	cmp	r3, #0
 8003872:	d031      	beq.n	80038d8 <HAL_RCC_OscConfig+0x44c>
    {
      /* Apply prescaler value */
      if (RCC_OscInitStruct->LSIDiv == RCC_LSI_DIV1)
 8003874:	687b      	ldr	r3, [r7, #4]
 8003876:	699b      	ldr	r3, [r3, #24]
 8003878:	2b00      	cmp	r3, #0
 800387a:	d108      	bne.n	800388e <HAL_RCC_OscConfig+0x402>
      {
        CLEAR_BIT(RCC->CSR, RCC_CSR_LSIPREDIV);
 800387c:	4aa0      	ldr	r2, [pc, #640]	@ (8003b00 <HAL_RCC_OscConfig+0x674>)
 800387e:	2394      	movs	r3, #148	@ 0x94
 8003880:	58d3      	ldr	r3, [r2, r3]
 8003882:	499f      	ldr	r1, [pc, #636]	@ (8003b00 <HAL_RCC_OscConfig+0x674>)
 8003884:	2204      	movs	r2, #4
 8003886:	4393      	bics	r3, r2
 8003888:	2294      	movs	r2, #148	@ 0x94
 800388a:	508b      	str	r3, [r1, r2]
 800388c:	e007      	b.n	800389e <HAL_RCC_OscConfig+0x412>
      }
      else
      {
        SET_BIT(RCC->CSR, RCC_CSR_LSIPREDIV);
 800388e:	4a9c      	ldr	r2, [pc, #624]	@ (8003b00 <HAL_RCC_OscConfig+0x674>)
 8003890:	2394      	movs	r3, #148	@ 0x94
 8003892:	58d3      	ldr	r3, [r2, r3]
 8003894:	499a      	ldr	r1, [pc, #616]	@ (8003b00 <HAL_RCC_OscConfig+0x674>)
 8003896:	2204      	movs	r2, #4
 8003898:	4313      	orrs	r3, r2
 800389a:	2294      	movs	r2, #148	@ 0x94
 800389c:	508b      	str	r3, [r1, r2]
      }
      /* Enable the Internal Low Speed oscillator (LSI). */
      __HAL_RCC_LSI_ENABLE();
 800389e:	4a98      	ldr	r2, [pc, #608]	@ (8003b00 <HAL_RCC_OscConfig+0x674>)
 80038a0:	2394      	movs	r3, #148	@ 0x94
 80038a2:	58d3      	ldr	r3, [r2, r3]
 80038a4:	4996      	ldr	r1, [pc, #600]	@ (8003b00 <HAL_RCC_OscConfig+0x674>)
 80038a6:	2201      	movs	r2, #1
 80038a8:	4313      	orrs	r3, r2
 80038aa:	2294      	movs	r2, #148	@ 0x94
 80038ac:	508b      	str	r3, [r1, r2]

      /* Get Start Tick*/
      tickstart = HAL_GetTick();
 80038ae:	f7fd fc0b 	bl	80010c8 <HAL_GetTick>
 80038b2:	0003      	movs	r3, r0
 80038b4:	613b      	str	r3, [r7, #16]

      /* Wait till LSI is ready */
      while (__HAL_RCC_GET_FLAG(RCC_FLAG_LSIRDY) == 0U)
 80038b6:	e008      	b.n	80038ca <HAL_RCC_OscConfig+0x43e>
      {
        if ((HAL_GetTick() - tickstart) > LSI_TIMEOUT_VALUE)
 80038b8:	f7fd fc06 	bl	80010c8 <HAL_GetTick>
 80038bc:	0002      	movs	r2, r0
 80038be:	693b      	ldr	r3, [r7, #16]
 80038c0:	1ad3      	subs	r3, r2, r3
 80038c2:	2b11      	cmp	r3, #17
 80038c4:	d901      	bls.n	80038ca <HAL_RCC_OscConfig+0x43e>
        {
          return HAL_TIMEOUT;
 80038c6:	2303      	movs	r3, #3
 80038c8:	e1fd      	b.n	8003cc6 <HAL_RCC_OscConfig+0x83a>
      while (__HAL_RCC_GET_FLAG(RCC_FLAG_LSIRDY) == 0U)
 80038ca:	4a8d      	ldr	r2, [pc, #564]	@ (8003b00 <HAL_RCC_OscConfig+0x674>)
 80038cc:	2394      	movs	r3, #148	@ 0x94
 80038ce:	58d3      	ldr	r3, [r2, r3]
 80038d0:	2202      	movs	r2, #2
 80038d2:	4013      	ands	r3, r2
 80038d4:	d0f0      	beq.n	80038b8 <HAL_RCC_OscConfig+0x42c>
 80038d6:	e01b      	b.n	8003910 <HAL_RCC_OscConfig+0x484>
      }
    }
    else
    {
      /* Disable the Internal Low Speed oscillator (LSI). */
      __HAL_RCC_LSI_DISABLE();
 80038d8:	4a89      	ldr	r2, [pc, #548]	@ (8003b00 <HAL_RCC_OscConfig+0x674>)
 80038da:	2394      	movs	r3, #148	@ 0x94
 80038dc:	58d3      	ldr	r3, [r2, r3]
 80038de:	4988      	ldr	r1, [pc, #544]	@ (8003b00 <HAL_RCC_OscConfig+0x674>)
 80038e0:	2201      	movs	r2, #1
 80038e2:	4393      	bics	r3, r2
 80038e4:	2294      	movs	r2, #148	@ 0x94
 80038e6:	508b      	str	r3, [r1, r2]

      /* Get Start Tick*/
      tickstart = HAL_GetTick();
 80038e8:	f7fd fbee 	bl	80010c8 <HAL_GetTick>
 80038ec:	0003      	movs	r3, r0
 80038ee:	613b      	str	r3, [r7, #16]

      /* Wait till LSI is ready */
      while (__HAL_RCC_GET_FLAG(RCC_FLAG_LSIRDY) != 0U)
 80038f0:	e008      	b.n	8003904 <HAL_RCC_OscConfig+0x478>
      {
        if ((HAL_GetTick() - tickstart) > LSI_TIMEOUT_VALUE)
 80038f2:	f7fd fbe9 	bl	80010c8 <HAL_GetTick>
 80038f6:	0002      	movs	r2, r0
 80038f8:	693b      	ldr	r3, [r7, #16]
 80038fa:	1ad3      	subs	r3, r2, r3
 80038fc:	2b11      	cmp	r3, #17
 80038fe:	d901      	bls.n	8003904 <HAL_RCC_OscConfig+0x478>
        {
          return HAL_TIMEOUT;
 8003900:	2303      	movs	r3, #3
 8003902:	e1e0      	b.n	8003cc6 <HAL_RCC_OscConfig+0x83a>
      while (__HAL_RCC_GET_FLAG(RCC_FLAG_LSIRDY) != 0U)
 8003904:	4a7e      	ldr	r2, [pc, #504]	@ (8003b00 <HAL_RCC_OscConfig+0x674>)
 8003906:	2394      	movs	r3, #148	@ 0x94
 8003908:	58d3      	ldr	r3, [r2, r3]
 800390a:	2202      	movs	r2, #2
 800390c:	4013      	ands	r3, r2
 800390e:	d1f0      	bne.n	80038f2 <HAL_RCC_OscConfig+0x466>
      }
    }
  }

  /*------------------------------ LSE Configuration -------------------------*/
  if (((RCC_OscInitStruct->OscillatorType) & RCC_OSCILLATORTYPE_LSE) == RCC_OSCILLATORTYPE_LSE)
 8003910:	687b      	ldr	r3, [r7, #4]
 8003912:	681b      	ldr	r3, [r3, #0]
 8003914:	2204      	movs	r2, #4
 8003916:	4013      	ands	r3, r2
 8003918:	d100      	bne.n	800391c <HAL_RCC_OscConfig+0x490>
 800391a:	e10d      	b.n	8003b38 <HAL_RCC_OscConfig+0x6ac>
  {
    FlagStatus       pwrclkchanged = RESET;
 800391c:	201f      	movs	r0, #31
 800391e:	183b      	adds	r3, r7, r0
 8003920:	2200      	movs	r2, #0
 8003922:	701a      	strb	r2, [r3, #0]
    /* Check the parameters */
    assert_param(IS_RCC_LSE(RCC_OscInitStruct->LSEState));

    /* Update LSE configuration in Backup Domain control register    */
    /* Requires to enable write access to Backup Domain of necessary */
    if (HAL_IS_BIT_CLR(RCC->APBENR1, RCC_APBENR1_PWREN))
 8003924:	4b76      	ldr	r3, [pc, #472]	@ (8003b00 <HAL_RCC_OscConfig+0x674>)
 8003926:	6d9a      	ldr	r2, [r3, #88]	@ 0x58
 8003928:	2380      	movs	r3, #128	@ 0x80
 800392a:	055b      	lsls	r3, r3, #21
 800392c:	4013      	ands	r3, r2
 800392e:	d110      	bne.n	8003952 <HAL_RCC_OscConfig+0x4c6>
    {
      __HAL_RCC_PWR_CLK_ENABLE();
 8003930:	4b73      	ldr	r3, [pc, #460]	@ (8003b00 <HAL_RCC_OscConfig+0x674>)
 8003932:	6d9a      	ldr	r2, [r3, #88]	@ 0x58
 8003934:	4b72      	ldr	r3, [pc, #456]	@ (8003b00 <HAL_RCC_OscConfig+0x674>)
 8003936:	2180      	movs	r1, #128	@ 0x80
 8003938:	0549      	lsls	r1, r1, #21
 800393a:	430a      	orrs	r2, r1
 800393c:	659a      	str	r2, [r3, #88]	@ 0x58
 800393e:	4b70      	ldr	r3, [pc, #448]	@ (8003b00 <HAL_RCC_OscConfig+0x674>)
 8003940:	6d9a      	ldr	r2, [r3, #88]	@ 0x58
 8003942:	2380      	movs	r3, #128	@ 0x80
 8003944:	055b      	lsls	r3, r3, #21
 8003946:	4013      	ands	r3, r2
 8003948:	60bb      	str	r3, [r7, #8]
 800394a:	68bb      	ldr	r3, [r7, #8]
      pwrclkchanged = SET;
 800394c:	183b      	adds	r3, r7, r0
 800394e:	2201      	movs	r2, #1
 8003950:	701a      	strb	r2, [r3, #0]
    }

    if (HAL_IS_BIT_CLR(PWR->CR1, PWR_CR1_DBP))
 8003952:	4b6e      	ldr	r3, [pc, #440]	@ (8003b0c <HAL_RCC_OscConfig+0x680>)
 8003954:	681a      	ldr	r2, [r3, #0]
 8003956:	2380      	movs	r3, #128	@ 0x80
 8003958:	005b      	lsls	r3, r3, #1
 800395a:	4013      	ands	r3, r2
 800395c:	d11a      	bne.n	8003994 <HAL_RCC_OscConfig+0x508>
    {
      /* Enable write access to Backup domain */
      SET_BIT(PWR->CR1, PWR_CR1_DBP);
 800395e:	4b6b      	ldr	r3, [pc, #428]	@ (8003b0c <HAL_RCC_OscConfig+0x680>)
 8003960:	681a      	ldr	r2, [r3, #0]
 8003962:	4b6a      	ldr	r3, [pc, #424]	@ (8003b0c <HAL_RCC_OscConfig+0x680>)
 8003964:	2180      	movs	r1, #128	@ 0x80
 8003966:	0049      	lsls	r1, r1, #1
 8003968:	430a      	orrs	r2, r1
 800396a:	601a      	str	r2, [r3, #0]

      /* Wait for Backup domain Write protection disable */
      tickstart = HAL_GetTick();
 800396c:	f7fd fbac 	bl	80010c8 <HAL_GetTick>
 8003970:	0003      	movs	r3, r0
 8003972:	613b      	str	r3, [r7, #16]

      while (HAL_IS_BIT_CLR(PWR->CR1, PWR_CR1_DBP))
 8003974:	e008      	b.n	8003988 <HAL_RCC_OscConfig+0x4fc>
      {
        if ((HAL_GetTick() - tickstart) > RCC_DBP_TIMEOUT_VALUE)
 8003976:	f7fd fba7 	bl	80010c8 <HAL_GetTick>
 800397a:	0002      	movs	r2, r0
 800397c:	693b      	ldr	r3, [r7, #16]
 800397e:	1ad3      	subs	r3, r2, r3
 8003980:	2b02      	cmp	r3, #2
 8003982:	d901      	bls.n	8003988 <HAL_RCC_OscConfig+0x4fc>
        {
          return HAL_TIMEOUT;
 8003984:	2303      	movs	r3, #3
 8003986:	e19e      	b.n	8003cc6 <HAL_RCC_OscConfig+0x83a>
      while (HAL_IS_BIT_CLR(PWR->CR1, PWR_CR1_DBP))
 8003988:	4b60      	ldr	r3, [pc, #384]	@ (8003b0c <HAL_RCC_OscConfig+0x680>)
 800398a:	681a      	ldr	r2, [r3, #0]
 800398c:	2380      	movs	r3, #128	@ 0x80
 800398e:	005b      	lsls	r3, r3, #1
 8003990:	4013      	ands	r3, r2
 8003992:	d0f0      	beq.n	8003976 <HAL_RCC_OscConfig+0x4ea>
        }
      }
    }

    /* Set the new LSE configuration -----------------------------------------*/
    if ((RCC_OscInitStruct->LSEState & RCC_BDCR_LSEON) != 0U)
 8003994:	687b      	ldr	r3, [r7, #4]
 8003996:	689b      	ldr	r3, [r3, #8]
 8003998:	2201      	movs	r2, #1
 800399a:	4013      	ands	r3, r2
 800399c:	d01e      	beq.n	80039dc <HAL_RCC_OscConfig+0x550>
    {
      if ((RCC_OscInitStruct->LSEState & RCC_BDCR_LSEBYP) != 0U)
 800399e:	687b      	ldr	r3, [r7, #4]
 80039a0:	689b      	ldr	r3, [r3, #8]
 80039a2:	2204      	movs	r2, #4
 80039a4:	4013      	ands	r3, r2
 80039a6:	d010      	beq.n	80039ca <HAL_RCC_OscConfig+0x53e>
      {
        /* LSE oscillator bypass enable */
        SET_BIT(RCC->BDCR, RCC_BDCR_LSEBYP);
 80039a8:	4a55      	ldr	r2, [pc, #340]	@ (8003b00 <HAL_RCC_OscConfig+0x674>)
 80039aa:	2390      	movs	r3, #144	@ 0x90
 80039ac:	58d3      	ldr	r3, [r2, r3]
 80039ae:	4954      	ldr	r1, [pc, #336]	@ (8003b00 <HAL_RCC_OscConfig+0x674>)
 80039b0:	2204      	movs	r2, #4
 80039b2:	4313      	orrs	r3, r2
 80039b4:	2290      	movs	r2, #144	@ 0x90
 80039b6:	508b      	str	r3, [r1, r2]
        SET_BIT(RCC->BDCR, RCC_BDCR_LSEON);
 80039b8:	4a51      	ldr	r2, [pc, #324]	@ (8003b00 <HAL_RCC_OscConfig+0x674>)
 80039ba:	2390      	movs	r3, #144	@ 0x90
 80039bc:	58d3      	ldr	r3, [r2, r3]
 80039be:	4950      	ldr	r1, [pc, #320]	@ (8003b00 <HAL_RCC_OscConfig+0x674>)
 80039c0:	2201      	movs	r2, #1
 80039c2:	4313      	orrs	r3, r2
 80039c4:	2290      	movs	r2, #144	@ 0x90
 80039c6:	508b      	str	r3, [r1, r2]
 80039c8:	e018      	b.n	80039fc <HAL_RCC_OscConfig+0x570>
      }
      else
      {
        /* LSE oscillator enable */
        SET_BIT(RCC->BDCR, RCC_BDCR_LSEON);
 80039ca:	4a4d      	ldr	r2, [pc, #308]	@ (8003b00 <HAL_RCC_OscConfig+0x674>)
 80039cc:	2390      	movs	r3, #144	@ 0x90
 80039ce:	58d3      	ldr	r3, [r2, r3]
 80039d0:	494b      	ldr	r1, [pc, #300]	@ (8003b00 <HAL_RCC_OscConfig+0x674>)
 80039d2:	2201      	movs	r2, #1
 80039d4:	4313      	orrs	r3, r2
 80039d6:	2290      	movs	r2, #144	@ 0x90
 80039d8:	508b      	str	r3, [r1, r2]
 80039da:	e00f      	b.n	80039fc <HAL_RCC_OscConfig+0x570>
      }
    }
    else
    {
      CLEAR_BIT(RCC->BDCR, RCC_BDCR_LSEON);
 80039dc:	4a48      	ldr	r2, [pc, #288]	@ (8003b00 <HAL_RCC_OscConfig+0x674>)
 80039de:	2390      	movs	r3, #144	@ 0x90
 80039e0:	58d3      	ldr	r3, [r2, r3]
 80039e2:	4947      	ldr	r1, [pc, #284]	@ (8003b00 <HAL_RCC_OscConfig+0x674>)
 80039e4:	2201      	movs	r2, #1
 80039e6:	4393      	bics	r3, r2
 80039e8:	2290      	movs	r2, #144	@ 0x90
 80039ea:	508b      	str	r3, [r1, r2]
      CLEAR_BIT(RCC->BDCR, RCC_BDCR_LSEBYP);
 80039ec:	4a44      	ldr	r2, [pc, #272]	@ (8003b00 <HAL_RCC_OscConfig+0x674>)
 80039ee:	2390      	movs	r3, #144	@ 0x90
 80039f0:	58d3      	ldr	r3, [r2, r3]
 80039f2:	4943      	ldr	r1, [pc, #268]	@ (8003b00 <HAL_RCC_OscConfig+0x674>)
 80039f4:	2204      	movs	r2, #4
 80039f6:	4393      	bics	r3, r2
 80039f8:	2290      	movs	r2, #144	@ 0x90
 80039fa:	508b      	str	r3, [r1, r2]
    }

    /* Check the LSE State */
    if (RCC_OscInitStruct->LSEState != RCC_LSE_OFF)
 80039fc:	687b      	ldr	r3, [r7, #4]
 80039fe:	689b      	ldr	r3, [r3, #8]
 8003a00:	2b00      	cmp	r3, #0
 8003a02:	d04f      	beq.n	8003aa4 <HAL_RCC_OscConfig+0x618>
    {
      /* Get Start Tick*/
      tickstart = HAL_GetTick();
 8003a04:	f7fd fb60 	bl	80010c8 <HAL_GetTick>
 8003a08:	0003      	movs	r3, r0
 8003a0a:	613b      	str	r3, [r7, #16]

      /* Wait till LSE is ready */
      while (READ_BIT(RCC->BDCR, RCC_BDCR_LSERDY) == 0U)
 8003a0c:	e009      	b.n	8003a22 <HAL_RCC_OscConfig+0x596>
      {
        if ((HAL_GetTick() - tickstart) > RCC_LSE_TIMEOUT_VALUE)
 8003a0e:	f7fd fb5b 	bl	80010c8 <HAL_GetTick>
 8003a12:	0002      	movs	r2, r0
 8003a14:	693b      	ldr	r3, [r7, #16]
 8003a16:	1ad3      	subs	r3, r2, r3
 8003a18:	4a3d      	ldr	r2, [pc, #244]	@ (8003b10 <HAL_RCC_OscConfig+0x684>)
 8003a1a:	4293      	cmp	r3, r2
 8003a1c:	d901      	bls.n	8003a22 <HAL_RCC_OscConfig+0x596>
        {
          return HAL_TIMEOUT;
 8003a1e:	2303      	movs	r3, #3
 8003a20:	e151      	b.n	8003cc6 <HAL_RCC_OscConfig+0x83a>
      while (READ_BIT(RCC->BDCR, RCC_BDCR_LSERDY) == 0U)
 8003a22:	4a37      	ldr	r2, [pc, #220]	@ (8003b00 <HAL_RCC_OscConfig+0x674>)
 8003a24:	2390      	movs	r3, #144	@ 0x90
 8003a26:	58d3      	ldr	r3, [r2, r3]
 8003a28:	2202      	movs	r2, #2
 8003a2a:	4013      	ands	r3, r2
 8003a2c:	d0ef      	beq.n	8003a0e <HAL_RCC_OscConfig+0x582>
        }
      }

      /* Enable LSESYS additionally if requested */
      if ((RCC_OscInitStruct->LSEState & RCC_BDCR_LSESYSEN) != 0U)
 8003a2e:	687b      	ldr	r3, [r7, #4]
 8003a30:	689b      	ldr	r3, [r3, #8]
 8003a32:	2280      	movs	r2, #128	@ 0x80
 8003a34:	4013      	ands	r3, r2
 8003a36:	d01a      	beq.n	8003a6e <HAL_RCC_OscConfig+0x5e2>
      {
        SET_BIT(RCC->BDCR, RCC_BDCR_LSESYSEN);
 8003a38:	4a31      	ldr	r2, [pc, #196]	@ (8003b00 <HAL_RCC_OscConfig+0x674>)
 8003a3a:	2390      	movs	r3, #144	@ 0x90
 8003a3c:	58d3      	ldr	r3, [r2, r3]
 8003a3e:	4930      	ldr	r1, [pc, #192]	@ (8003b00 <HAL_RCC_OscConfig+0x674>)
 8003a40:	2280      	movs	r2, #128	@ 0x80
 8003a42:	4313      	orrs	r3, r2
 8003a44:	2290      	movs	r2, #144	@ 0x90
 8003a46:	508b      	str	r3, [r1, r2]

        /* Wait till LSESYS is ready */
        while (READ_BIT(RCC->BDCR, RCC_BDCR_LSESYSRDY) == 0U)
 8003a48:	e009      	b.n	8003a5e <HAL_RCC_OscConfig+0x5d2>
        {
          if ((HAL_GetTick() - tickstart) > RCC_LSE_TIMEOUT_VALUE)
 8003a4a:	f7fd fb3d 	bl	80010c8 <HAL_GetTick>
 8003a4e:	0002      	movs	r2, r0
 8003a50:	693b      	ldr	r3, [r7, #16]
 8003a52:	1ad3      	subs	r3, r2, r3
 8003a54:	4a2e      	ldr	r2, [pc, #184]	@ (8003b10 <HAL_RCC_OscConfig+0x684>)
 8003a56:	4293      	cmp	r3, r2
 8003a58:	d901      	bls.n	8003a5e <HAL_RCC_OscConfig+0x5d2>
          {
            return HAL_TIMEOUT;
 8003a5a:	2303      	movs	r3, #3
 8003a5c:	e133      	b.n	8003cc6 <HAL_RCC_OscConfig+0x83a>
        while (READ_BIT(RCC->BDCR, RCC_BDCR_LSESYSRDY) == 0U)
 8003a5e:	4a28      	ldr	r2, [pc, #160]	@ (8003b00 <HAL_RCC_OscConfig+0x674>)
 8003a60:	2390      	movs	r3, #144	@ 0x90
 8003a62:	58d2      	ldr	r2, [r2, r3]
 8003a64:	2380      	movs	r3, #128	@ 0x80
 8003a66:	011b      	lsls	r3, r3, #4
 8003a68:	4013      	ands	r3, r2
 8003a6a:	d0ee      	beq.n	8003a4a <HAL_RCC_OscConfig+0x5be>
 8003a6c:	e059      	b.n	8003b22 <HAL_RCC_OscConfig+0x696>
        }
      }
      else
      {
        /* Make sure LSESYSEN/LSESYSRDY are reset */
        CLEAR_BIT(RCC->BDCR, RCC_BDCR_LSESYSEN);
 8003a6e:	4a24      	ldr	r2, [pc, #144]	@ (8003b00 <HAL_RCC_OscConfig+0x674>)
 8003a70:	2390      	movs	r3, #144	@ 0x90
 8003a72:	58d3      	ldr	r3, [r2, r3]
 8003a74:	4922      	ldr	r1, [pc, #136]	@ (8003b00 <HAL_RCC_OscConfig+0x674>)
 8003a76:	2280      	movs	r2, #128	@ 0x80
 8003a78:	4393      	bics	r3, r2
 8003a7a:	2290      	movs	r2, #144	@ 0x90
 8003a7c:	508b      	str	r3, [r1, r2]

        /* Wait till LSESYSRDY is cleared */
        while (READ_BIT(RCC->BDCR, RCC_BDCR_LSESYSRDY) != 0U)
 8003a7e:	e009      	b.n	8003a94 <HAL_RCC_OscConfig+0x608>
        {
          if ((HAL_GetTick() - tickstart) > RCC_LSE_TIMEOUT_VALUE)
 8003a80:	f7fd fb22 	bl	80010c8 <HAL_GetTick>
 8003a84:	0002      	movs	r2, r0
 8003a86:	693b      	ldr	r3, [r7, #16]
 8003a88:	1ad3      	subs	r3, r2, r3
 8003a8a:	4a21      	ldr	r2, [pc, #132]	@ (8003b10 <HAL_RCC_OscConfig+0x684>)
 8003a8c:	4293      	cmp	r3, r2
 8003a8e:	d901      	bls.n	8003a94 <HAL_RCC_OscConfig+0x608>
          {
            return HAL_TIMEOUT;
 8003a90:	2303      	movs	r3, #3
 8003a92:	e118      	b.n	8003cc6 <HAL_RCC_OscConfig+0x83a>
        while (READ_BIT(RCC->BDCR, RCC_BDCR_LSESYSRDY) != 0U)
 8003a94:	4a1a      	ldr	r2, [pc, #104]	@ (8003b00 <HAL_RCC_OscConfig+0x674>)
 8003a96:	2390      	movs	r3, #144	@ 0x90
 8003a98:	58d2      	ldr	r2, [r2, r3]
 8003a9a:	2380      	movs	r3, #128	@ 0x80
 8003a9c:	011b      	lsls	r3, r3, #4
 8003a9e:	4013      	ands	r3, r2
 8003aa0:	d1ee      	bne.n	8003a80 <HAL_RCC_OscConfig+0x5f4>
 8003aa2:	e03e      	b.n	8003b22 <HAL_RCC_OscConfig+0x696>
      }
    }
    else
    {
      /* Get Start Tick*/
      tickstart = HAL_GetTick();
 8003aa4:	f7fd fb10 	bl	80010c8 <HAL_GetTick>
 8003aa8:	0003      	movs	r3, r0
 8003aaa:	613b      	str	r3, [r7, #16]

      /* Wait till LSE is disabled */
      while (READ_BIT(RCC->BDCR, RCC_BDCR_LSERDY) != 0U)
 8003aac:	e009      	b.n	8003ac2 <HAL_RCC_OscConfig+0x636>
      {
        if ((HAL_GetTick() - tickstart) > RCC_LSE_TIMEOUT_VALUE)
 8003aae:	f7fd fb0b 	bl	80010c8 <HAL_GetTick>
 8003ab2:	0002      	movs	r2, r0
 8003ab4:	693b      	ldr	r3, [r7, #16]
 8003ab6:	1ad3      	subs	r3, r2, r3
 8003ab8:	4a15      	ldr	r2, [pc, #84]	@ (8003b10 <HAL_RCC_OscConfig+0x684>)
 8003aba:	4293      	cmp	r3, r2
 8003abc:	d901      	bls.n	8003ac2 <HAL_RCC_OscConfig+0x636>
        {
          return HAL_TIMEOUT;
 8003abe:	2303      	movs	r3, #3
 8003ac0:	e101      	b.n	8003cc6 <HAL_RCC_OscConfig+0x83a>
      while (READ_BIT(RCC->BDCR, RCC_BDCR_LSERDY) != 0U)
 8003ac2:	4a0f      	ldr	r2, [pc, #60]	@ (8003b00 <HAL_RCC_OscConfig+0x674>)
 8003ac4:	2390      	movs	r3, #144	@ 0x90
 8003ac6:	58d3      	ldr	r3, [r2, r3]
 8003ac8:	2202      	movs	r2, #2
 8003aca:	4013      	ands	r3, r2
 8003acc:	d1ef      	bne.n	8003aae <HAL_RCC_OscConfig+0x622>
        }
      }

      if (READ_BIT(RCC->BDCR, RCC_BDCR_LSESYSEN) != 0U)
 8003ace:	4a0c      	ldr	r2, [pc, #48]	@ (8003b00 <HAL_RCC_OscConfig+0x674>)
 8003ad0:	2390      	movs	r3, #144	@ 0x90
 8003ad2:	58d3      	ldr	r3, [r2, r3]
 8003ad4:	2280      	movs	r2, #128	@ 0x80
 8003ad6:	4013      	ands	r3, r2
 8003ad8:	d023      	beq.n	8003b22 <HAL_RCC_OscConfig+0x696>
      {
        /* Reset LSESYSEN once LSE is disabled */
        CLEAR_BIT(RCC->BDCR, RCC_BDCR_LSESYSEN);
 8003ada:	4a09      	ldr	r2, [pc, #36]	@ (8003b00 <HAL_RCC_OscConfig+0x674>)
 8003adc:	2390      	movs	r3, #144	@ 0x90
 8003ade:	58d3      	ldr	r3, [r2, r3]
 8003ae0:	4907      	ldr	r1, [pc, #28]	@ (8003b00 <HAL_RCC_OscConfig+0x674>)
 8003ae2:	2280      	movs	r2, #128	@ 0x80
 8003ae4:	4393      	bics	r3, r2
 8003ae6:	2290      	movs	r2, #144	@ 0x90
 8003ae8:	508b      	str	r3, [r1, r2]

        /* Wait till LSESYSRDY is cleared */
        while (READ_BIT(RCC->BDCR, RCC_BDCR_LSESYSRDY) != 0U)
 8003aea:	e013      	b.n	8003b14 <HAL_RCC_OscConfig+0x688>
        {
          if ((HAL_GetTick() - tickstart) > RCC_LSE_TIMEOUT_VALUE)
 8003aec:	f7fd faec 	bl	80010c8 <HAL_GetTick>
 8003af0:	0002      	movs	r2, r0
 8003af2:	693b      	ldr	r3, [r7, #16]
 8003af4:	1ad3      	subs	r3, r2, r3
 8003af6:	4a06      	ldr	r2, [pc, #24]	@ (8003b10 <HAL_RCC_OscConfig+0x684>)
 8003af8:	4293      	cmp	r3, r2
 8003afa:	d90b      	bls.n	8003b14 <HAL_RCC_OscConfig+0x688>
          {
            return HAL_TIMEOUT;
 8003afc:	2303      	movs	r3, #3
 8003afe:	e0e2      	b.n	8003cc6 <HAL_RCC_OscConfig+0x83a>
 8003b00:	40021000 	.word	0x40021000
 8003b04:	80ffffff 	.word	0x80ffffff
 8003b08:	fffffeff 	.word	0xfffffeff
 8003b0c:	40007000 	.word	0x40007000
 8003b10:	00001388 	.word	0x00001388
        while (READ_BIT(RCC->BDCR, RCC_BDCR_LSESYSRDY) != 0U)
 8003b14:	4a6e      	ldr	r2, [pc, #440]	@ (8003cd0 <HAL_RCC_OscConfig+0x844>)
 8003b16:	2390      	movs	r3, #144	@ 0x90
 8003b18:	58d2      	ldr	r2, [r2, r3]
 8003b1a:	2380      	movs	r3, #128	@ 0x80
 8003b1c:	011b      	lsls	r3, r3, #4
 8003b1e:	4013      	ands	r3, r2
 8003b20:	d1e4      	bne.n	8003aec <HAL_RCC_OscConfig+0x660>
        }
      }
    }

    /* Restore clock configuration if changed */
    if (pwrclkchanged == SET)
 8003b22:	231f      	movs	r3, #31
 8003b24:	18fb      	adds	r3, r7, r3
 8003b26:	781b      	ldrb	r3, [r3, #0]
 8003b28:	2b01      	cmp	r3, #1
 8003b2a:	d105      	bne.n	8003b38 <HAL_RCC_OscConfig+0x6ac>
    {
      __HAL_RCC_PWR_CLK_DISABLE();
 8003b2c:	4b68      	ldr	r3, [pc, #416]	@ (8003cd0 <HAL_RCC_OscConfig+0x844>)
 8003b2e:	6d9a      	ldr	r2, [r3, #88]	@ 0x58
 8003b30:	4b67      	ldr	r3, [pc, #412]	@ (8003cd0 <HAL_RCC_OscConfig+0x844>)
 8003b32:	4968      	ldr	r1, [pc, #416]	@ (8003cd4 <HAL_RCC_OscConfig+0x848>)
 8003b34:	400a      	ands	r2, r1
 8003b36:	659a      	str	r2, [r3, #88]	@ 0x58
    }
  }
#if defined(RCC_CRRCR_HSI48ON)
  /*------------------------------ HSI48 Configuration -----------------------*/
  if (((RCC_OscInitStruct->OscillatorType) & RCC_OSCILLATORTYPE_HSI48) == RCC_OSCILLATORTYPE_HSI48)
 8003b38:	687b      	ldr	r3, [r7, #4]
 8003b3a:	681b      	ldr	r3, [r3, #0]
 8003b3c:	2220      	movs	r2, #32
 8003b3e:	4013      	ands	r3, r2
 8003b40:	d03c      	beq.n	8003bbc <HAL_RCC_OscConfig+0x730>
  {
    /* Check the parameters */
    assert_param(IS_RCC_HSI48(RCC_OscInitStruct->HSI48State));

    /* Check the HSI48 State */
    if (RCC_OscInitStruct->HSI48State != RCC_HSI48_OFF)
 8003b42:	687b      	ldr	r3, [r7, #4]
 8003b44:	6a9b      	ldr	r3, [r3, #40]	@ 0x28
 8003b46:	2b00      	cmp	r3, #0
 8003b48:	d01c      	beq.n	8003b84 <HAL_RCC_OscConfig+0x6f8>
    {
      /* Enable the Internal Low Speed oscillator (HSI48). */
      __HAL_RCC_HSI48_ENABLE();
 8003b4a:	4a61      	ldr	r2, [pc, #388]	@ (8003cd0 <HAL_RCC_OscConfig+0x844>)
 8003b4c:	2398      	movs	r3, #152	@ 0x98
 8003b4e:	58d3      	ldr	r3, [r2, r3]
 8003b50:	495f      	ldr	r1, [pc, #380]	@ (8003cd0 <HAL_RCC_OscConfig+0x844>)
 8003b52:	2201      	movs	r2, #1
 8003b54:	4313      	orrs	r3, r2
 8003b56:	2298      	movs	r2, #152	@ 0x98
 8003b58:	508b      	str	r3, [r1, r2]

      /* Get Start Tick*/
      tickstart = HAL_GetTick();
 8003b5a:	f7fd fab5 	bl	80010c8 <HAL_GetTick>
 8003b5e:	0003      	movs	r3, r0
 8003b60:	613b      	str	r3, [r7, #16]

      /* Wait till HSI48 is ready */
      while (READ_BIT(RCC->CRRCR, RCC_CRRCR_HSI48RDY) == 0U)
 8003b62:	e008      	b.n	8003b76 <HAL_RCC_OscConfig+0x6ea>
      {
        if ((HAL_GetTick() - tickstart) > HSI48_TIMEOUT_VALUE)
 8003b64:	f7fd fab0 	bl	80010c8 <HAL_GetTick>
 8003b68:	0002      	movs	r2, r0
 8003b6a:	693b      	ldr	r3, [r7, #16]
 8003b6c:	1ad3      	subs	r3, r2, r3
 8003b6e:	2b02      	cmp	r3, #2
 8003b70:	d901      	bls.n	8003b76 <HAL_RCC_OscConfig+0x6ea>
        {
          return HAL_TIMEOUT;
 8003b72:	2303      	movs	r3, #3
 8003b74:	e0a7      	b.n	8003cc6 <HAL_RCC_OscConfig+0x83a>
      while (READ_BIT(RCC->CRRCR, RCC_CRRCR_HSI48RDY) == 0U)
 8003b76:	4a56      	ldr	r2, [pc, #344]	@ (8003cd0 <HAL_RCC_OscConfig+0x844>)
 8003b78:	2398      	movs	r3, #152	@ 0x98
 8003b7a:	58d3      	ldr	r3, [r2, r3]
 8003b7c:	2202      	movs	r2, #2
 8003b7e:	4013      	ands	r3, r2
 8003b80:	d0f0      	beq.n	8003b64 <HAL_RCC_OscConfig+0x6d8>
 8003b82:	e01b      	b.n	8003bbc <HAL_RCC_OscConfig+0x730>
      }
    }
    else
    {
      /* Disable the Internal Low Speed oscillator (HSI48). */
      __HAL_RCC_HSI48_DISABLE();
 8003b84:	4a52      	ldr	r2, [pc, #328]	@ (8003cd0 <HAL_RCC_OscConfig+0x844>)
 8003b86:	2398      	movs	r3, #152	@ 0x98
 8003b88:	58d3      	ldr	r3, [r2, r3]
 8003b8a:	4951      	ldr	r1, [pc, #324]	@ (8003cd0 <HAL_RCC_OscConfig+0x844>)
 8003b8c:	2201      	movs	r2, #1
 8003b8e:	4393      	bics	r3, r2
 8003b90:	2298      	movs	r2, #152	@ 0x98
 8003b92:	508b      	str	r3, [r1, r2]

      /* Get Start Tick*/
      tickstart = HAL_GetTick();
 8003b94:	f7fd fa98 	bl	80010c8 <HAL_GetTick>
 8003b98:	0003      	movs	r3, r0
 8003b9a:	613b      	str	r3, [r7, #16]

      /* Wait till HSI48 is disabled */
      while (READ_BIT(RCC->CRRCR,  RCC_CRRCR_HSI48RDY) != 0U)
 8003b9c:	e008      	b.n	8003bb0 <HAL_RCC_OscConfig+0x724>
      {
        if ((HAL_GetTick() - tickstart) > HSI48_TIMEOUT_VALUE)
 8003b9e:	f7fd fa93 	bl	80010c8 <HAL_GetTick>
 8003ba2:	0002      	movs	r2, r0
 8003ba4:	693b      	ldr	r3, [r7, #16]
 8003ba6:	1ad3      	subs	r3, r2, r3
 8003ba8:	2b02      	cmp	r3, #2
 8003baa:	d901      	bls.n	8003bb0 <HAL_RCC_OscConfig+0x724>
        {
          return HAL_TIMEOUT;
 8003bac:	2303      	movs	r3, #3
 8003bae:	e08a      	b.n	8003cc6 <HAL_RCC_OscConfig+0x83a>
      while (READ_BIT(RCC->CRRCR,  RCC_CRRCR_HSI48RDY) != 0U)
 8003bb0:	4a47      	ldr	r2, [pc, #284]	@ (8003cd0 <HAL_RCC_OscConfig+0x844>)
 8003bb2:	2398      	movs	r3, #152	@ 0x98
 8003bb4:	58d3      	ldr	r3, [r2, r3]
 8003bb6:	2202      	movs	r2, #2
 8003bb8:	4013      	ands	r3, r2
 8003bba:	d1f0      	bne.n	8003b9e <HAL_RCC_OscConfig+0x712>
#endif /* RCC_CRRCR_HSI48ON */
  /*-------------------------------- PLL Configuration -----------------------*/
  /* Check the parameters */
  assert_param(IS_RCC_PLL(RCC_OscInitStruct->PLL.PLLState));

  if (RCC_OscInitStruct->PLL.PLLState != RCC_PLL_NONE)
 8003bbc:	687b      	ldr	r3, [r7, #4]
 8003bbe:	6adb      	ldr	r3, [r3, #44]	@ 0x2c
 8003bc0:	2b00      	cmp	r3, #0
 8003bc2:	d100      	bne.n	8003bc6 <HAL_RCC_OscConfig+0x73a>
 8003bc4:	e07e      	b.n	8003cc4 <HAL_RCC_OscConfig+0x838>
  {
    /* Check if the PLL is used as system clock or not */
    if (__HAL_RCC_GET_SYSCLK_SOURCE() != RCC_SYSCLKSOURCE_STATUS_PLLCLK)
 8003bc6:	4b42      	ldr	r3, [pc, #264]	@ (8003cd0 <HAL_RCC_OscConfig+0x844>)
 8003bc8:	689b      	ldr	r3, [r3, #8]
 8003bca:	2238      	movs	r2, #56	@ 0x38
 8003bcc:	4013      	ands	r3, r2
 8003bce:	2b18      	cmp	r3, #24
 8003bd0:	d100      	bne.n	8003bd4 <HAL_RCC_OscConfig+0x748>
 8003bd2:	e075      	b.n	8003cc0 <HAL_RCC_OscConfig+0x834>
    {
      if (RCC_OscInitStruct->PLL.PLLState == RCC_PLL_ON)
 8003bd4:	687b      	ldr	r3, [r7, #4]
 8003bd6:	6adb      	ldr	r3, [r3, #44]	@ 0x2c
 8003bd8:	2b02      	cmp	r3, #2
 8003bda:	d156      	bne.n	8003c8a <HAL_RCC_OscConfig+0x7fe>
        assert_param(IS_RCC_PLL_DIVP_VALUE(RCC_OscInitStruct->PLL.PLLP));
        assert_param(IS_RCC_PLL_DIVQ_VALUE(RCC_OscInitStruct->PLL.PLLQ));
        assert_param(IS_RCC_PLL_DIVR_VALUE(RCC_OscInitStruct->PLL.PLLR));

        /* Disable the main PLL. */
        __HAL_RCC_PLL_DISABLE();
 8003bdc:	4b3c      	ldr	r3, [pc, #240]	@ (8003cd0 <HAL_RCC_OscConfig+0x844>)
 8003bde:	681a      	ldr	r2, [r3, #0]
 8003be0:	4b3b      	ldr	r3, [pc, #236]	@ (8003cd0 <HAL_RCC_OscConfig+0x844>)
 8003be2:	493d      	ldr	r1, [pc, #244]	@ (8003cd8 <HAL_RCC_OscConfig+0x84c>)
 8003be4:	400a      	ands	r2, r1
 8003be6:	601a      	str	r2, [r3, #0]

        /* Get Start Tick*/
        tickstart = HAL_GetTick();
 8003be8:	f7fd fa6e 	bl	80010c8 <HAL_GetTick>
 8003bec:	0003      	movs	r3, r0
 8003bee:	613b      	str	r3, [r7, #16]

        /* Wait till PLL is ready */
        while (READ_BIT(RCC->CR, RCC_CR_PLLRDY) != 0U)
 8003bf0:	e008      	b.n	8003c04 <HAL_RCC_OscConfig+0x778>
        {
          if ((HAL_GetTick() - tickstart) > PLL_TIMEOUT_VALUE)
 8003bf2:	f7fd fa69 	bl	80010c8 <HAL_GetTick>
 8003bf6:	0002      	movs	r2, r0
 8003bf8:	693b      	ldr	r3, [r7, #16]
 8003bfa:	1ad3      	subs	r3, r2, r3
 8003bfc:	2b02      	cmp	r3, #2
 8003bfe:	d901      	bls.n	8003c04 <HAL_RCC_OscConfig+0x778>
          {
            return HAL_TIMEOUT;
 8003c00:	2303      	movs	r3, #3
 8003c02:	e060      	b.n	8003cc6 <HAL_RCC_OscConfig+0x83a>
        while (READ_BIT(RCC->CR, RCC_CR_PLLRDY) != 0U)
 8003c04:	4b32      	ldr	r3, [pc, #200]	@ (8003cd0 <HAL_RCC_OscConfig+0x844>)
 8003c06:	681a      	ldr	r2, [r3, #0]
 8003c08:	2380      	movs	r3, #128	@ 0x80
 8003c0a:	049b      	lsls	r3, r3, #18
 8003c0c:	4013      	ands	r3, r2
 8003c0e:	d1f0      	bne.n	8003bf2 <HAL_RCC_OscConfig+0x766>
          }
        }

        /* Configure the main PLL clock source, multiplication and division factors. */
        __HAL_RCC_PLL_CONFIG(RCC_OscInitStruct->PLL.PLLSource,
 8003c10:	4b2f      	ldr	r3, [pc, #188]	@ (8003cd0 <HAL_RCC_OscConfig+0x844>)
 8003c12:	68db      	ldr	r3, [r3, #12]
 8003c14:	4a31      	ldr	r2, [pc, #196]	@ (8003cdc <HAL_RCC_OscConfig+0x850>)
 8003c16:	4013      	ands	r3, r2
 8003c18:	0019      	movs	r1, r3
 8003c1a:	687b      	ldr	r3, [r7, #4]
 8003c1c:	6b1a      	ldr	r2, [r3, #48]	@ 0x30
 8003c1e:	687b      	ldr	r3, [r7, #4]
 8003c20:	6b5b      	ldr	r3, [r3, #52]	@ 0x34
 8003c22:	431a      	orrs	r2, r3
 8003c24:	687b      	ldr	r3, [r7, #4]
 8003c26:	6b9b      	ldr	r3, [r3, #56]	@ 0x38
 8003c28:	021b      	lsls	r3, r3, #8
 8003c2a:	431a      	orrs	r2, r3
 8003c2c:	687b      	ldr	r3, [r7, #4]
 8003c2e:	6c1b      	ldr	r3, [r3, #64]	@ 0x40
 8003c30:	431a      	orrs	r2, r3
 8003c32:	687b      	ldr	r3, [r7, #4]
 8003c34:	6c5b      	ldr	r3, [r3, #68]	@ 0x44
 8003c36:	431a      	orrs	r2, r3
 8003c38:	687b      	ldr	r3, [r7, #4]
 8003c3a:	6bdb      	ldr	r3, [r3, #60]	@ 0x3c
 8003c3c:	431a      	orrs	r2, r3
 8003c3e:	4b24      	ldr	r3, [pc, #144]	@ (8003cd0 <HAL_RCC_OscConfig+0x844>)
 8003c40:	430a      	orrs	r2, r1
 8003c42:	60da      	str	r2, [r3, #12]
                             RCC_OscInitStruct->PLL.PLLP,
                             RCC_OscInitStruct->PLL.PLLQ,
                             RCC_OscInitStruct->PLL.PLLR);

        /* Enable PLL System Clock output */
        __HAL_RCC_PLLCLKOUT_ENABLE(RCC_PLL_DIVR);
 8003c44:	4b22      	ldr	r3, [pc, #136]	@ (8003cd0 <HAL_RCC_OscConfig+0x844>)
 8003c46:	68da      	ldr	r2, [r3, #12]
 8003c48:	4b21      	ldr	r3, [pc, #132]	@ (8003cd0 <HAL_RCC_OscConfig+0x844>)
 8003c4a:	2180      	movs	r1, #128	@ 0x80
 8003c4c:	0549      	lsls	r1, r1, #21
 8003c4e:	430a      	orrs	r2, r1
 8003c50:	60da      	str	r2, [r3, #12]

        /* Enable the main PLL. */
        __HAL_RCC_PLL_ENABLE();
 8003c52:	4b1f      	ldr	r3, [pc, #124]	@ (8003cd0 <HAL_RCC_OscConfig+0x844>)
 8003c54:	681a      	ldr	r2, [r3, #0]
 8003c56:	4b1e      	ldr	r3, [pc, #120]	@ (8003cd0 <HAL_RCC_OscConfig+0x844>)
 8003c58:	2180      	movs	r1, #128	@ 0x80
 8003c5a:	0449      	lsls	r1, r1, #17
 8003c5c:	430a      	orrs	r2, r1
 8003c5e:	601a      	str	r2, [r3, #0]

        /* Get Start Tick*/
        tickstart = HAL_GetTick();
 8003c60:	f7fd fa32 	bl	80010c8 <HAL_GetTick>
 8003c64:	0003      	movs	r3, r0
 8003c66:	613b      	str	r3, [r7, #16]

        /* Wait till PLL is ready */
        while (READ_BIT(RCC->CR, RCC_CR_PLLRDY) == 0U)
 8003c68:	e008      	b.n	8003c7c <HAL_RCC_OscConfig+0x7f0>
        {
          if ((HAL_GetTick() - tickstart) > PLL_TIMEOUT_VALUE)
 8003c6a:	f7fd fa2d 	bl	80010c8 <HAL_GetTick>
 8003c6e:	0002      	movs	r2, r0
 8003c70:	693b      	ldr	r3, [r7, #16]
 8003c72:	1ad3      	subs	r3, r2, r3
 8003c74:	2b02      	cmp	r3, #2
 8003c76:	d901      	bls.n	8003c7c <HAL_RCC_OscConfig+0x7f0>
          {
            return HAL_TIMEOUT;
 8003c78:	2303      	movs	r3, #3
 8003c7a:	e024      	b.n	8003cc6 <HAL_RCC_OscConfig+0x83a>
        while (READ_BIT(RCC->CR, RCC_CR_PLLRDY) == 0U)
 8003c7c:	4b14      	ldr	r3, [pc, #80]	@ (8003cd0 <HAL_RCC_OscConfig+0x844>)
 8003c7e:	681a      	ldr	r2, [r3, #0]
 8003c80:	2380      	movs	r3, #128	@ 0x80
 8003c82:	049b      	lsls	r3, r3, #18
 8003c84:	4013      	ands	r3, r2
 8003c86:	d0f0      	beq.n	8003c6a <HAL_RCC_OscConfig+0x7de>
 8003c88:	e01c      	b.n	8003cc4 <HAL_RCC_OscConfig+0x838>
        }
      }
      else
      {
        /* Disable the main PLL. */
        __HAL_RCC_PLL_DISABLE();
 8003c8a:	4b11      	ldr	r3, [pc, #68]	@ (8003cd0 <HAL_RCC_OscConfig+0x844>)
 8003c8c:	681a      	ldr	r2, [r3, #0]
 8003c8e:	4b10      	ldr	r3, [pc, #64]	@ (8003cd0 <HAL_RCC_OscConfig+0x844>)
 8003c90:	4911      	ldr	r1, [pc, #68]	@ (8003cd8 <HAL_RCC_OscConfig+0x84c>)
 8003c92:	400a      	ands	r2, r1
 8003c94:	601a      	str	r2, [r3, #0]

        /* Get Start Tick*/
        tickstart = HAL_GetTick();
 8003c96:	f7fd fa17 	bl	80010c8 <HAL_GetTick>
 8003c9a:	0003      	movs	r3, r0
 8003c9c:	613b      	str	r3, [r7, #16]

        /* Wait till PLL is disabled */
        while (READ_BIT(RCC->CR, RCC_CR_PLLRDY) != 0U)
 8003c9e:	e008      	b.n	8003cb2 <HAL_RCC_OscConfig+0x826>
        {
          if ((HAL_GetTick() - tickstart) > PLL_TIMEOUT_VALUE)
 8003ca0:	f7fd fa12 	bl	80010c8 <HAL_GetTick>
 8003ca4:	0002      	movs	r2, r0
 8003ca6:	693b      	ldr	r3, [r7, #16]
 8003ca8:	1ad3      	subs	r3, r2, r3
 8003caa:	2b02      	cmp	r3, #2
 8003cac:	d901      	bls.n	8003cb2 <HAL_RCC_OscConfig+0x826>
          {
            return HAL_TIMEOUT;
 8003cae:	2303      	movs	r3, #3
 8003cb0:	e009      	b.n	8003cc6 <HAL_RCC_OscConfig+0x83a>
        while (READ_BIT(RCC->CR, RCC_CR_PLLRDY) != 0U)
 8003cb2:	4b07      	ldr	r3, [pc, #28]	@ (8003cd0 <HAL_RCC_OscConfig+0x844>)
 8003cb4:	681a      	ldr	r2, [r3, #0]
 8003cb6:	2380      	movs	r3, #128	@ 0x80
 8003cb8:	049b      	lsls	r3, r3, #18
 8003cba:	4013      	ands	r3, r2
 8003cbc:	d1f0      	bne.n	8003ca0 <HAL_RCC_OscConfig+0x814>
 8003cbe:	e001      	b.n	8003cc4 <HAL_RCC_OscConfig+0x838>
        }
      }
    }
    else
    {
      return HAL_ERROR;
 8003cc0:	2301      	movs	r3, #1
 8003cc2:	e000      	b.n	8003cc6 <HAL_RCC_OscConfig+0x83a>
    }
  }
  return HAL_OK;
 8003cc4:	2300      	movs	r3, #0
}
 8003cc6:	0018      	movs	r0, r3
 8003cc8:	46bd      	mov	sp, r7
 8003cca:	b008      	add	sp, #32
 8003ccc:	bdb0      	pop	{r4, r5, r7, pc}
 8003cce:	46c0      	nop			@ (mov r8, r8)
 8003cd0:	40021000 	.word	0x40021000
 8003cd4:	efffffff 	.word	0xefffffff
 8003cd8:	feffffff 	.word	0xfeffffff
 8003cdc:	11c1808c 	.word	0x11c1808c

08003ce0 <HAL_RCC_ClockConfig>:

HAL_StatusTypeDef HAL_RCC_ClockConfig(const RCC_ClkInitTypeDef  *const RCC_ClkInitStruct, uint32_t FLatency)
{
 8003ce0:	b5b0      	push	{r4, r5, r7, lr}
 8003ce2:	b084      	sub	sp, #16
 8003ce4:	af00      	add	r7, sp, #0
 8003ce6:	6078      	str	r0, [r7, #4]
 8003ce8:	6039      	str	r1, [r7, #0]
  /* To correctly read data from FLASH memory, the number of wait states (LATENCY)
    must be correctly programmed according to the frequency of the CPU clock
    (HCLK) and the supply voltage of the device. */

  /* Increasing the number of wait states because of higher CPU frequency */
  if (FLatency > __HAL_FLASH_GET_LATENCY())
 8003cea:	4b6c      	ldr	r3, [pc, #432]	@ (8003e9c <HAL_RCC_ClockConfig+0x1bc>)
 8003cec:	681b      	ldr	r3, [r3, #0]
 8003cee:	2207      	movs	r2, #7
 8003cf0:	4013      	ands	r3, r2
 8003cf2:	683a      	ldr	r2, [r7, #0]
 8003cf4:	429a      	cmp	r2, r3
 8003cf6:	d911      	bls.n	8003d1c <HAL_RCC_ClockConfig+0x3c>
  {
    /* Program the new number of wait states to the LATENCY bits in the FLASH_ACR register */
    __HAL_FLASH_SET_LATENCY(FLatency);
 8003cf8:	4b68      	ldr	r3, [pc, #416]	@ (8003e9c <HAL_RCC_ClockConfig+0x1bc>)
 8003cfa:	681b      	ldr	r3, [r3, #0]
 8003cfc:	2207      	movs	r2, #7
 8003cfe:	4393      	bics	r3, r2
 8003d00:	0019      	movs	r1, r3
 8003d02:	4b66      	ldr	r3, [pc, #408]	@ (8003e9c <HAL_RCC_ClockConfig+0x1bc>)
 8003d04:	683a      	ldr	r2, [r7, #0]
 8003d06:	430a      	orrs	r2, r1
 8003d08:	601a      	str	r2, [r3, #0]

    /* Check that the new number of wait states is taken into account to access the Flash
    memory by reading the FLASH_ACR register */
    if (__HAL_FLASH_GET_LATENCY() != FLatency)
 8003d0a:	4b64      	ldr	r3, [pc, #400]	@ (8003e9c <HAL_RCC_ClockConfig+0x1bc>)
 8003d0c:	681b      	ldr	r3, [r3, #0]
 8003d0e:	2207      	movs	r2, #7
 8003d10:	4013      	ands	r3, r2
 8003d12:	683a      	ldr	r2, [r7, #0]
 8003d14:	429a      	cmp	r2, r3
 8003d16:	d001      	beq.n	8003d1c <HAL_RCC_ClockConfig+0x3c>
    {
      return HAL_ERROR;
 8003d18:	2301      	movs	r3, #1
 8003d1a:	e0bb      	b.n	8003e94 <HAL_RCC_ClockConfig+0x1b4>
    }
  }

  /*------------------------- SYSCLK Configuration ---------------------------*/
  if (((RCC_ClkInitStruct->ClockType) & RCC_CLOCKTYPE_SYSCLK) == RCC_CLOCKTYPE_SYSCLK)
 8003d1c:	687b      	ldr	r3, [r7, #4]
 8003d1e:	681b      	ldr	r3, [r3, #0]
 8003d20:	2201      	movs	r2, #1
 8003d22:	4013      	ands	r3, r2
 8003d24:	d100      	bne.n	8003d28 <HAL_RCC_ClockConfig+0x48>
 8003d26:	e064      	b.n	8003df2 <HAL_RCC_ClockConfig+0x112>
  {
    assert_param(IS_RCC_SYSCLKSOURCE(RCC_ClkInitStruct->SYSCLKSource));

    /* PLL is selected as System Clock Source */
    if (RCC_ClkInitStruct->SYSCLKSource == RCC_SYSCLKSOURCE_PLLCLK)
 8003d28:	687b      	ldr	r3, [r7, #4]
 8003d2a:	685b      	ldr	r3, [r3, #4]
 8003d2c:	2b03      	cmp	r3, #3
 8003d2e:	d107      	bne.n	8003d40 <HAL_RCC_ClockConfig+0x60>
    {
      /* Check the PLL ready flag */
      if (READ_BIT(RCC->CR, RCC_CR_PLLRDY) == 0U)
 8003d30:	4b5b      	ldr	r3, [pc, #364]	@ (8003ea0 <HAL_RCC_ClockConfig+0x1c0>)
 8003d32:	681a      	ldr	r2, [r3, #0]
 8003d34:	2380      	movs	r3, #128	@ 0x80
 8003d36:	049b      	lsls	r3, r3, #18
 8003d38:	4013      	ands	r3, r2
 8003d3a:	d138      	bne.n	8003dae <HAL_RCC_ClockConfig+0xce>
      {
        return HAL_ERROR;
 8003d3c:	2301      	movs	r3, #1
 8003d3e:	e0a9      	b.n	8003e94 <HAL_RCC_ClockConfig+0x1b4>
      }
    }
    else
    {
      if (RCC_ClkInitStruct->SYSCLKSource == RCC_SYSCLKSOURCE_HSE)
 8003d40:	687b      	ldr	r3, [r7, #4]
 8003d42:	685b      	ldr	r3, [r3, #4]
 8003d44:	2b02      	cmp	r3, #2
 8003d46:	d107      	bne.n	8003d58 <HAL_RCC_ClockConfig+0x78>
      {
        /* Check the HSE ready flag */
        if (READ_BIT(RCC->CR, RCC_CR_HSERDY) == 0U)
 8003d48:	4b55      	ldr	r3, [pc, #340]	@ (8003ea0 <HAL_RCC_ClockConfig+0x1c0>)
 8003d4a:	681a      	ldr	r2, [r3, #0]
 8003d4c:	2380      	movs	r3, #128	@ 0x80
 8003d4e:	029b      	lsls	r3, r3, #10
 8003d50:	4013      	ands	r3, r2
 8003d52:	d12c      	bne.n	8003dae <HAL_RCC_ClockConfig+0xce>
        {
          return HAL_ERROR;
 8003d54:	2301      	movs	r3, #1
 8003d56:	e09d      	b.n	8003e94 <HAL_RCC_ClockConfig+0x1b4>
        }
      }
      /* MSI is selected as System Clock Source */
      else if (RCC_ClkInitStruct->SYSCLKSource == RCC_SYSCLKSOURCE_MSI)
 8003d58:	687b      	ldr	r3, [r7, #4]
 8003d5a:	685b      	ldr	r3, [r3, #4]
 8003d5c:	2b00      	cmp	r3, #0
 8003d5e:	d106      	bne.n	8003d6e <HAL_RCC_ClockConfig+0x8e>
      {
        /* Check the MSI ready flag */
        if (READ_BIT(RCC->CR, RCC_CR_MSIRDY) == 0U)
 8003d60:	4b4f      	ldr	r3, [pc, #316]	@ (8003ea0 <HAL_RCC_ClockConfig+0x1c0>)
 8003d62:	681b      	ldr	r3, [r3, #0]
 8003d64:	2202      	movs	r2, #2
 8003d66:	4013      	ands	r3, r2
 8003d68:	d121      	bne.n	8003dae <HAL_RCC_ClockConfig+0xce>
        {
          return HAL_ERROR;
 8003d6a:	2301      	movs	r3, #1
 8003d6c:	e092      	b.n	8003e94 <HAL_RCC_ClockConfig+0x1b4>
        }
      }
      /* HSI is selected as System Clock Source */
      else if (RCC_ClkInitStruct->SYSCLKSource == RCC_SYSCLKSOURCE_HSI)
 8003d6e:	687b      	ldr	r3, [r7, #4]
 8003d70:	685b      	ldr	r3, [r3, #4]
 8003d72:	2b01      	cmp	r3, #1
 8003d74:	d107      	bne.n	8003d86 <HAL_RCC_ClockConfig+0xa6>
      {
        /* Check the HSI ready flag */
        if (READ_BIT(RCC->CR, RCC_CR_HSIRDY) == 0U)
 8003d76:	4b4a      	ldr	r3, [pc, #296]	@ (8003ea0 <HAL_RCC_ClockConfig+0x1c0>)
 8003d78:	681a      	ldr	r2, [r3, #0]
 8003d7a:	2380      	movs	r3, #128	@ 0x80
 8003d7c:	00db      	lsls	r3, r3, #3
 8003d7e:	4013      	ands	r3, r2
 8003d80:	d115      	bne.n	8003dae <HAL_RCC_ClockConfig+0xce>
        {
          return HAL_ERROR;
 8003d82:	2301      	movs	r3, #1
 8003d84:	e086      	b.n	8003e94 <HAL_RCC_ClockConfig+0x1b4>
        }
      }

      /* LSI is selected as System Clock Source */
      else if (RCC_ClkInitStruct->SYSCLKSource == RCC_SYSCLKSOURCE_LSI)
 8003d86:	687b      	ldr	r3, [r7, #4]
 8003d88:	685b      	ldr	r3, [r3, #4]
 8003d8a:	2b04      	cmp	r3, #4
 8003d8c:	d107      	bne.n	8003d9e <HAL_RCC_ClockConfig+0xbe>
      {
        /* Check the LSI ready flag */
        if (READ_BIT(RCC->CSR, RCC_CSR_LSIRDY) == 0U)
 8003d8e:	4a44      	ldr	r2, [pc, #272]	@ (8003ea0 <HAL_RCC_ClockConfig+0x1c0>)
 8003d90:	2394      	movs	r3, #148	@ 0x94
 8003d92:	58d3      	ldr	r3, [r2, r3]
 8003d94:	2202      	movs	r2, #2
 8003d96:	4013      	ands	r3, r2
 8003d98:	d109      	bne.n	8003dae <HAL_RCC_ClockConfig+0xce>
        {
          return HAL_ERROR;
 8003d9a:	2301      	movs	r3, #1
 8003d9c:	e07a      	b.n	8003e94 <HAL_RCC_ClockConfig+0x1b4>

      /* LSE is selected as System Clock Source */
      else
      {
        /* Check the LSE ready flag */
        if (READ_BIT(RCC->BDCR, RCC_BDCR_LSERDY) == 0U)
 8003d9e:	4a40      	ldr	r2, [pc, #256]	@ (8003ea0 <HAL_RCC_ClockConfig+0x1c0>)
 8003da0:	2390      	movs	r3, #144	@ 0x90
 8003da2:	58d3      	ldr	r3, [r2, r3]
 8003da4:	2202      	movs	r2, #2
 8003da6:	4013      	ands	r3, r2
 8003da8:	d101      	bne.n	8003dae <HAL_RCC_ClockConfig+0xce>
        {
          return HAL_ERROR;
 8003daa:	2301      	movs	r3, #1
 8003dac:	e072      	b.n	8003e94 <HAL_RCC_ClockConfig+0x1b4>
        }
      }
    }

    MODIFY_REG(RCC->CFGR, RCC_CFGR_SW, RCC_ClkInitStruct->SYSCLKSource);
 8003dae:	4b3c      	ldr	r3, [pc, #240]	@ (8003ea0 <HAL_RCC_ClockConfig+0x1c0>)
 8003db0:	689b      	ldr	r3, [r3, #8]
 8003db2:	2207      	movs	r2, #7
 8003db4:	4393      	bics	r3, r2
 8003db6:	0019      	movs	r1, r3
 8003db8:	687b      	ldr	r3, [r7, #4]
 8003dba:	685a      	ldr	r2, [r3, #4]
 8003dbc:	4b38      	ldr	r3, [pc, #224]	@ (8003ea0 <HAL_RCC_ClockConfig+0x1c0>)
 8003dbe:	430a      	orrs	r2, r1
 8003dc0:	609a      	str	r2, [r3, #8]

    /* Get Start Tick */
    tickstart = HAL_GetTick();
 8003dc2:	f7fd f981 	bl	80010c8 <HAL_GetTick>
 8003dc6:	0003      	movs	r3, r0
 8003dc8:	60fb      	str	r3, [r7, #12]

    while (__HAL_RCC_GET_SYSCLK_SOURCE() != (RCC_ClkInitStruct->SYSCLKSource << RCC_CFGR_SWS_Pos))
 8003dca:	e009      	b.n	8003de0 <HAL_RCC_ClockConfig+0x100>
    {
      if ((HAL_GetTick() - tickstart) > CLOCKSWITCH_TIMEOUT_VALUE)
 8003dcc:	f7fd f97c 	bl	80010c8 <HAL_GetTick>
 8003dd0:	0002      	movs	r2, r0
 8003dd2:	68fb      	ldr	r3, [r7, #12]
 8003dd4:	1ad3      	subs	r3, r2, r3
 8003dd6:	4a33      	ldr	r2, [pc, #204]	@ (8003ea4 <HAL_RCC_ClockConfig+0x1c4>)
 8003dd8:	4293      	cmp	r3, r2
 8003dda:	d901      	bls.n	8003de0 <HAL_RCC_ClockConfig+0x100>
      {
        return HAL_TIMEOUT;
 8003ddc:	2303      	movs	r3, #3
 8003dde:	e059      	b.n	8003e94 <HAL_RCC_ClockConfig+0x1b4>
    while (__HAL_RCC_GET_SYSCLK_SOURCE() != (RCC_ClkInitStruct->SYSCLKSource << RCC_CFGR_SWS_Pos))
 8003de0:	4b2f      	ldr	r3, [pc, #188]	@ (8003ea0 <HAL_RCC_ClockConfig+0x1c0>)
 8003de2:	689b      	ldr	r3, [r3, #8]
 8003de4:	2238      	movs	r2, #56	@ 0x38
 8003de6:	401a      	ands	r2, r3
 8003de8:	687b      	ldr	r3, [r7, #4]
 8003dea:	685b      	ldr	r3, [r3, #4]
 8003dec:	00db      	lsls	r3, r3, #3
 8003dee:	429a      	cmp	r2, r3
 8003df0:	d1ec      	bne.n	8003dcc <HAL_RCC_ClockConfig+0xec>
      }
    }
  }

  /*-------------------------- HCLK Configuration --------------------------*/
  if (((RCC_ClkInitStruct->ClockType) & RCC_CLOCKTYPE_HCLK) == RCC_CLOCKTYPE_HCLK)
 8003df2:	687b      	ldr	r3, [r7, #4]
 8003df4:	681b      	ldr	r3, [r3, #0]
 8003df6:	2202      	movs	r2, #2
 8003df8:	4013      	ands	r3, r2
 8003dfa:	d009      	beq.n	8003e10 <HAL_RCC_ClockConfig+0x130>
  {
    /* Set the new HCLK clock divider */
    assert_param(IS_RCC_HCLK(RCC_ClkInitStruct->AHBCLKDivider));
    MODIFY_REG(RCC->CFGR, RCC_CFGR_HPRE, RCC_ClkInitStruct->AHBCLKDivider);
 8003dfc:	4b28      	ldr	r3, [pc, #160]	@ (8003ea0 <HAL_RCC_ClockConfig+0x1c0>)
 8003dfe:	689b      	ldr	r3, [r3, #8]
 8003e00:	4a29      	ldr	r2, [pc, #164]	@ (8003ea8 <HAL_RCC_ClockConfig+0x1c8>)
 8003e02:	4013      	ands	r3, r2
 8003e04:	0019      	movs	r1, r3
 8003e06:	687b      	ldr	r3, [r7, #4]
 8003e08:	689a      	ldr	r2, [r3, #8]
 8003e0a:	4b25      	ldr	r3, [pc, #148]	@ (8003ea0 <HAL_RCC_ClockConfig+0x1c0>)
 8003e0c:	430a      	orrs	r2, r1
 8003e0e:	609a      	str	r2, [r3, #8]
  }

  /* Decreasing the number of wait states because of lower CPU frequency */
  if (FLatency < __HAL_FLASH_GET_LATENCY())
 8003e10:	4b22      	ldr	r3, [pc, #136]	@ (8003e9c <HAL_RCC_ClockConfig+0x1bc>)
 8003e12:	681b      	ldr	r3, [r3, #0]
 8003e14:	2207      	movs	r2, #7
 8003e16:	4013      	ands	r3, r2
 8003e18:	683a      	ldr	r2, [r7, #0]
 8003e1a:	429a      	cmp	r2, r3
 8003e1c:	d211      	bcs.n	8003e42 <HAL_RCC_ClockConfig+0x162>
  {
    /* Program the new number of wait states to the LATENCY bits in the FLASH_ACR register */
    __HAL_FLASH_SET_LATENCY(FLatency);
 8003e1e:	4b1f      	ldr	r3, [pc, #124]	@ (8003e9c <HAL_RCC_ClockConfig+0x1bc>)
 8003e20:	681b      	ldr	r3, [r3, #0]
 8003e22:	2207      	movs	r2, #7
 8003e24:	4393      	bics	r3, r2
 8003e26:	0019      	movs	r1, r3
 8003e28:	4b1c      	ldr	r3, [pc, #112]	@ (8003e9c <HAL_RCC_ClockConfig+0x1bc>)
 8003e2a:	683a      	ldr	r2, [r7, #0]
 8003e2c:	430a      	orrs	r2, r1
 8003e2e:	601a      	str	r2, [r3, #0]

    /* Check that the new number of wait states is taken into account to access the Flash
    memory by reading the FLASH_ACR register */
    if (__HAL_FLASH_GET_LATENCY() != FLatency)
 8003e30:	4b1a      	ldr	r3, [pc, #104]	@ (8003e9c <HAL_RCC_ClockConfig+0x1bc>)
 8003e32:	681b      	ldr	r3, [r3, #0]
 8003e34:	2207      	movs	r2, #7
 8003e36:	4013      	ands	r3, r2
 8003e38:	683a      	ldr	r2, [r7, #0]
 8003e3a:	429a      	cmp	r2, r3
 8003e3c:	d001      	beq.n	8003e42 <HAL_RCC_ClockConfig+0x162>
    {
      return HAL_ERROR;
 8003e3e:	2301      	movs	r3, #1
 8003e40:	e028      	b.n	8003e94 <HAL_RCC_ClockConfig+0x1b4>
    }
  }

  /*-------------------------- PCLK Configuration ---------------------------*/
  if (((RCC_ClkInitStruct->ClockType) & RCC_CLOCKTYPE_PCLK1) == RCC_CLOCKTYPE_PCLK1)
 8003e42:	687b      	ldr	r3, [r7, #4]
 8003e44:	681b      	ldr	r3, [r3, #0]
 8003e46:	2204      	movs	r2, #4
 8003e48:	4013      	ands	r3, r2
 8003e4a:	d009      	beq.n	8003e60 <HAL_RCC_ClockConfig+0x180>
  {
    assert_param(IS_RCC_PCLK(RCC_ClkInitStruct->APB1CLKDivider));
    MODIFY_REG(RCC->CFGR, RCC_CFGR_PPRE, RCC_ClkInitStruct->APB1CLKDivider);
 8003e4c:	4b14      	ldr	r3, [pc, #80]	@ (8003ea0 <HAL_RCC_ClockConfig+0x1c0>)
 8003e4e:	689b      	ldr	r3, [r3, #8]
 8003e50:	4a16      	ldr	r2, [pc, #88]	@ (8003eac <HAL_RCC_ClockConfig+0x1cc>)
 8003e52:	4013      	ands	r3, r2
 8003e54:	0019      	movs	r1, r3
 8003e56:	687b      	ldr	r3, [r7, #4]
 8003e58:	68da      	ldr	r2, [r3, #12]
 8003e5a:	4b11      	ldr	r3, [pc, #68]	@ (8003ea0 <HAL_RCC_ClockConfig+0x1c0>)
 8003e5c:	430a      	orrs	r2, r1
 8003e5e:	609a      	str	r2, [r3, #8]
  }

  /* Update the SystemCoreClock global variable */
  SystemCoreClock = HAL_RCC_GetSysClockFreq() >> (AHBPrescTable[READ_BIT(RCC->CFGR, RCC_CFGR_HPRE) \
 8003e60:	f000 f82a 	bl	8003eb8 <HAL_RCC_GetSysClockFreq>
 8003e64:	0001      	movs	r1, r0
 8003e66:	4b0e      	ldr	r3, [pc, #56]	@ (8003ea0 <HAL_RCC_ClockConfig+0x1c0>)
 8003e68:	689b      	ldr	r3, [r3, #8]
                                                                >> RCC_CFGR_HPRE_Pos] & 0x1FU);
 8003e6a:	0a1b      	lsrs	r3, r3, #8
 8003e6c:	220f      	movs	r2, #15
 8003e6e:	4013      	ands	r3, r2
  SystemCoreClock = HAL_RCC_GetSysClockFreq() >> (AHBPrescTable[READ_BIT(RCC->CFGR, RCC_CFGR_HPRE) \
 8003e70:	4a0f      	ldr	r2, [pc, #60]	@ (8003eb0 <HAL_RCC_ClockConfig+0x1d0>)
 8003e72:	5cd3      	ldrb	r3, [r2, r3]
                                                                >> RCC_CFGR_HPRE_Pos] & 0x1FU);
 8003e74:	001a      	movs	r2, r3
 8003e76:	231f      	movs	r3, #31
 8003e78:	4013      	ands	r3, r2
  SystemCoreClock = HAL_RCC_GetSysClockFreq() >> (AHBPrescTable[READ_BIT(RCC->CFGR, RCC_CFGR_HPRE) \
 8003e7a:	000a      	movs	r2, r1
 8003e7c:	40da      	lsrs	r2, r3
 8003e7e:	4b0d      	ldr	r3, [pc, #52]	@ (8003eb4 <HAL_RCC_ClockConfig+0x1d4>)
 8003e80:	601a      	str	r2, [r3, #0]

  /* Configure the source of time base considering new system clocks settings*/
  halstatus = HAL_InitTick(TICK_INT_PRIORITY);
 8003e82:	250b      	movs	r5, #11
 8003e84:	197c      	adds	r4, r7, r5
 8003e86:	2003      	movs	r0, #3
 8003e88:	f7fd f8c2 	bl	8001010 <HAL_InitTick>
 8003e8c:	0003      	movs	r3, r0
 8003e8e:	7023      	strb	r3, [r4, #0]

  return halstatus;
 8003e90:	197b      	adds	r3, r7, r5
 8003e92:	781b      	ldrb	r3, [r3, #0]
}
 8003e94:	0018      	movs	r0, r3
 8003e96:	46bd      	mov	sp, r7
 8003e98:	b004      	add	sp, #16
 8003e9a:	bdb0      	pop	{r4, r5, r7, pc}
 8003e9c:	40022000 	.word	0x40022000
 8003ea0:	40021000 	.word	0x40021000
 8003ea4:	00001388 	.word	0x00001388
 8003ea8:	fffff0ff 	.word	0xfffff0ff
 8003eac:	ffff8fff 	.word	0xffff8fff
 8003eb0:	08006db4 	.word	0x08006db4
 8003eb4:	20000034 	.word	0x20000034

08003eb8 <HAL_RCC_GetSysClockFreq>:
  *
  *
  * @retval SYSCLK frequency
  */
uint32_t HAL_RCC_GetSysClockFreq(void)
{
 8003eb8:	b580      	push	{r7, lr}
 8003eba:	b08a      	sub	sp, #40	@ 0x28
 8003ebc:	af00      	add	r7, sp, #0
  uint32_t msirange = 0U;
 8003ebe:	2300      	movs	r3, #0
 8003ec0:	627b      	str	r3, [r7, #36]	@ 0x24
  uint32_t sysclockfreq = 0U;
 8003ec2:	2300      	movs	r3, #0
 8003ec4:	623b      	str	r3, [r7, #32]
  uint32_t pllm;
  uint32_t sysclk_source;
  uint32_t pll_oscsource;
  uint32_t pllsourcefreq;

  sysclk_source = __HAL_RCC_GET_SYSCLK_SOURCE();
 8003ec6:	4b46      	ldr	r3, [pc, #280]	@ (8003fe0 <HAL_RCC_GetSysClockFreq+0x128>)
 8003ec8:	689b      	ldr	r3, [r3, #8]
 8003eca:	2238      	movs	r2, #56	@ 0x38
 8003ecc:	4013      	ands	r3, r2
 8003ece:	61bb      	str	r3, [r7, #24]
  pll_oscsource = __HAL_RCC_GET_PLL_OSCSOURCE();
 8003ed0:	4b43      	ldr	r3, [pc, #268]	@ (8003fe0 <HAL_RCC_GetSysClockFreq+0x128>)
 8003ed2:	68db      	ldr	r3, [r3, #12]
 8003ed4:	2203      	movs	r2, #3
 8003ed6:	4013      	ands	r3, r2
 8003ed8:	617b      	str	r3, [r7, #20]

  if ((sysclk_source == RCC_SYSCLKSOURCE_STATUS_MSI) ||
 8003eda:	69bb      	ldr	r3, [r7, #24]
 8003edc:	2b00      	cmp	r3, #0
 8003ede:	d005      	beq.n	8003eec <HAL_RCC_GetSysClockFreq+0x34>
 8003ee0:	69bb      	ldr	r3, [r7, #24]
 8003ee2:	2b18      	cmp	r3, #24
 8003ee4:	d125      	bne.n	8003f32 <HAL_RCC_GetSysClockFreq+0x7a>
      ((sysclk_source == RCC_SYSCLKSOURCE_STATUS_PLLCLK) && (pll_oscsource == RCC_PLLSOURCE_MSI)))
 8003ee6:	697b      	ldr	r3, [r7, #20]
 8003ee8:	2b01      	cmp	r3, #1
 8003eea:	d122      	bne.n	8003f32 <HAL_RCC_GetSysClockFreq+0x7a>
  {
    /* MSI or PLL with MSI source used as system clock source */

    /* Get SYSCLK source */
    if (READ_BIT(RCC->CR, RCC_CR_MSIRGSEL) == 0U)
 8003eec:	4b3c      	ldr	r3, [pc, #240]	@ (8003fe0 <HAL_RCC_GetSysClockFreq+0x128>)
 8003eee:	681b      	ldr	r3, [r3, #0]
 8003ef0:	2208      	movs	r2, #8
 8003ef2:	4013      	ands	r3, r2
 8003ef4:	d107      	bne.n	8003f06 <HAL_RCC_GetSysClockFreq+0x4e>
    {
      /* MSISRANGE from RCC_CSR applies */
      msirange = READ_BIT(RCC->CSR, RCC_CSR_MSISTBYRG) >> RCC_CSR_MSISTBYRG_Pos;
 8003ef6:	4a3a      	ldr	r2, [pc, #232]	@ (8003fe0 <HAL_RCC_GetSysClockFreq+0x128>)
 8003ef8:	2394      	movs	r3, #148	@ 0x94
 8003efa:	58d3      	ldr	r3, [r2, r3]
 8003efc:	0a1b      	lsrs	r3, r3, #8
 8003efe:	220f      	movs	r2, #15
 8003f00:	4013      	ands	r3, r2
 8003f02:	627b      	str	r3, [r7, #36]	@ 0x24
 8003f04:	e005      	b.n	8003f12 <HAL_RCC_GetSysClockFreq+0x5a>
    }
    else
    {
      /* MSIRANGE from RCC_CR applies */
      msirange = READ_BIT(RCC->CR, RCC_CR_MSIRANGE) >> RCC_CR_MSIRANGE_Pos;
 8003f06:	4b36      	ldr	r3, [pc, #216]	@ (8003fe0 <HAL_RCC_GetSysClockFreq+0x128>)
 8003f08:	681b      	ldr	r3, [r3, #0]
 8003f0a:	091b      	lsrs	r3, r3, #4
 8003f0c:	220f      	movs	r2, #15
 8003f0e:	4013      	ands	r3, r2
 8003f10:	627b      	str	r3, [r7, #36]	@ 0x24
    }
    /*MSI frequency range in HZ*/
    if (msirange > 11U)
 8003f12:	6a7b      	ldr	r3, [r7, #36]	@ 0x24
 8003f14:	2b0b      	cmp	r3, #11
 8003f16:	d901      	bls.n	8003f1c <HAL_RCC_GetSysClockFreq+0x64>
    {
      msirange = 0U;
 8003f18:	2300      	movs	r3, #0
 8003f1a:	627b      	str	r3, [r7, #36]	@ 0x24
    }
    msirange = MSIRangeTable[msirange];
 8003f1c:	4b31      	ldr	r3, [pc, #196]	@ (8003fe4 <HAL_RCC_GetSysClockFreq+0x12c>)
 8003f1e:	6a7a      	ldr	r2, [r7, #36]	@ 0x24
 8003f20:	0092      	lsls	r2, r2, #2
 8003f22:	58d3      	ldr	r3, [r2, r3]
 8003f24:	627b      	str	r3, [r7, #36]	@ 0x24

    if (sysclk_source == RCC_SYSCLKSOURCE_STATUS_MSI)
 8003f26:	69bb      	ldr	r3, [r7, #24]
 8003f28:	2b00      	cmp	r3, #0
 8003f2a:	d11b      	bne.n	8003f64 <HAL_RCC_GetSysClockFreq+0xac>
    {
      /* MSI used as system clock source */
      sysclockfreq = msirange;
 8003f2c:	6a7b      	ldr	r3, [r7, #36]	@ 0x24
 8003f2e:	623b      	str	r3, [r7, #32]
    if (sysclk_source == RCC_SYSCLKSOURCE_STATUS_MSI)
 8003f30:	e018      	b.n	8003f64 <HAL_RCC_GetSysClockFreq+0xac>
    }
  }
  else if (sysclk_source == RCC_SYSCLKSOURCE_STATUS_HSI)
 8003f32:	69bb      	ldr	r3, [r7, #24]
 8003f34:	2b08      	cmp	r3, #8
 8003f36:	d102      	bne.n	8003f3e <HAL_RCC_GetSysClockFreq+0x86>
  {
    /* HSI used as system clock source */
    sysclockfreq = HSI_VALUE;
 8003f38:	4b2b      	ldr	r3, [pc, #172]	@ (8003fe8 <HAL_RCC_GetSysClockFreq+0x130>)
 8003f3a:	623b      	str	r3, [r7, #32]
 8003f3c:	e012      	b.n	8003f64 <HAL_RCC_GetSysClockFreq+0xac>
  }
  else if (sysclk_source == RCC_SYSCLKSOURCE_STATUS_HSE)
 8003f3e:	69bb      	ldr	r3, [r7, #24]
 8003f40:	2b10      	cmp	r3, #16
 8003f42:	d102      	bne.n	8003f4a <HAL_RCC_GetSysClockFreq+0x92>
  {
    /* HSE used as system clock source */
    sysclockfreq = HSE_VALUE;
 8003f44:	4b29      	ldr	r3, [pc, #164]	@ (8003fec <HAL_RCC_GetSysClockFreq+0x134>)
 8003f46:	623b      	str	r3, [r7, #32]
 8003f48:	e00c      	b.n	8003f64 <HAL_RCC_GetSysClockFreq+0xac>
  }
  else if (sysclk_source == RCC_SYSCLKSOURCE_STATUS_LSI)
 8003f4a:	69bb      	ldr	r3, [r7, #24]
 8003f4c:	2b20      	cmp	r3, #32
 8003f4e:	d103      	bne.n	8003f58 <HAL_RCC_GetSysClockFreq+0xa0>
  {
    /* LSI used as system clock source */
    sysclockfreq = LSI_VALUE;
 8003f50:	23fa      	movs	r3, #250	@ 0xfa
 8003f52:	01db      	lsls	r3, r3, #7
 8003f54:	623b      	str	r3, [r7, #32]
 8003f56:	e005      	b.n	8003f64 <HAL_RCC_GetSysClockFreq+0xac>
  }
  else if (sysclk_source == RCC_SYSCLKSOURCE_STATUS_LSE)
 8003f58:	69bb      	ldr	r3, [r7, #24]
 8003f5a:	2b28      	cmp	r3, #40	@ 0x28
 8003f5c:	d102      	bne.n	8003f64 <HAL_RCC_GetSysClockFreq+0xac>
  {
    /* LSE used as system clock source */
    sysclockfreq = LSE_VALUE;
 8003f5e:	2380      	movs	r3, #128	@ 0x80
 8003f60:	021b      	lsls	r3, r3, #8
 8003f62:	623b      	str	r3, [r7, #32]
  else
  {
    /* unexpected case: sysclockfreq at 0 */
  }

  if (sysclk_source == RCC_SYSCLKSOURCE_STATUS_PLLCLK)
 8003f64:	69bb      	ldr	r3, [r7, #24]
 8003f66:	2b18      	cmp	r3, #24
 8003f68:	d135      	bne.n	8003fd6 <HAL_RCC_GetSysClockFreq+0x11e>
    /* PLL used as system clock  source */
    /* The allowed input (pllinput/M) frequency range is from 2.66 to 16 MHZ */
    /* PLL_VCO = (HSE_VALUE or HSI_VALUE or MSI_VALUE) * PLLN / PLLM
    SYSCLK = PLL_VCO / PLLR
    */
    pllsource = READ_BIT(RCC->PLLCFGR, RCC_PLLCFGR_PLLSRC);
 8003f6a:	4b1d      	ldr	r3, [pc, #116]	@ (8003fe0 <HAL_RCC_GetSysClockFreq+0x128>)
 8003f6c:	68db      	ldr	r3, [r3, #12]
 8003f6e:	2203      	movs	r2, #3
 8003f70:	4013      	ands	r3, r2
 8003f72:	613b      	str	r3, [r7, #16]
    pllm = ((RCC->PLLCFGR & RCC_PLLCFGR_PLLM) >> RCC_PLLCFGR_PLLM_Pos) + 1U ;
 8003f74:	4b1a      	ldr	r3, [pc, #104]	@ (8003fe0 <HAL_RCC_GetSysClockFreq+0x128>)
 8003f76:	68db      	ldr	r3, [r3, #12]
 8003f78:	091b      	lsrs	r3, r3, #4
 8003f7a:	2207      	movs	r2, #7
 8003f7c:	4013      	ands	r3, r2
 8003f7e:	3301      	adds	r3, #1
 8003f80:	60fb      	str	r3, [r7, #12]

    switch (pllsource)
 8003f82:	693b      	ldr	r3, [r7, #16]
 8003f84:	2b02      	cmp	r3, #2
 8003f86:	d003      	beq.n	8003f90 <HAL_RCC_GetSysClockFreq+0xd8>
 8003f88:	693b      	ldr	r3, [r7, #16]
 8003f8a:	2b03      	cmp	r3, #3
 8003f8c:	d003      	beq.n	8003f96 <HAL_RCC_GetSysClockFreq+0xde>
 8003f8e:	e005      	b.n	8003f9c <HAL_RCC_GetSysClockFreq+0xe4>
    {
      case RCC_PLLSOURCE_HSI:  /* HSI used as PLL clock source */
        pllsourcefreq = HSI_VALUE;
 8003f90:	4b15      	ldr	r3, [pc, #84]	@ (8003fe8 <HAL_RCC_GetSysClockFreq+0x130>)
 8003f92:	61fb      	str	r3, [r7, #28]
        break;
 8003f94:	e005      	b.n	8003fa2 <HAL_RCC_GetSysClockFreq+0xea>

      case RCC_PLLSOURCE_HSE:  /* HSE used as PLL clock source */
        pllsourcefreq = HSE_VALUE;
 8003f96:	4b15      	ldr	r3, [pc, #84]	@ (8003fec <HAL_RCC_GetSysClockFreq+0x134>)
 8003f98:	61fb      	str	r3, [r7, #28]
        break;
 8003f9a:	e002      	b.n	8003fa2 <HAL_RCC_GetSysClockFreq+0xea>

      case RCC_PLLSOURCE_MSI:  /* MSI used as PLL clock source */
      default:
        pllsourcefreq = msirange;
 8003f9c:	6a7b      	ldr	r3, [r7, #36]	@ 0x24
 8003f9e:	61fb      	str	r3, [r7, #28]
        break;
 8003fa0:	46c0      	nop			@ (mov r8, r8)
    }
    pllvco = (pllsourcefreq * ((RCC->PLLCFGR & RCC_PLLCFGR_PLLN) >> RCC_PLLCFGR_PLLN_Pos)) / pllm ;
 8003fa2:	4b0f      	ldr	r3, [pc, #60]	@ (8003fe0 <HAL_RCC_GetSysClockFreq+0x128>)
 8003fa4:	68db      	ldr	r3, [r3, #12]
 8003fa6:	0a1b      	lsrs	r3, r3, #8
 8003fa8:	227f      	movs	r2, #127	@ 0x7f
 8003faa:	4013      	ands	r3, r2
 8003fac:	69fa      	ldr	r2, [r7, #28]
 8003fae:	4353      	muls	r3, r2
 8003fb0:	68f9      	ldr	r1, [r7, #12]
 8003fb2:	0018      	movs	r0, r3
 8003fb4:	f7fc f8b2 	bl	800011c <__udivsi3>
 8003fb8:	0003      	movs	r3, r0
 8003fba:	60bb      	str	r3, [r7, #8]
    pllr = ((READ_BIT(RCC->PLLCFGR, RCC_PLLCFGR_PLLR) >> RCC_PLLCFGR_PLLR_Pos) + 1U);
 8003fbc:	4b08      	ldr	r3, [pc, #32]	@ (8003fe0 <HAL_RCC_GetSysClockFreq+0x128>)
 8003fbe:	68db      	ldr	r3, [r3, #12]
 8003fc0:	0f5b      	lsrs	r3, r3, #29
 8003fc2:	2207      	movs	r2, #7
 8003fc4:	4013      	ands	r3, r2
 8003fc6:	3301      	adds	r3, #1
 8003fc8:	607b      	str	r3, [r7, #4]
    sysclockfreq = pllvco / pllr;
 8003fca:	6879      	ldr	r1, [r7, #4]
 8003fcc:	68b8      	ldr	r0, [r7, #8]
 8003fce:	f7fc f8a5 	bl	800011c <__udivsi3>
 8003fd2:	0003      	movs	r3, r0
 8003fd4:	623b      	str	r3, [r7, #32]
  }

  return sysclockfreq;
 8003fd6:	6a3b      	ldr	r3, [r7, #32]
}
 8003fd8:	0018      	movs	r0, r3
 8003fda:	46bd      	mov	sp, r7
 8003fdc:	b00a      	add	sp, #40	@ 0x28
 8003fde:	bd80      	pop	{r7, pc}
 8003fe0:	40021000 	.word	0x40021000
 8003fe4:	08006dcc 	.word	0x08006dcc
 8003fe8:	00f42400 	.word	0x00f42400
 8003fec:	003d0900 	.word	0x003d0900

08003ff0 <HAL_RCC_GetHCLKFreq>:
  *
  * @note   The SystemCoreClock CMSIS variable is used to store System Clock Frequency.
  * @retval HCLK frequency in Hz
  */
uint32_t HAL_RCC_GetHCLKFreq(void)
{
 8003ff0:	b580      	push	{r7, lr}
 8003ff2:	af00      	add	r7, sp, #0
  return SystemCoreClock;
 8003ff4:	4b02      	ldr	r3, [pc, #8]	@ (8004000 <HAL_RCC_GetHCLKFreq+0x10>)
 8003ff6:	681b      	ldr	r3, [r3, #0]
}
 8003ff8:	0018      	movs	r0, r3
 8003ffa:	46bd      	mov	sp, r7
 8003ffc:	bd80      	pop	{r7, pc}
 8003ffe:	46c0      	nop			@ (mov r8, r8)
 8004000:	20000034 	.word	0x20000034

08004004 <HAL_RCC_GetPCLK1Freq>:
  * @note   Each time PCLK changes, this function must be called to update the
  *         right PCLK1 value. Otherwise, any configuration based on this function will be incorrect.
  * @retval PCLK1 frequency in Hz
  */
uint32_t HAL_RCC_GetPCLK1Freq(void)
{
 8004004:	b580      	push	{r7, lr}
 8004006:	af00      	add	r7, sp, #0
  /* Get HCLK source and Compute PCLK1 frequency ---------------------------*/
  return (HAL_RCC_GetHCLKFreq() >> (APBPrescTable[READ_BIT(RCC->CFGR, RCC_CFGR_PPRE) >> RCC_CFGR_PPRE_Pos] & 0x1FU));
 8004008:	f7ff fff2 	bl	8003ff0 <HAL_RCC_GetHCLKFreq>
 800400c:	0001      	movs	r1, r0
 800400e:	4b07      	ldr	r3, [pc, #28]	@ (800402c <HAL_RCC_GetPCLK1Freq+0x28>)
 8004010:	689b      	ldr	r3, [r3, #8]
 8004012:	0b1b      	lsrs	r3, r3, #12
 8004014:	2207      	movs	r2, #7
 8004016:	4013      	ands	r3, r2
 8004018:	4a05      	ldr	r2, [pc, #20]	@ (8004030 <HAL_RCC_GetPCLK1Freq+0x2c>)
 800401a:	5cd3      	ldrb	r3, [r2, r3]
 800401c:	001a      	movs	r2, r3
 800401e:	231f      	movs	r3, #31
 8004020:	4013      	ands	r3, r2
 8004022:	40d9      	lsrs	r1, r3
 8004024:	000b      	movs	r3, r1
}
 8004026:	0018      	movs	r0, r3
 8004028:	46bd      	mov	sp, r7
 800402a:	bd80      	pop	{r7, pc}
 800402c:	40021000 	.word	0x40021000
 8004030:	08006dc4 	.word	0x08006dc4

08004034 <RCC_SetFlashLatencyFromMSIRange>:
            voltage range.
  * @param  msirange  MSI range value from RCC_MSISRANGE_0 to RCC_MSISRANGE_15
  * @retval HAL status
  */
static HAL_StatusTypeDef RCC_SetFlashLatencyFromMSIRange(uint32_t msirange)
{
 8004034:	b580      	push	{r7, lr}
 8004036:	b086      	sub	sp, #24
 8004038:	af00      	add	r7, sp, #0
 800403a:	6078      	str	r0, [r7, #4]
  uint32_t vos;
  uint32_t latency = FLASH_LATENCY_0;  /* default value 0WS */
 800403c:	2300      	movs	r3, #0
 800403e:	613b      	str	r3, [r7, #16]

  if (__HAL_RCC_PWR_IS_CLK_ENABLED())
 8004040:	4b2f      	ldr	r3, [pc, #188]	@ (8004100 <RCC_SetFlashLatencyFromMSIRange+0xcc>)
 8004042:	6d9a      	ldr	r2, [r3, #88]	@ 0x58
 8004044:	2380      	movs	r3, #128	@ 0x80
 8004046:	055b      	lsls	r3, r3, #21
 8004048:	4013      	ands	r3, r2
 800404a:	d004      	beq.n	8004056 <RCC_SetFlashLatencyFromMSIRange+0x22>
  {
    vos = HAL_PWREx_GetVoltageRange();
 800404c:	f7ff fa12 	bl	8003474 <HAL_PWREx_GetVoltageRange>
 8004050:	0003      	movs	r3, r0
 8004052:	617b      	str	r3, [r7, #20]
 8004054:	e017      	b.n	8004086 <RCC_SetFlashLatencyFromMSIRange+0x52>
  }
  else
  {
    __HAL_RCC_PWR_CLK_ENABLE();
 8004056:	4b2a      	ldr	r3, [pc, #168]	@ (8004100 <RCC_SetFlashLatencyFromMSIRange+0xcc>)
 8004058:	6d9a      	ldr	r2, [r3, #88]	@ 0x58
 800405a:	4b29      	ldr	r3, [pc, #164]	@ (8004100 <RCC_SetFlashLatencyFromMSIRange+0xcc>)
 800405c:	2180      	movs	r1, #128	@ 0x80
 800405e:	0549      	lsls	r1, r1, #21
 8004060:	430a      	orrs	r2, r1
 8004062:	659a      	str	r2, [r3, #88]	@ 0x58
 8004064:	4b26      	ldr	r3, [pc, #152]	@ (8004100 <RCC_SetFlashLatencyFromMSIRange+0xcc>)
 8004066:	6d9a      	ldr	r2, [r3, #88]	@ 0x58
 8004068:	2380      	movs	r3, #128	@ 0x80
 800406a:	055b      	lsls	r3, r3, #21
 800406c:	4013      	ands	r3, r2
 800406e:	60fb      	str	r3, [r7, #12]
 8004070:	68fb      	ldr	r3, [r7, #12]
    vos = HAL_PWREx_GetVoltageRange();
 8004072:	f7ff f9ff 	bl	8003474 <HAL_PWREx_GetVoltageRange>
 8004076:	0003      	movs	r3, r0
 8004078:	617b      	str	r3, [r7, #20]
    __HAL_RCC_PWR_CLK_DISABLE();
 800407a:	4b21      	ldr	r3, [pc, #132]	@ (8004100 <RCC_SetFlashLatencyFromMSIRange+0xcc>)
 800407c:	6d9a      	ldr	r2, [r3, #88]	@ 0x58
 800407e:	4b20      	ldr	r3, [pc, #128]	@ (8004100 <RCC_SetFlashLatencyFromMSIRange+0xcc>)
 8004080:	4920      	ldr	r1, [pc, #128]	@ (8004104 <RCC_SetFlashLatencyFromMSIRange+0xd0>)
 8004082:	400a      	ands	r2, r1
 8004084:	659a      	str	r2, [r3, #88]	@ 0x58
  }

  if (vos == PWR_REGULATOR_VOLTAGE_SCALE1)
 8004086:	697a      	ldr	r2, [r7, #20]
 8004088:	2380      	movs	r3, #128	@ 0x80
 800408a:	009b      	lsls	r3, r3, #2
 800408c:	429a      	cmp	r2, r3
 800408e:	d111      	bne.n	80040b4 <RCC_SetFlashLatencyFromMSIRange+0x80>
  {
    if (msirange > RCC_MSIRANGE_8)
 8004090:	687b      	ldr	r3, [r7, #4]
 8004092:	2b80      	cmp	r3, #128	@ 0x80
 8004094:	d91c      	bls.n	80040d0 <RCC_SetFlashLatencyFromMSIRange+0x9c>
    {
      /* MSI > 16Mhz */
      if (msirange > RCC_MSIRANGE_11)
 8004096:	687b      	ldr	r3, [r7, #4]
 8004098:	2bb0      	cmp	r3, #176	@ 0xb0
 800409a:	d902      	bls.n	80040a2 <RCC_SetFlashLatencyFromMSIRange+0x6e>
      {
        /* MSI 48Mhz */
        latency = FLASH_LATENCY_2; /* 2WS */
 800409c:	2302      	movs	r3, #2
 800409e:	613b      	str	r3, [r7, #16]
 80040a0:	e016      	b.n	80040d0 <RCC_SetFlashLatencyFromMSIRange+0x9c>
      }
      else if (msirange > RCC_MSIRANGE_9)
 80040a2:	687b      	ldr	r3, [r7, #4]
 80040a4:	2b90      	cmp	r3, #144	@ 0x90
 80040a6:	d902      	bls.n	80040ae <RCC_SetFlashLatencyFromMSIRange+0x7a>
      {
        /* MSI 24Mhz or 32Mhz */
        latency = FLASH_LATENCY_1; /* 1WS */
 80040a8:	2301      	movs	r3, #1
 80040aa:	613b      	str	r3, [r7, #16]
 80040ac:	e010      	b.n	80040d0 <RCC_SetFlashLatencyFromMSIRange+0x9c>
      }
      else
      {
        /* MSI 16Mhz */
        latency = FLASH_LATENCY_0; /* 0WS */
 80040ae:	2300      	movs	r3, #0
 80040b0:	613b      	str	r3, [r7, #16]
 80040b2:	e00d      	b.n	80040d0 <RCC_SetFlashLatencyFromMSIRange+0x9c>
    }
    /* else MSI <= 16Mhz default FLASH_LATENCY_0 0WS */
  }
  else
  {
    if (msirange >= RCC_MSIRANGE_8)
 80040b4:	687b      	ldr	r3, [r7, #4]
 80040b6:	2b7f      	cmp	r3, #127	@ 0x7f
 80040b8:	d902      	bls.n	80040c0 <RCC_SetFlashLatencyFromMSIRange+0x8c>
    {
      /* MSI > 16Mhz */
      latency = FLASH_LATENCY_2; /* 3WS */
 80040ba:	2302      	movs	r3, #2
 80040bc:	613b      	str	r3, [r7, #16]
 80040be:	e007      	b.n	80040d0 <RCC_SetFlashLatencyFromMSIRange+0x9c>
    }
    else if (msirange == RCC_MSIRANGE_7)
 80040c0:	687b      	ldr	r3, [r7, #4]
 80040c2:	2b70      	cmp	r3, #112	@ 0x70
 80040c4:	d102      	bne.n	80040cc <RCC_SetFlashLatencyFromMSIRange+0x98>
    {
      /* MSI 8Mhz */
      latency = FLASH_LATENCY_1; /* 1WS */
 80040c6:	2301      	movs	r3, #1
 80040c8:	613b      	str	r3, [r7, #16]
 80040ca:	e001      	b.n	80040d0 <RCC_SetFlashLatencyFromMSIRange+0x9c>
    }
    else
    {
      /* MSI 16Mhz */
      latency = FLASH_LATENCY_0; /* 0WS */
 80040cc:	2300      	movs	r3, #0
 80040ce:	613b      	str	r3, [r7, #16]
    }
    /* else MSI < 8Mhz default FLASH_LATENCY_0 0WS */
  }

  __HAL_FLASH_SET_LATENCY(latency);
 80040d0:	4b0d      	ldr	r3, [pc, #52]	@ (8004108 <RCC_SetFlashLatencyFromMSIRange+0xd4>)
 80040d2:	681b      	ldr	r3, [r3, #0]
 80040d4:	2207      	movs	r2, #7
 80040d6:	4393      	bics	r3, r2
 80040d8:	0019      	movs	r1, r3
 80040da:	4b0b      	ldr	r3, [pc, #44]	@ (8004108 <RCC_SetFlashLatencyFromMSIRange+0xd4>)
 80040dc:	693a      	ldr	r2, [r7, #16]
 80040de:	430a      	orrs	r2, r1
 80040e0:	601a      	str	r2, [r3, #0]

  /* Check that the new number of wait states is taken into account to access the Flash
     memory by reading the FLASH_ACR register */
  if ((FLASH->ACR & FLASH_ACR_LATENCY) != latency)
 80040e2:	4b09      	ldr	r3, [pc, #36]	@ (8004108 <RCC_SetFlashLatencyFromMSIRange+0xd4>)
 80040e4:	681b      	ldr	r3, [r3, #0]
 80040e6:	2207      	movs	r2, #7
 80040e8:	4013      	ands	r3, r2
 80040ea:	693a      	ldr	r2, [r7, #16]
 80040ec:	429a      	cmp	r2, r3
 80040ee:	d001      	beq.n	80040f4 <RCC_SetFlashLatencyFromMSIRange+0xc0>
  {
    return HAL_ERROR;
 80040f0:	2301      	movs	r3, #1
 80040f2:	e000      	b.n	80040f6 <RCC_SetFlashLatencyFromMSIRange+0xc2>
  }

  return HAL_OK;
 80040f4:	2300      	movs	r3, #0
}
 80040f6:	0018      	movs	r0, r3
 80040f8:	46bd      	mov	sp, r7
 80040fa:	b006      	add	sp, #24
 80040fc:	bd80      	pop	{r7, pc}
 80040fe:	46c0      	nop			@ (mov r8, r8)
 8004100:	40021000 	.word	0x40021000
 8004104:	efffffff 	.word	0xefffffff
 8004108:	40022000 	.word	0x40022000

0800410c <HAL_RCCEx_PeriphCLKConfig>:
  *         the RTC clock source: in this case the access to Backup domain is enabled.
  *
  * @retval HAL status
  */
HAL_StatusTypeDef HAL_RCCEx_PeriphCLKConfig(const RCC_PeriphCLKInitTypeDef  *PeriphClkInit)
{
 800410c:	b580      	push	{r7, lr}
 800410e:	b086      	sub	sp, #24
 8004110:	af00      	add	r7, sp, #0
 8004112:	6078      	str	r0, [r7, #4]
  uint32_t tmpregister;
  uint32_t tickstart;
  HAL_StatusTypeDef ret = HAL_OK;      /* Intermediate status */
 8004114:	2313      	movs	r3, #19
 8004116:	18fb      	adds	r3, r7, r3
 8004118:	2200      	movs	r2, #0
 800411a:	701a      	strb	r2, [r3, #0]
  HAL_StatusTypeDef status = HAL_OK;   /* Final status */
 800411c:	2312      	movs	r3, #18
 800411e:	18fb      	adds	r3, r7, r3
 8004120:	2200      	movs	r2, #0
 8004122:	701a      	strb	r2, [r3, #0]

  /* Check the parameters */
  assert_param(IS_RCC_PERIPHCLOCK(PeriphClkInit->PeriphClockSelection));

  /*-------------------------- RTC clock source configuration ----------------------*/
  if ((PeriphClkInit->PeriphClockSelection & RCC_PERIPHCLK_RTC) == RCC_PERIPHCLK_RTC)
 8004124:	687b      	ldr	r3, [r7, #4]
 8004126:	681a      	ldr	r2, [r3, #0]
 8004128:	2380      	movs	r3, #128	@ 0x80
 800412a:	021b      	lsls	r3, r3, #8
 800412c:	4013      	ands	r3, r2
 800412e:	d100      	bne.n	8004132 <HAL_RCCEx_PeriphCLKConfig+0x26>
 8004130:	e0b7      	b.n	80042a2 <HAL_RCCEx_PeriphCLKConfig+0x196>
  {
    FlagStatus       pwrclkchanged = RESET;
 8004132:	2011      	movs	r0, #17
 8004134:	183b      	adds	r3, r7, r0
 8004136:	2200      	movs	r2, #0
 8004138:	701a      	strb	r2, [r3, #0]

    /* Check for RTC Parameters used to output RTCCLK */
    assert_param(IS_RCC_RTCCLKSOURCE(PeriphClkInit->RTCClockSelection));

    /* Enable Power Clock */
    if (__HAL_RCC_PWR_IS_CLK_DISABLED())
 800413a:	4b4c      	ldr	r3, [pc, #304]	@ (800426c <HAL_RCCEx_PeriphCLKConfig+0x160>)
 800413c:	6d9a      	ldr	r2, [r3, #88]	@ 0x58
 800413e:	2380      	movs	r3, #128	@ 0x80
 8004140:	055b      	lsls	r3, r3, #21
 8004142:	4013      	ands	r3, r2
 8004144:	d110      	bne.n	8004168 <HAL_RCCEx_PeriphCLKConfig+0x5c>
    {
      __HAL_RCC_PWR_CLK_ENABLE();
 8004146:	4b49      	ldr	r3, [pc, #292]	@ (800426c <HAL_RCCEx_PeriphCLKConfig+0x160>)
 8004148:	6d9a      	ldr	r2, [r3, #88]	@ 0x58
 800414a:	4b48      	ldr	r3, [pc, #288]	@ (800426c <HAL_RCCEx_PeriphCLKConfig+0x160>)
 800414c:	2180      	movs	r1, #128	@ 0x80
 800414e:	0549      	lsls	r1, r1, #21
 8004150:	430a      	orrs	r2, r1
 8004152:	659a      	str	r2, [r3, #88]	@ 0x58
 8004154:	4b45      	ldr	r3, [pc, #276]	@ (800426c <HAL_RCCEx_PeriphCLKConfig+0x160>)
 8004156:	6d9a      	ldr	r2, [r3, #88]	@ 0x58
 8004158:	2380      	movs	r3, #128	@ 0x80
 800415a:	055b      	lsls	r3, r3, #21
 800415c:	4013      	ands	r3, r2
 800415e:	60bb      	str	r3, [r7, #8]
 8004160:	68bb      	ldr	r3, [r7, #8]
      pwrclkchanged = SET;
 8004162:	183b      	adds	r3, r7, r0
 8004164:	2201      	movs	r2, #1
 8004166:	701a      	strb	r2, [r3, #0]
    }

    /* Enable write access to Backup domain */
    SET_BIT(PWR->CR1, PWR_CR1_DBP);
 8004168:	4b41      	ldr	r3, [pc, #260]	@ (8004270 <HAL_RCCEx_PeriphCLKConfig+0x164>)
 800416a:	681a      	ldr	r2, [r3, #0]
 800416c:	4b40      	ldr	r3, [pc, #256]	@ (8004270 <HAL_RCCEx_PeriphCLKConfig+0x164>)
 800416e:	2180      	movs	r1, #128	@ 0x80
 8004170:	0049      	lsls	r1, r1, #1
 8004172:	430a      	orrs	r2, r1
 8004174:	601a      	str	r2, [r3, #0]

    /* Wait for Backup domain Write protection disable */
    tickstart = HAL_GetTick();
 8004176:	f7fc ffa7 	bl	80010c8 <HAL_GetTick>
 800417a:	0003      	movs	r3, r0
 800417c:	60fb      	str	r3, [r7, #12]

    while (READ_BIT(PWR->CR1, PWR_CR1_DBP) == 0U)
 800417e:	e00b      	b.n	8004198 <HAL_RCCEx_PeriphCLKConfig+0x8c>
    {
      if ((HAL_GetTick() - tickstart) > RCC_DBP_TIMEOUT_VALUE)
 8004180:	f7fc ffa2 	bl	80010c8 <HAL_GetTick>
 8004184:	0002      	movs	r2, r0
 8004186:	68fb      	ldr	r3, [r7, #12]
 8004188:	1ad3      	subs	r3, r2, r3
 800418a:	2b02      	cmp	r3, #2
 800418c:	d904      	bls.n	8004198 <HAL_RCCEx_PeriphCLKConfig+0x8c>
      {
        ret = HAL_TIMEOUT;
 800418e:	2313      	movs	r3, #19
 8004190:	18fb      	adds	r3, r7, r3
 8004192:	2203      	movs	r2, #3
 8004194:	701a      	strb	r2, [r3, #0]
        break;
 8004196:	e005      	b.n	80041a4 <HAL_RCCEx_PeriphCLKConfig+0x98>
    while (READ_BIT(PWR->CR1, PWR_CR1_DBP) == 0U)
 8004198:	4b35      	ldr	r3, [pc, #212]	@ (8004270 <HAL_RCCEx_PeriphCLKConfig+0x164>)
 800419a:	681a      	ldr	r2, [r3, #0]
 800419c:	2380      	movs	r3, #128	@ 0x80
 800419e:	005b      	lsls	r3, r3, #1
 80041a0:	4013      	ands	r3, r2
 80041a2:	d0ed      	beq.n	8004180 <HAL_RCCEx_PeriphCLKConfig+0x74>
      }
    }

    if (ret == HAL_OK)
 80041a4:	2313      	movs	r3, #19
 80041a6:	18fb      	adds	r3, r7, r3
 80041a8:	781b      	ldrb	r3, [r3, #0]
 80041aa:	2b00      	cmp	r3, #0
 80041ac:	d168      	bne.n	8004280 <HAL_RCCEx_PeriphCLKConfig+0x174>
    {
      /* Reset the Backup domain only if the RTC Clock source selection is modified from default */
      tmpregister = READ_BIT(RCC->BDCR, RCC_BDCR_RTCSEL);
 80041ae:	4a2f      	ldr	r2, [pc, #188]	@ (800426c <HAL_RCCEx_PeriphCLKConfig+0x160>)
 80041b0:	2390      	movs	r3, #144	@ 0x90
 80041b2:	58d2      	ldr	r2, [r2, r3]
 80041b4:	23c0      	movs	r3, #192	@ 0xc0
 80041b6:	009b      	lsls	r3, r3, #2
 80041b8:	4013      	ands	r3, r2
 80041ba:	617b      	str	r3, [r7, #20]

      if ((tmpregister != RCC_RTCCLKSOURCE_NONE) && (tmpregister != PeriphClkInit->RTCClockSelection))
 80041bc:	697b      	ldr	r3, [r7, #20]
 80041be:	2b00      	cmp	r3, #0
 80041c0:	d01f      	beq.n	8004202 <HAL_RCCEx_PeriphCLKConfig+0xf6>
 80041c2:	687b      	ldr	r3, [r7, #4]
 80041c4:	6c1b      	ldr	r3, [r3, #64]	@ 0x40
 80041c6:	697a      	ldr	r2, [r7, #20]
 80041c8:	429a      	cmp	r2, r3
 80041ca:	d01a      	beq.n	8004202 <HAL_RCCEx_PeriphCLKConfig+0xf6>
      {
        /* Store the content of BDCR register before the reset of Backup Domain */
        tmpregister = READ_BIT(RCC->BDCR, ~(RCC_BDCR_RTCSEL));
 80041cc:	4a27      	ldr	r2, [pc, #156]	@ (800426c <HAL_RCCEx_PeriphCLKConfig+0x160>)
 80041ce:	2390      	movs	r3, #144	@ 0x90
 80041d0:	58d3      	ldr	r3, [r2, r3]
 80041d2:	4a28      	ldr	r2, [pc, #160]	@ (8004274 <HAL_RCCEx_PeriphCLKConfig+0x168>)
 80041d4:	4013      	ands	r3, r2
 80041d6:	617b      	str	r3, [r7, #20]
        /* RTC Clock selection can be changed only if the Backup Domain is reset */
        __HAL_RCC_BACKUPRESET_FORCE();
 80041d8:	4a24      	ldr	r2, [pc, #144]	@ (800426c <HAL_RCCEx_PeriphCLKConfig+0x160>)
 80041da:	2390      	movs	r3, #144	@ 0x90
 80041dc:	58d3      	ldr	r3, [r2, r3]
 80041de:	4923      	ldr	r1, [pc, #140]	@ (800426c <HAL_RCCEx_PeriphCLKConfig+0x160>)
 80041e0:	2280      	movs	r2, #128	@ 0x80
 80041e2:	0252      	lsls	r2, r2, #9
 80041e4:	4313      	orrs	r3, r2
 80041e6:	2290      	movs	r2, #144	@ 0x90
 80041e8:	508b      	str	r3, [r1, r2]
        __HAL_RCC_BACKUPRESET_RELEASE();
 80041ea:	4a20      	ldr	r2, [pc, #128]	@ (800426c <HAL_RCCEx_PeriphCLKConfig+0x160>)
 80041ec:	2390      	movs	r3, #144	@ 0x90
 80041ee:	58d3      	ldr	r3, [r2, r3]
 80041f0:	491e      	ldr	r1, [pc, #120]	@ (800426c <HAL_RCCEx_PeriphCLKConfig+0x160>)
 80041f2:	4a21      	ldr	r2, [pc, #132]	@ (8004278 <HAL_RCCEx_PeriphCLKConfig+0x16c>)
 80041f4:	4013      	ands	r3, r2
 80041f6:	2290      	movs	r2, #144	@ 0x90
 80041f8:	508b      	str	r3, [r1, r2]
        /* Restore the Content of BDCR register */
        RCC->BDCR = tmpregister;
 80041fa:	491c      	ldr	r1, [pc, #112]	@ (800426c <HAL_RCCEx_PeriphCLKConfig+0x160>)
 80041fc:	2290      	movs	r2, #144	@ 0x90
 80041fe:	697b      	ldr	r3, [r7, #20]
 8004200:	508b      	str	r3, [r1, r2]
      }

      /* Wait for LSE reactivation if LSE was enable prior to Backup Domain reset */
      if (HAL_IS_BIT_SET(tmpregister, RCC_BDCR_LSEON))
 8004202:	697b      	ldr	r3, [r7, #20]
 8004204:	2201      	movs	r2, #1
 8004206:	4013      	ands	r3, r2
 8004208:	d017      	beq.n	800423a <HAL_RCCEx_PeriphCLKConfig+0x12e>
      {
        /* Get Start Tick*/
        tickstart = HAL_GetTick();
 800420a:	f7fc ff5d 	bl	80010c8 <HAL_GetTick>
 800420e:	0003      	movs	r3, r0
 8004210:	60fb      	str	r3, [r7, #12]

        /* Wait till LSE is ready */
        while (READ_BIT(RCC->BDCR, RCC_BDCR_LSERDY) == 0U)
 8004212:	e00c      	b.n	800422e <HAL_RCCEx_PeriphCLKConfig+0x122>
        {
          if ((HAL_GetTick() - tickstart) > RCC_LSE_TIMEOUT_VALUE)
 8004214:	f7fc ff58 	bl	80010c8 <HAL_GetTick>
 8004218:	0002      	movs	r2, r0
 800421a:	68fb      	ldr	r3, [r7, #12]
 800421c:	1ad3      	subs	r3, r2, r3
 800421e:	4a17      	ldr	r2, [pc, #92]	@ (800427c <HAL_RCCEx_PeriphCLKConfig+0x170>)
 8004220:	4293      	cmp	r3, r2
 8004222:	d904      	bls.n	800422e <HAL_RCCEx_PeriphCLKConfig+0x122>
          {
            ret = HAL_TIMEOUT;
 8004224:	2313      	movs	r3, #19
 8004226:	18fb      	adds	r3, r7, r3
 8004228:	2203      	movs	r2, #3
 800422a:	701a      	strb	r2, [r3, #0]
            break;
 800422c:	e005      	b.n	800423a <HAL_RCCEx_PeriphCLKConfig+0x12e>
        while (READ_BIT(RCC->BDCR, RCC_BDCR_LSERDY) == 0U)
 800422e:	4a0f      	ldr	r2, [pc, #60]	@ (800426c <HAL_RCCEx_PeriphCLKConfig+0x160>)
 8004230:	2390      	movs	r3, #144	@ 0x90
 8004232:	58d3      	ldr	r3, [r2, r3]
 8004234:	2202      	movs	r2, #2
 8004236:	4013      	ands	r3, r2
 8004238:	d0ec      	beq.n	8004214 <HAL_RCCEx_PeriphCLKConfig+0x108>
          }
        }
      }

      if (ret == HAL_OK)
 800423a:	2313      	movs	r3, #19
 800423c:	18fb      	adds	r3, r7, r3
 800423e:	781b      	ldrb	r3, [r3, #0]
 8004240:	2b00      	cmp	r3, #0
 8004242:	d10b      	bne.n	800425c <HAL_RCCEx_PeriphCLKConfig+0x150>
      {
        /* Apply new RTC clock source selection */
        __HAL_RCC_RTC_CONFIG(PeriphClkInit->RTCClockSelection);
 8004244:	4a09      	ldr	r2, [pc, #36]	@ (800426c <HAL_RCCEx_PeriphCLKConfig+0x160>)
 8004246:	2390      	movs	r3, #144	@ 0x90
 8004248:	58d3      	ldr	r3, [r2, r3]
 800424a:	4a0a      	ldr	r2, [pc, #40]	@ (8004274 <HAL_RCCEx_PeriphCLKConfig+0x168>)
 800424c:	401a      	ands	r2, r3
 800424e:	687b      	ldr	r3, [r7, #4]
 8004250:	6c1b      	ldr	r3, [r3, #64]	@ 0x40
 8004252:	4906      	ldr	r1, [pc, #24]	@ (800426c <HAL_RCCEx_PeriphCLKConfig+0x160>)
 8004254:	4313      	orrs	r3, r2
 8004256:	2290      	movs	r2, #144	@ 0x90
 8004258:	508b      	str	r3, [r1, r2]
 800425a:	e017      	b.n	800428c <HAL_RCCEx_PeriphCLKConfig+0x180>
      }
      else
      {
        /* set overall return value */
        status = ret;
 800425c:	2312      	movs	r3, #18
 800425e:	18fb      	adds	r3, r7, r3
 8004260:	2213      	movs	r2, #19
 8004262:	18ba      	adds	r2, r7, r2
 8004264:	7812      	ldrb	r2, [r2, #0]
 8004266:	701a      	strb	r2, [r3, #0]
 8004268:	e010      	b.n	800428c <HAL_RCCEx_PeriphCLKConfig+0x180>
 800426a:	46c0      	nop			@ (mov r8, r8)
 800426c:	40021000 	.word	0x40021000
 8004270:	40007000 	.word	0x40007000
 8004274:	fffffcff 	.word	0xfffffcff
 8004278:	fffeffff 	.word	0xfffeffff
 800427c:	00001388 	.word	0x00001388
      }
    }
    else
    {
      /* set overall return value */
      status = ret;
 8004280:	2312      	movs	r3, #18
 8004282:	18fb      	adds	r3, r7, r3
 8004284:	2213      	movs	r2, #19
 8004286:	18ba      	adds	r2, r7, r2
 8004288:	7812      	ldrb	r2, [r2, #0]
 800428a:	701a      	strb	r2, [r3, #0]
    }

    /* Restore clock configuration if changed */
    if (pwrclkchanged == SET)
 800428c:	2311      	movs	r3, #17
 800428e:	18fb      	adds	r3, r7, r3
 8004290:	781b      	ldrb	r3, [r3, #0]
 8004292:	2b01      	cmp	r3, #1
 8004294:	d105      	bne.n	80042a2 <HAL_RCCEx_PeriphCLKConfig+0x196>
    {
      __HAL_RCC_PWR_CLK_DISABLE();
 8004296:	4ba4      	ldr	r3, [pc, #656]	@ (8004528 <HAL_RCCEx_PeriphCLKConfig+0x41c>)
 8004298:	6d9a      	ldr	r2, [r3, #88]	@ 0x58
 800429a:	4ba3      	ldr	r3, [pc, #652]	@ (8004528 <HAL_RCCEx_PeriphCLKConfig+0x41c>)
 800429c:	49a3      	ldr	r1, [pc, #652]	@ (800452c <HAL_RCCEx_PeriphCLKConfig+0x420>)
 800429e:	400a      	ands	r2, r1
 80042a0:	659a      	str	r2, [r3, #88]	@ 0x58
    }
  }

  /*-------------------------- USART1 clock source configuration -------------------*/
  if (((PeriphClkInit->PeriphClockSelection) & RCC_PERIPHCLK_USART1) == RCC_PERIPHCLK_USART1)
 80042a2:	687b      	ldr	r3, [r7, #4]
 80042a4:	681b      	ldr	r3, [r3, #0]
 80042a6:	2201      	movs	r2, #1
 80042a8:	4013      	ands	r3, r2
 80042aa:	d00b      	beq.n	80042c4 <HAL_RCCEx_PeriphCLKConfig+0x1b8>
  {
    /* Check the parameters */
    assert_param(IS_RCC_USART1CLKSOURCE(PeriphClkInit->Usart1ClockSelection));

    /* Configure the USART1 clock source */
    __HAL_RCC_USART1_CONFIG(PeriphClkInit->Usart1ClockSelection);
 80042ac:	4a9e      	ldr	r2, [pc, #632]	@ (8004528 <HAL_RCCEx_PeriphCLKConfig+0x41c>)
 80042ae:	2388      	movs	r3, #136	@ 0x88
 80042b0:	58d3      	ldr	r3, [r2, r3]
 80042b2:	2203      	movs	r2, #3
 80042b4:	4393      	bics	r3, r2
 80042b6:	001a      	movs	r2, r3
 80042b8:	687b      	ldr	r3, [r7, #4]
 80042ba:	685b      	ldr	r3, [r3, #4]
 80042bc:	499a      	ldr	r1, [pc, #616]	@ (8004528 <HAL_RCCEx_PeriphCLKConfig+0x41c>)
 80042be:	4313      	orrs	r3, r2
 80042c0:	2288      	movs	r2, #136	@ 0x88
 80042c2:	508b      	str	r3, [r1, r2]
  }

  /*-------------------------- USART2 clock source configuration -------------------*/
  if (((PeriphClkInit->PeriphClockSelection) & RCC_PERIPHCLK_USART2) == RCC_PERIPHCLK_USART2)
 80042c4:	687b      	ldr	r3, [r7, #4]
 80042c6:	681b      	ldr	r3, [r3, #0]
 80042c8:	2202      	movs	r2, #2
 80042ca:	4013      	ands	r3, r2
 80042cc:	d00b      	beq.n	80042e6 <HAL_RCCEx_PeriphCLKConfig+0x1da>
  {
    /* Check the parameters */
    assert_param(IS_RCC_USART2CLKSOURCE(PeriphClkInit->Usart2ClockSelection));

    /* Configure the USART2 clock source */
    __HAL_RCC_USART2_CONFIG(PeriphClkInit->Usart2ClockSelection);
 80042ce:	4a96      	ldr	r2, [pc, #600]	@ (8004528 <HAL_RCCEx_PeriphCLKConfig+0x41c>)
 80042d0:	2388      	movs	r3, #136	@ 0x88
 80042d2:	58d3      	ldr	r3, [r2, r3]
 80042d4:	220c      	movs	r2, #12
 80042d6:	4393      	bics	r3, r2
 80042d8:	001a      	movs	r2, r3
 80042da:	687b      	ldr	r3, [r7, #4]
 80042dc:	689b      	ldr	r3, [r3, #8]
 80042de:	4992      	ldr	r1, [pc, #584]	@ (8004528 <HAL_RCCEx_PeriphCLKConfig+0x41c>)
 80042e0:	4313      	orrs	r3, r2
 80042e2:	2288      	movs	r2, #136	@ 0x88
 80042e4:	508b      	str	r3, [r1, r2]
  }

  /*-------------------------- LPUART1 clock source configuration ------------------*/
  if (((PeriphClkInit->PeriphClockSelection) & RCC_PERIPHCLK_LPUART1) == RCC_PERIPHCLK_LPUART1)
 80042e6:	687b      	ldr	r3, [r7, #4]
 80042e8:	681b      	ldr	r3, [r3, #0]
 80042ea:	2210      	movs	r2, #16
 80042ec:	4013      	ands	r3, r2
 80042ee:	d00a      	beq.n	8004306 <HAL_RCCEx_PeriphCLKConfig+0x1fa>
  {
    /* Check the parameters */
    assert_param(IS_RCC_LPUART1CLKSOURCE(PeriphClkInit->Lpuart1ClockSelection));

    /* Configure the LPUART1 clock source */
    __HAL_RCC_LPUART1_CONFIG(PeriphClkInit->Lpuart1ClockSelection);
 80042f0:	4a8d      	ldr	r2, [pc, #564]	@ (8004528 <HAL_RCCEx_PeriphCLKConfig+0x41c>)
 80042f2:	2388      	movs	r3, #136	@ 0x88
 80042f4:	58d3      	ldr	r3, [r2, r3]
 80042f6:	4a8e      	ldr	r2, [pc, #568]	@ (8004530 <HAL_RCCEx_PeriphCLKConfig+0x424>)
 80042f8:	401a      	ands	r2, r3
 80042fa:	687b      	ldr	r3, [r7, #4]
 80042fc:	695b      	ldr	r3, [r3, #20]
 80042fe:	498a      	ldr	r1, [pc, #552]	@ (8004528 <HAL_RCCEx_PeriphCLKConfig+0x41c>)
 8004300:	4313      	orrs	r3, r2
 8004302:	2288      	movs	r2, #136	@ 0x88
 8004304:	508b      	str	r3, [r1, r2]
  }

  /*-------------------------- LPUART2 clock source configuration ------------------*/
  if (((PeriphClkInit->PeriphClockSelection) & RCC_PERIPHCLK_LPUART2) == RCC_PERIPHCLK_LPUART2)
 8004306:	687b      	ldr	r3, [r7, #4]
 8004308:	681b      	ldr	r3, [r3, #0]
 800430a:	2208      	movs	r2, #8
 800430c:	4013      	ands	r3, r2
 800430e:	d00a      	beq.n	8004326 <HAL_RCCEx_PeriphCLKConfig+0x21a>
  {
    /* Check the parameters */
    assert_param(IS_RCC_LPUART2CLKSOURCE(PeriphClkInit->Lpuart2ClockSelection));

    /* Configure the LPUART2 clock source */
    __HAL_RCC_LPUART2_CONFIG(PeriphClkInit->Lpuart2ClockSelection);
 8004310:	4a85      	ldr	r2, [pc, #532]	@ (8004528 <HAL_RCCEx_PeriphCLKConfig+0x41c>)
 8004312:	2388      	movs	r3, #136	@ 0x88
 8004314:	58d3      	ldr	r3, [r2, r3]
 8004316:	4a87      	ldr	r2, [pc, #540]	@ (8004534 <HAL_RCCEx_PeriphCLKConfig+0x428>)
 8004318:	401a      	ands	r2, r3
 800431a:	687b      	ldr	r3, [r7, #4]
 800431c:	691b      	ldr	r3, [r3, #16]
 800431e:	4982      	ldr	r1, [pc, #520]	@ (8004528 <HAL_RCCEx_PeriphCLKConfig+0x41c>)
 8004320:	4313      	orrs	r3, r2
 8004322:	2288      	movs	r2, #136	@ 0x88
 8004324:	508b      	str	r3, [r1, r2]
  }
#if defined (LPUART3)
  /*-------------------------- LPUART3 clock source configuration ------------------*/
  if (((PeriphClkInit->PeriphClockSelection) & RCC_PERIPHCLK_LPUART3) == RCC_PERIPHCLK_LPUART3)
 8004326:	687b      	ldr	r3, [r7, #4]
 8004328:	681b      	ldr	r3, [r3, #0]
 800432a:	2204      	movs	r2, #4
 800432c:	4013      	ands	r3, r2
 800432e:	d00b      	beq.n	8004348 <HAL_RCCEx_PeriphCLKConfig+0x23c>
  {
    /* Check the parameters */
    assert_param(IS_RCC_LPUART3CLKSOURCE(PeriphClkInit->Lpuart3ClockSelection));

    /* Configure the LPUART3 clock source */
    __HAL_RCC_LPUART3_CONFIG(PeriphClkInit->Lpuart3ClockSelection);
 8004330:	4a7d      	ldr	r2, [pc, #500]	@ (8004528 <HAL_RCCEx_PeriphCLKConfig+0x41c>)
 8004332:	2388      	movs	r3, #136	@ 0x88
 8004334:	58d3      	ldr	r3, [r2, r3]
 8004336:	22c0      	movs	r2, #192	@ 0xc0
 8004338:	4393      	bics	r3, r2
 800433a:	001a      	movs	r2, r3
 800433c:	687b      	ldr	r3, [r7, #4]
 800433e:	68db      	ldr	r3, [r3, #12]
 8004340:	4979      	ldr	r1, [pc, #484]	@ (8004528 <HAL_RCCEx_PeriphCLKConfig+0x41c>)
 8004342:	4313      	orrs	r3, r2
 8004344:	2288      	movs	r2, #136	@ 0x88
 8004346:	508b      	str	r3, [r1, r2]
  }
#endif /* LPUART3 */
  /*-------------------------- I2C1 clock source configuration ---------------------*/
  if (((PeriphClkInit->PeriphClockSelection) & RCC_PERIPHCLK_I2C1) == RCC_PERIPHCLK_I2C1)
 8004348:	687b      	ldr	r3, [r7, #4]
 800434a:	681b      	ldr	r3, [r3, #0]
 800434c:	2220      	movs	r2, #32
 800434e:	4013      	ands	r3, r2
 8004350:	d00a      	beq.n	8004368 <HAL_RCCEx_PeriphCLKConfig+0x25c>
  {
    /* Check the parameters */
    assert_param(IS_RCC_I2C1CLKSOURCE(PeriphClkInit->I2c1ClockSelection));

    /* Configure the I2C1 clock source */
    __HAL_RCC_I2C1_CONFIG(PeriphClkInit->I2c1ClockSelection);
 8004352:	4a75      	ldr	r2, [pc, #468]	@ (8004528 <HAL_RCCEx_PeriphCLKConfig+0x41c>)
 8004354:	2388      	movs	r3, #136	@ 0x88
 8004356:	58d3      	ldr	r3, [r2, r3]
 8004358:	4a77      	ldr	r2, [pc, #476]	@ (8004538 <HAL_RCCEx_PeriphCLKConfig+0x42c>)
 800435a:	401a      	ands	r2, r3
 800435c:	687b      	ldr	r3, [r7, #4]
 800435e:	699b      	ldr	r3, [r3, #24]
 8004360:	4971      	ldr	r1, [pc, #452]	@ (8004528 <HAL_RCCEx_PeriphCLKConfig+0x41c>)
 8004362:	4313      	orrs	r3, r2
 8004364:	2288      	movs	r2, #136	@ 0x88
 8004366:	508b      	str	r3, [r1, r2]
  }

  /*-------------------------- I2C3 clock source configuration ---------------------*/
  if (((PeriphClkInit->PeriphClockSelection) & RCC_PERIPHCLK_I2C3) == RCC_PERIPHCLK_I2C3)
 8004368:	687b      	ldr	r3, [r7, #4]
 800436a:	681b      	ldr	r3, [r3, #0]
 800436c:	2240      	movs	r2, #64	@ 0x40
 800436e:	4013      	ands	r3, r2
 8004370:	d00a      	beq.n	8004388 <HAL_RCCEx_PeriphCLKConfig+0x27c>
  {
    /* Check the parameters */
    assert_param(IS_RCC_I2C3CLKSOURCE(PeriphClkInit->I2c3ClockSelection));

    /* Configure the I2C3 clock source */
    __HAL_RCC_I2C3_CONFIG(PeriphClkInit->I2c3ClockSelection);
 8004372:	4a6d      	ldr	r2, [pc, #436]	@ (8004528 <HAL_RCCEx_PeriphCLKConfig+0x41c>)
 8004374:	2388      	movs	r3, #136	@ 0x88
 8004376:	58d3      	ldr	r3, [r2, r3]
 8004378:	4a70      	ldr	r2, [pc, #448]	@ (800453c <HAL_RCCEx_PeriphCLKConfig+0x430>)
 800437a:	401a      	ands	r2, r3
 800437c:	687b      	ldr	r3, [r7, #4]
 800437e:	69db      	ldr	r3, [r3, #28]
 8004380:	4969      	ldr	r1, [pc, #420]	@ (8004528 <HAL_RCCEx_PeriphCLKConfig+0x41c>)
 8004382:	4313      	orrs	r3, r2
 8004384:	2288      	movs	r2, #136	@ 0x88
 8004386:	508b      	str	r3, [r1, r2]
  }

  /*----------------------- LPTIM1 clock source configuration -------------------*/
  if (((PeriphClkInit->PeriphClockSelection) & RCC_PERIPHCLK_LPTIM1) == (RCC_PERIPHCLK_LPTIM1))
 8004388:	687b      	ldr	r3, [r7, #4]
 800438a:	681b      	ldr	r3, [r3, #0]
 800438c:	2280      	movs	r2, #128	@ 0x80
 800438e:	4013      	ands	r3, r2
 8004390:	d00a      	beq.n	80043a8 <HAL_RCCEx_PeriphCLKConfig+0x29c>
  {
    assert_param(IS_RCC_LPTIM1CLKSOURCE(PeriphClkInit->Lptim1ClockSelection));
    __HAL_RCC_LPTIM1_CONFIG(PeriphClkInit->Lptim1ClockSelection);
 8004392:	4a65      	ldr	r2, [pc, #404]	@ (8004528 <HAL_RCCEx_PeriphCLKConfig+0x41c>)
 8004394:	2388      	movs	r3, #136	@ 0x88
 8004396:	58d3      	ldr	r3, [r2, r3]
 8004398:	4a69      	ldr	r2, [pc, #420]	@ (8004540 <HAL_RCCEx_PeriphCLKConfig+0x434>)
 800439a:	401a      	ands	r2, r3
 800439c:	687b      	ldr	r3, [r7, #4]
 800439e:	6a1b      	ldr	r3, [r3, #32]
 80043a0:	4961      	ldr	r1, [pc, #388]	@ (8004528 <HAL_RCCEx_PeriphCLKConfig+0x41c>)
 80043a2:	4313      	orrs	r3, r2
 80043a4:	2288      	movs	r2, #136	@ 0x88
 80043a6:	508b      	str	r3, [r1, r2]
  }

  /*-------------------------- LPTIM2 clock source configuration -------------------*/
  if (((PeriphClkInit->PeriphClockSelection) & RCC_PERIPHCLK_LPTIM2) == (RCC_PERIPHCLK_LPTIM2))
 80043a8:	687b      	ldr	r3, [r7, #4]
 80043aa:	681a      	ldr	r2, [r3, #0]
 80043ac:	2380      	movs	r3, #128	@ 0x80
 80043ae:	005b      	lsls	r3, r3, #1
 80043b0:	4013      	ands	r3, r2
 80043b2:	d00a      	beq.n	80043ca <HAL_RCCEx_PeriphCLKConfig+0x2be>
  {
    assert_param(IS_RCC_LPTIM2CLKSOURCE(PeriphClkInit->Lptim2ClockSelection));
    __HAL_RCC_LPTIM2_CONFIG(PeriphClkInit->Lptim2ClockSelection);
 80043b4:	4a5c      	ldr	r2, [pc, #368]	@ (8004528 <HAL_RCCEx_PeriphCLKConfig+0x41c>)
 80043b6:	2388      	movs	r3, #136	@ 0x88
 80043b8:	58d3      	ldr	r3, [r2, r3]
 80043ba:	4a62      	ldr	r2, [pc, #392]	@ (8004544 <HAL_RCCEx_PeriphCLKConfig+0x438>)
 80043bc:	401a      	ands	r2, r3
 80043be:	687b      	ldr	r3, [r7, #4]
 80043c0:	6a5b      	ldr	r3, [r3, #36]	@ 0x24
 80043c2:	4959      	ldr	r1, [pc, #356]	@ (8004528 <HAL_RCCEx_PeriphCLKConfig+0x41c>)
 80043c4:	4313      	orrs	r3, r2
 80043c6:	2288      	movs	r2, #136	@ 0x88
 80043c8:	508b      	str	r3, [r1, r2]
  }
#if defined (LPTIM3)
  /*----------------------- LPTIM3 clock source configuration -------------------*/
  if (((PeriphClkInit->PeriphClockSelection) & RCC_PERIPHCLK_LPTIM3) == (RCC_PERIPHCLK_LPTIM3))
 80043ca:	687b      	ldr	r3, [r7, #4]
 80043cc:	681a      	ldr	r2, [r3, #0]
 80043ce:	2380      	movs	r3, #128	@ 0x80
 80043d0:	009b      	lsls	r3, r3, #2
 80043d2:	4013      	ands	r3, r2
 80043d4:	d00a      	beq.n	80043ec <HAL_RCCEx_PeriphCLKConfig+0x2e0>
  {
    assert_param(IS_RCC_LPTIM3CLKSOURCE(PeriphClkInit->Lptim3ClockSelection));
    __HAL_RCC_LPTIM3_CONFIG(PeriphClkInit->Lptim3ClockSelection);
 80043d6:	4a54      	ldr	r2, [pc, #336]	@ (8004528 <HAL_RCCEx_PeriphCLKConfig+0x41c>)
 80043d8:	2388      	movs	r3, #136	@ 0x88
 80043da:	58d3      	ldr	r3, [r2, r3]
 80043dc:	4a5a      	ldr	r2, [pc, #360]	@ (8004548 <HAL_RCCEx_PeriphCLKConfig+0x43c>)
 80043de:	401a      	ands	r2, r3
 80043e0:	687b      	ldr	r3, [r7, #4]
 80043e2:	6a9b      	ldr	r3, [r3, #40]	@ 0x28
 80043e4:	4950      	ldr	r1, [pc, #320]	@ (8004528 <HAL_RCCEx_PeriphCLKConfig+0x41c>)
 80043e6:	4313      	orrs	r3, r2
 80043e8:	2288      	movs	r2, #136	@ 0x88
 80043ea:	508b      	str	r3, [r1, r2]
  }
#endif /* LPTIM3 */
  /*-------------------------- ADC clock source configuration ----------------*/
  if (((PeriphClkInit->PeriphClockSelection) & RCC_PERIPHCLK_ADC) == RCC_PERIPHCLK_ADC)
 80043ec:	687b      	ldr	r3, [r7, #4]
 80043ee:	681a      	ldr	r2, [r3, #0]
 80043f0:	2380      	movs	r3, #128	@ 0x80
 80043f2:	01db      	lsls	r3, r3, #7
 80043f4:	4013      	ands	r3, r2
 80043f6:	d017      	beq.n	8004428 <HAL_RCCEx_PeriphCLKConfig+0x31c>
  {
    /* Check the parameters */
    assert_param(IS_RCC_ADCCLKSOURCE(PeriphClkInit->AdcClockSelection));
    if (PeriphClkInit->AdcClockSelection == RCC_ADCCLKSOURCE_PLLP)
 80043f8:	687b      	ldr	r3, [r7, #4]
 80043fa:	6bda      	ldr	r2, [r3, #60]	@ 0x3c
 80043fc:	2380      	movs	r3, #128	@ 0x80
 80043fe:	055b      	lsls	r3, r3, #21
 8004400:	429a      	cmp	r2, r3
 8004402:	d106      	bne.n	8004412 <HAL_RCCEx_PeriphCLKConfig+0x306>
    {
      __HAL_RCC_PLLCLKOUT_ENABLE(RCC_PLL_DIVP);
 8004404:	4b48      	ldr	r3, [pc, #288]	@ (8004528 <HAL_RCCEx_PeriphCLKConfig+0x41c>)
 8004406:	68da      	ldr	r2, [r3, #12]
 8004408:	4b47      	ldr	r3, [pc, #284]	@ (8004528 <HAL_RCCEx_PeriphCLKConfig+0x41c>)
 800440a:	2180      	movs	r1, #128	@ 0x80
 800440c:	0249      	lsls	r1, r1, #9
 800440e:	430a      	orrs	r2, r1
 8004410:	60da      	str	r2, [r3, #12]
    }
    /* Configure the ADC1 clock source */
    __HAL_RCC_ADC_CONFIG(PeriphClkInit->AdcClockSelection);
 8004412:	4a45      	ldr	r2, [pc, #276]	@ (8004528 <HAL_RCCEx_PeriphCLKConfig+0x41c>)
 8004414:	2388      	movs	r3, #136	@ 0x88
 8004416:	58d3      	ldr	r3, [r2, r3]
 8004418:	4a4c      	ldr	r2, [pc, #304]	@ (800454c <HAL_RCCEx_PeriphCLKConfig+0x440>)
 800441a:	401a      	ands	r2, r3
 800441c:	687b      	ldr	r3, [r7, #4]
 800441e:	6bdb      	ldr	r3, [r3, #60]	@ 0x3c
 8004420:	4941      	ldr	r1, [pc, #260]	@ (8004528 <HAL_RCCEx_PeriphCLKConfig+0x41c>)
 8004422:	4313      	orrs	r3, r2
 8004424:	2288      	movs	r2, #136	@ 0x88
 8004426:	508b      	str	r3, [r1, r2]
  }
#if defined (USB_DRD_FS)
  /*-------------------------- USB clock source configuration ----------------*/
  if (((PeriphClkInit->PeriphClockSelection) & RCC_PERIPHCLK_USB) == RCC_PERIPHCLK_USB)
 8004428:	687b      	ldr	r3, [r7, #4]
 800442a:	681a      	ldr	r2, [r3, #0]
 800442c:	2380      	movs	r3, #128	@ 0x80
 800442e:	015b      	lsls	r3, r3, #5
 8004430:	4013      	ands	r3, r2
 8004432:	d017      	beq.n	8004464 <HAL_RCCEx_PeriphCLKConfig+0x358>
  {
    /* Check the parameters */
    assert_param(IS_RCC_USBCLKSOURCE(PeriphClkInit->UsbClockSelection));
    if (PeriphClkInit->UsbClockSelection == RCC_USBCLKSOURCE_PLLQ)
 8004434:	687b      	ldr	r3, [r7, #4]
 8004436:	6b5a      	ldr	r2, [r3, #52]	@ 0x34
 8004438:	2380      	movs	r3, #128	@ 0x80
 800443a:	051b      	lsls	r3, r3, #20
 800443c:	429a      	cmp	r2, r3
 800443e:	d106      	bne.n	800444e <HAL_RCCEx_PeriphCLKConfig+0x342>
    {
      __HAL_RCC_PLLCLKOUT_ENABLE(RCC_PLL_DIVQ);
 8004440:	4b39      	ldr	r3, [pc, #228]	@ (8004528 <HAL_RCCEx_PeriphCLKConfig+0x41c>)
 8004442:	68da      	ldr	r2, [r3, #12]
 8004444:	4b38      	ldr	r3, [pc, #224]	@ (8004528 <HAL_RCCEx_PeriphCLKConfig+0x41c>)
 8004446:	2180      	movs	r1, #128	@ 0x80
 8004448:	0449      	lsls	r1, r1, #17
 800444a:	430a      	orrs	r2, r1
 800444c:	60da      	str	r2, [r3, #12]
    }
    /* Configure the USB clock source */
    __HAL_RCC_USB_CONFIG(PeriphClkInit->UsbClockSelection);
 800444e:	4a36      	ldr	r2, [pc, #216]	@ (8004528 <HAL_RCCEx_PeriphCLKConfig+0x41c>)
 8004450:	2388      	movs	r3, #136	@ 0x88
 8004452:	58d3      	ldr	r3, [r2, r3]
 8004454:	4a3e      	ldr	r2, [pc, #248]	@ (8004550 <HAL_RCCEx_PeriphCLKConfig+0x444>)
 8004456:	401a      	ands	r2, r3
 8004458:	687b      	ldr	r3, [r7, #4]
 800445a:	6b5b      	ldr	r3, [r3, #52]	@ 0x34
 800445c:	4932      	ldr	r1, [pc, #200]	@ (8004528 <HAL_RCCEx_PeriphCLKConfig+0x41c>)
 800445e:	4313      	orrs	r3, r2
 8004460:	2288      	movs	r2, #136	@ 0x88
 8004462:	508b      	str	r3, [r1, r2]

  }
#endif /* USB_DRD_FS */
  /*-------------------------- RNG clock source configuration ----------------*/
  if (((PeriphClkInit->PeriphClockSelection) & RCC_PERIPHCLK_RNG) == RCC_PERIPHCLK_RNG)
 8004464:	687b      	ldr	r3, [r7, #4]
 8004466:	681a      	ldr	r2, [r3, #0]
 8004468:	2380      	movs	r3, #128	@ 0x80
 800446a:	019b      	lsls	r3, r3, #6
 800446c:	4013      	ands	r3, r2
 800446e:	d017      	beq.n	80044a0 <HAL_RCCEx_PeriphCLKConfig+0x394>
  {
    /* Check the parameters */
    assert_param(IS_RCC_RNGCLKSOURCE(PeriphClkInit->RngClockSelection));
    if (PeriphClkInit->RngClockSelection == RCC_RNGCLKSOURCE_PLLQ)
 8004470:	687b      	ldr	r3, [r7, #4]
 8004472:	6b9a      	ldr	r2, [r3, #56]	@ 0x38
 8004474:	2380      	movs	r3, #128	@ 0x80
 8004476:	051b      	lsls	r3, r3, #20
 8004478:	429a      	cmp	r2, r3
 800447a:	d106      	bne.n	800448a <HAL_RCCEx_PeriphCLKConfig+0x37e>
    {
      __HAL_RCC_PLLCLKOUT_ENABLE(RCC_PLL_DIVQ);
 800447c:	4b2a      	ldr	r3, [pc, #168]	@ (8004528 <HAL_RCCEx_PeriphCLKConfig+0x41c>)
 800447e:	68da      	ldr	r2, [r3, #12]
 8004480:	4b29      	ldr	r3, [pc, #164]	@ (8004528 <HAL_RCCEx_PeriphCLKConfig+0x41c>)
 8004482:	2180      	movs	r1, #128	@ 0x80
 8004484:	0449      	lsls	r1, r1, #17
 8004486:	430a      	orrs	r2, r1
 8004488:	60da      	str	r2, [r3, #12]
    }
    /* Configure the RNG clock source */
    __HAL_RCC_RNG_CONFIG(PeriphClkInit->RngClockSelection);
 800448a:	4a27      	ldr	r2, [pc, #156]	@ (8004528 <HAL_RCCEx_PeriphCLKConfig+0x41c>)
 800448c:	2388      	movs	r3, #136	@ 0x88
 800448e:	58d3      	ldr	r3, [r2, r3]
 8004490:	4a2f      	ldr	r2, [pc, #188]	@ (8004550 <HAL_RCCEx_PeriphCLKConfig+0x444>)
 8004492:	401a      	ands	r2, r3
 8004494:	687b      	ldr	r3, [r7, #4]
 8004496:	6b9b      	ldr	r3, [r3, #56]	@ 0x38
 8004498:	4923      	ldr	r1, [pc, #140]	@ (8004528 <HAL_RCCEx_PeriphCLKConfig+0x41c>)
 800449a:	4313      	orrs	r3, r2
 800449c:	2288      	movs	r2, #136	@ 0x88
 800449e:	508b      	str	r3, [r1, r2]

  }
  /*-------------------------- TIM1 clock source configuration ----------------*/
  if (((PeriphClkInit->PeriphClockSelection) & RCC_PERIPHCLK_TIM1) == RCC_PERIPHCLK_TIM1)
 80044a0:	687b      	ldr	r3, [r7, #4]
 80044a2:	681a      	ldr	r2, [r3, #0]
 80044a4:	2380      	movs	r3, #128	@ 0x80
 80044a6:	00db      	lsls	r3, r3, #3
 80044a8:	4013      	ands	r3, r2
 80044aa:	d017      	beq.n	80044dc <HAL_RCCEx_PeriphCLKConfig+0x3d0>
  {

    /* Check the parameters */
    assert_param(IS_RCC_TIM1CLKSOURCE(PeriphClkInit->Tim1ClockSelection));
    if (PeriphClkInit->Tim1ClockSelection == RCC_TIM1CLKSOURCE_PLLQ)
 80044ac:	687b      	ldr	r3, [r7, #4]
 80044ae:	6ada      	ldr	r2, [r3, #44]	@ 0x2c
 80044b0:	2380      	movs	r3, #128	@ 0x80
 80044b2:	045b      	lsls	r3, r3, #17
 80044b4:	429a      	cmp	r2, r3
 80044b6:	d106      	bne.n	80044c6 <HAL_RCCEx_PeriphCLKConfig+0x3ba>
    {
      __HAL_RCC_PLLCLKOUT_ENABLE(RCC_PLL_DIVQ);
 80044b8:	4b1b      	ldr	r3, [pc, #108]	@ (8004528 <HAL_RCCEx_PeriphCLKConfig+0x41c>)
 80044ba:	68da      	ldr	r2, [r3, #12]
 80044bc:	4b1a      	ldr	r3, [pc, #104]	@ (8004528 <HAL_RCCEx_PeriphCLKConfig+0x41c>)
 80044be:	2180      	movs	r1, #128	@ 0x80
 80044c0:	0449      	lsls	r1, r1, #17
 80044c2:	430a      	orrs	r2, r1
 80044c4:	60da      	str	r2, [r3, #12]
    }
    /* Configure the TIM1 clock source */
    __HAL_RCC_TIM1_CONFIG(PeriphClkInit->Tim1ClockSelection);
 80044c6:	4a18      	ldr	r2, [pc, #96]	@ (8004528 <HAL_RCCEx_PeriphCLKConfig+0x41c>)
 80044c8:	2388      	movs	r3, #136	@ 0x88
 80044ca:	58d3      	ldr	r3, [r2, r3]
 80044cc:	4a21      	ldr	r2, [pc, #132]	@ (8004554 <HAL_RCCEx_PeriphCLKConfig+0x448>)
 80044ce:	401a      	ands	r2, r3
 80044d0:	687b      	ldr	r3, [r7, #4]
 80044d2:	6adb      	ldr	r3, [r3, #44]	@ 0x2c
 80044d4:	4914      	ldr	r1, [pc, #80]	@ (8004528 <HAL_RCCEx_PeriphCLKConfig+0x41c>)
 80044d6:	4313      	orrs	r3, r2
 80044d8:	2288      	movs	r2, #136	@ 0x88
 80044da:	508b      	str	r3, [r1, r2]

  }
  /*-------------------------- TIM15 clock source configuration ----------------*/
  if (((PeriphClkInit->PeriphClockSelection) & RCC_PERIPHCLK_TIM15) == RCC_PERIPHCLK_TIM15)
 80044dc:	687b      	ldr	r3, [r7, #4]
 80044de:	681a      	ldr	r2, [r3, #0]
 80044e0:	2380      	movs	r3, #128	@ 0x80
 80044e2:	011b      	lsls	r3, r3, #4
 80044e4:	4013      	ands	r3, r2
 80044e6:	d017      	beq.n	8004518 <HAL_RCCEx_PeriphCLKConfig+0x40c>
  {
    /* Check the parameters */
    assert_param(IS_RCC_TIM15CLKSOURCE(PeriphClkInit->Tim15ClockSelection));
    if (PeriphClkInit->Tim15ClockSelection == RCC_TIM15CLKSOURCE_PLLQ)
 80044e8:	687b      	ldr	r3, [r7, #4]
 80044ea:	6b1a      	ldr	r2, [r3, #48]	@ 0x30
 80044ec:	2380      	movs	r3, #128	@ 0x80
 80044ee:	049b      	lsls	r3, r3, #18
 80044f0:	429a      	cmp	r2, r3
 80044f2:	d106      	bne.n	8004502 <HAL_RCCEx_PeriphCLKConfig+0x3f6>
    {
      __HAL_RCC_PLLCLKOUT_ENABLE(RCC_PLL_DIVQ);
 80044f4:	4b0c      	ldr	r3, [pc, #48]	@ (8004528 <HAL_RCCEx_PeriphCLKConfig+0x41c>)
 80044f6:	68da      	ldr	r2, [r3, #12]
 80044f8:	4b0b      	ldr	r3, [pc, #44]	@ (8004528 <HAL_RCCEx_PeriphCLKConfig+0x41c>)
 80044fa:	2180      	movs	r1, #128	@ 0x80
 80044fc:	0449      	lsls	r1, r1, #17
 80044fe:	430a      	orrs	r2, r1
 8004500:	60da      	str	r2, [r3, #12]
    }
    /* Configure the TIM1 clock source */
    __HAL_RCC_TIM15_CONFIG(PeriphClkInit->Tim15ClockSelection);
 8004502:	4a09      	ldr	r2, [pc, #36]	@ (8004528 <HAL_RCCEx_PeriphCLKConfig+0x41c>)
 8004504:	2388      	movs	r3, #136	@ 0x88
 8004506:	58d3      	ldr	r3, [r2, r3]
 8004508:	4a12      	ldr	r2, [pc, #72]	@ (8004554 <HAL_RCCEx_PeriphCLKConfig+0x448>)
 800450a:	401a      	ands	r2, r3
 800450c:	687b      	ldr	r3, [r7, #4]
 800450e:	6b1b      	ldr	r3, [r3, #48]	@ 0x30
 8004510:	4905      	ldr	r1, [pc, #20]	@ (8004528 <HAL_RCCEx_PeriphCLKConfig+0x41c>)
 8004512:	4313      	orrs	r3, r2
 8004514:	2288      	movs	r2, #136	@ 0x88
 8004516:	508b      	str	r3, [r1, r2]

  }

  return status;
 8004518:	2312      	movs	r3, #18
 800451a:	18fb      	adds	r3, r7, r3
 800451c:	781b      	ldrb	r3, [r3, #0]
}
 800451e:	0018      	movs	r0, r3
 8004520:	46bd      	mov	sp, r7
 8004522:	b006      	add	sp, #24
 8004524:	bd80      	pop	{r7, pc}
 8004526:	46c0      	nop			@ (mov r8, r8)
 8004528:	40021000 	.word	0x40021000
 800452c:	efffffff 	.word	0xefffffff
 8004530:	fffff3ff 	.word	0xfffff3ff
 8004534:	fffffcff 	.word	0xfffffcff
 8004538:	ffffcfff 	.word	0xffffcfff
 800453c:	fffcffff 	.word	0xfffcffff
 8004540:	fff3ffff 	.word	0xfff3ffff
 8004544:	ffcfffff 	.word	0xffcfffff
 8004548:	ff3fffff 	.word	0xff3fffff
 800454c:	cfffffff 	.word	0xcfffffff
 8004550:	f3ffffff 	.word	0xf3ffffff
 8004554:	feffffff 	.word	0xfeffffff

08004558 <HAL_RCCEx_GetPeriphCLKFreq>:
  *            @arg @ref RCC_PERIPHCLK_TIM1  TIM1 peripheral clock (only for devices with TIM1)
  *            @arg @ref RCC_PERIPHCLK_TIM15  TIM15 peripheral clock (only for devices with TIM15)
  * @retval Frequency in Hz
  */
uint32_t HAL_RCCEx_GetPeriphCLKFreq(uint32_t PeriphClk)
{
 8004558:	b590      	push	{r4, r7, lr}
 800455a:	b089      	sub	sp, #36	@ 0x24
 800455c:	af00      	add	r7, sp, #0
 800455e:	6078      	str	r0, [r7, #4]
  uint32_t frequency = 0U;
 8004560:	2300      	movs	r3, #0
 8004562:	61fb      	str	r3, [r7, #28]
  PLL_ClocksTypeDef pll_freq;
  uint32_t msirange;
  /* Check the parameters */
  assert_param(IS_RCC_PERIPHCLOCK(PeriphClk));

  if (PeriphClk == RCC_PERIPHCLK_RTC)
 8004564:	687a      	ldr	r2, [r7, #4]
 8004566:	2380      	movs	r3, #128	@ 0x80
 8004568:	021b      	lsls	r3, r3, #8
 800456a:	429a      	cmp	r2, r3
 800456c:	d154      	bne.n	8004618 <HAL_RCCEx_GetPeriphCLKFreq+0xc0>
  {
    /* Get the current RCC_PERIPHCLK_RTC source */
    srcclk = __HAL_RCC_GET_RTC_SOURCE();
 800456e:	4ad5      	ldr	r2, [pc, #852]	@ (80048c4 <HAL_RCCEx_GetPeriphCLKFreq+0x36c>)
 8004570:	2390      	movs	r3, #144	@ 0x90
 8004572:	58d2      	ldr	r2, [r2, r3]
 8004574:	23c0      	movs	r3, #192	@ 0xc0
 8004576:	009b      	lsls	r3, r3, #2
 8004578:	4013      	ands	r3, r2
 800457a:	617b      	str	r3, [r7, #20]

    switch (srcclk)
 800457c:	697a      	ldr	r2, [r7, #20]
 800457e:	23c0      	movs	r3, #192	@ 0xc0
 8004580:	009b      	lsls	r3, r3, #2
 8004582:	429a      	cmp	r2, r3
 8004584:	d039      	beq.n	80045fa <HAL_RCCEx_GetPeriphCLKFreq+0xa2>
 8004586:	697a      	ldr	r2, [r7, #20]
 8004588:	23c0      	movs	r3, #192	@ 0xc0
 800458a:	009b      	lsls	r3, r3, #2
 800458c:	429a      	cmp	r2, r3
 800458e:	d901      	bls.n	8004594 <HAL_RCCEx_GetPeriphCLKFreq+0x3c>
 8004590:	f000 fd1a 	bl	8004fc8 <HAL_RCCEx_GetPeriphCLKFreq+0xa70>
 8004594:	697a      	ldr	r2, [r7, #20]
 8004596:	2380      	movs	r3, #128	@ 0x80
 8004598:	005b      	lsls	r3, r3, #1
 800459a:	429a      	cmp	r2, r3
 800459c:	d006      	beq.n	80045ac <HAL_RCCEx_GetPeriphCLKFreq+0x54>
 800459e:	697a      	ldr	r2, [r7, #20]
 80045a0:	2380      	movs	r3, #128	@ 0x80
 80045a2:	009b      	lsls	r3, r3, #2
 80045a4:	429a      	cmp	r2, r3
 80045a6:	d00f      	beq.n	80045c8 <HAL_RCCEx_GetPeriphCLKFreq+0x70>
          frequency = HSE_VALUE / 32U;
        }
        break;
      default:
        /* No clock source, frequency default init at 0 */
        break;
 80045a8:	f000 fd0e 	bl	8004fc8 <HAL_RCCEx_GetPeriphCLKFreq+0xa70>
        if (HAL_IS_BIT_SET(RCC->BDCR, RCC_BDCR_LSERDY))
 80045ac:	4ac5      	ldr	r2, [pc, #788]	@ (80048c4 <HAL_RCCEx_GetPeriphCLKFreq+0x36c>)
 80045ae:	2390      	movs	r3, #144	@ 0x90
 80045b0:	58d3      	ldr	r3, [r2, r3]
 80045b2:	2202      	movs	r2, #2
 80045b4:	4013      	ands	r3, r2
 80045b6:	2b02      	cmp	r3, #2
 80045b8:	d001      	beq.n	80045be <HAL_RCCEx_GetPeriphCLKFreq+0x66>
 80045ba:	f000 fd07 	bl	8004fcc <HAL_RCCEx_GetPeriphCLKFreq+0xa74>
          frequency = LSE_VALUE;
 80045be:	2380      	movs	r3, #128	@ 0x80
 80045c0:	021b      	lsls	r3, r3, #8
 80045c2:	61fb      	str	r3, [r7, #28]
        break;
 80045c4:	f000 fd02 	bl	8004fcc <HAL_RCCEx_GetPeriphCLKFreq+0xa74>
        if (HAL_IS_BIT_SET(RCC->CSR, RCC_CSR_LSIRDY))
 80045c8:	4abe      	ldr	r2, [pc, #760]	@ (80048c4 <HAL_RCCEx_GetPeriphCLKFreq+0x36c>)
 80045ca:	2394      	movs	r3, #148	@ 0x94
 80045cc:	58d3      	ldr	r3, [r2, r3]
 80045ce:	2202      	movs	r2, #2
 80045d0:	4013      	ands	r3, r2
 80045d2:	2b02      	cmp	r3, #2
 80045d4:	d001      	beq.n	80045da <HAL_RCCEx_GetPeriphCLKFreq+0x82>
 80045d6:	f000 fcfb 	bl	8004fd0 <HAL_RCCEx_GetPeriphCLKFreq+0xa78>
          if (HAL_IS_BIT_SET(RCC->CSR, RCC_CSR_LSIPREDIV))
 80045da:	4aba      	ldr	r2, [pc, #744]	@ (80048c4 <HAL_RCCEx_GetPeriphCLKFreq+0x36c>)
 80045dc:	2394      	movs	r3, #148	@ 0x94
 80045de:	58d3      	ldr	r3, [r2, r3]
 80045e0:	2204      	movs	r2, #4
 80045e2:	4013      	ands	r3, r2
 80045e4:	2b04      	cmp	r3, #4
 80045e6:	d103      	bne.n	80045f0 <HAL_RCCEx_GetPeriphCLKFreq+0x98>
            frequency = LSI_VALUE / 128U;
 80045e8:	23fa      	movs	r3, #250	@ 0xfa
 80045ea:	61fb      	str	r3, [r7, #28]
        break;
 80045ec:	f000 fcf0 	bl	8004fd0 <HAL_RCCEx_GetPeriphCLKFreq+0xa78>
            frequency = LSI_VALUE;
 80045f0:	23fa      	movs	r3, #250	@ 0xfa
 80045f2:	01db      	lsls	r3, r3, #7
 80045f4:	61fb      	str	r3, [r7, #28]
        break;
 80045f6:	f000 fceb 	bl	8004fd0 <HAL_RCCEx_GetPeriphCLKFreq+0xa78>
        if (HAL_IS_BIT_SET(RCC->CR, RCC_CR_HSERDY))
 80045fa:	4bb2      	ldr	r3, [pc, #712]	@ (80048c4 <HAL_RCCEx_GetPeriphCLKFreq+0x36c>)
 80045fc:	681a      	ldr	r2, [r3, #0]
 80045fe:	2380      	movs	r3, #128	@ 0x80
 8004600:	029b      	lsls	r3, r3, #10
 8004602:	401a      	ands	r2, r3
 8004604:	2380      	movs	r3, #128	@ 0x80
 8004606:	029b      	lsls	r3, r3, #10
 8004608:	429a      	cmp	r2, r3
 800460a:	d001      	beq.n	8004610 <HAL_RCCEx_GetPeriphCLKFreq+0xb8>
 800460c:	f000 fce2 	bl	8004fd4 <HAL_RCCEx_GetPeriphCLKFreq+0xa7c>
          frequency = HSE_VALUE / 32U;
 8004610:	4bad      	ldr	r3, [pc, #692]	@ (80048c8 <HAL_RCCEx_GetPeriphCLKFreq+0x370>)
 8004612:	61fb      	str	r3, [r7, #28]
        break;
 8004614:	f000 fcde 	bl	8004fd4 <HAL_RCCEx_GetPeriphCLKFreq+0xa7c>
    }
  }
  else
  {
    /* Other external peripheral clock source than RTC */
    switch (PeriphClk)
 8004618:	687a      	ldr	r2, [r7, #4]
 800461a:	2380      	movs	r3, #128	@ 0x80
 800461c:	029b      	lsls	r3, r3, #10
 800461e:	429a      	cmp	r2, r3
 8004620:	d100      	bne.n	8004624 <HAL_RCCEx_GetPeriphCLKFreq+0xcc>
 8004622:	e11a      	b.n	800485a <HAL_RCCEx_GetPeriphCLKFreq+0x302>
 8004624:	687a      	ldr	r2, [r7, #4]
 8004626:	2380      	movs	r3, #128	@ 0x80
 8004628:	029b      	lsls	r3, r3, #10
 800462a:	429a      	cmp	r2, r3
 800462c:	d901      	bls.n	8004632 <HAL_RCCEx_GetPeriphCLKFreq+0xda>
 800462e:	f000 fcd3 	bl	8004fd8 <HAL_RCCEx_GetPeriphCLKFreq+0xa80>
 8004632:	687a      	ldr	r2, [r7, #4]
 8004634:	2380      	movs	r3, #128	@ 0x80
 8004636:	025b      	lsls	r3, r3, #9
 8004638:	429a      	cmp	r2, r3
 800463a:	d100      	bne.n	800463e <HAL_RCCEx_GetPeriphCLKFreq+0xe6>
 800463c:	e10d      	b.n	800485a <HAL_RCCEx_GetPeriphCLKFreq+0x302>
 800463e:	687a      	ldr	r2, [r7, #4]
 8004640:	2380      	movs	r3, #128	@ 0x80
 8004642:	025b      	lsls	r3, r3, #9
 8004644:	429a      	cmp	r2, r3
 8004646:	d901      	bls.n	800464c <HAL_RCCEx_GetPeriphCLKFreq+0xf4>
 8004648:	f000 fcc6 	bl	8004fd8 <HAL_RCCEx_GetPeriphCLKFreq+0xa80>
 800464c:	687a      	ldr	r2, [r7, #4]
 800464e:	2380      	movs	r3, #128	@ 0x80
 8004650:	01db      	lsls	r3, r3, #7
 8004652:	429a      	cmp	r2, r3
 8004654:	d100      	bne.n	8004658 <HAL_RCCEx_GetPeriphCLKFreq+0x100>
 8004656:	e1eb      	b.n	8004a30 <HAL_RCCEx_GetPeriphCLKFreq+0x4d8>
 8004658:	687a      	ldr	r2, [r7, #4]
 800465a:	2380      	movs	r3, #128	@ 0x80
 800465c:	01db      	lsls	r3, r3, #7
 800465e:	429a      	cmp	r2, r3
 8004660:	d901      	bls.n	8004666 <HAL_RCCEx_GetPeriphCLKFreq+0x10e>
 8004662:	f000 fcb9 	bl	8004fd8 <HAL_RCCEx_GetPeriphCLKFreq+0xa80>
 8004666:	687a      	ldr	r2, [r7, #4]
 8004668:	2380      	movs	r3, #128	@ 0x80
 800466a:	019b      	lsls	r3, r3, #6
 800466c:	429a      	cmp	r2, r3
 800466e:	d101      	bne.n	8004674 <HAL_RCCEx_GetPeriphCLKFreq+0x11c>
 8004670:	f000 fc50 	bl	8004f14 <HAL_RCCEx_GetPeriphCLKFreq+0x9bc>
 8004674:	687a      	ldr	r2, [r7, #4]
 8004676:	2380      	movs	r3, #128	@ 0x80
 8004678:	019b      	lsls	r3, r3, #6
 800467a:	429a      	cmp	r2, r3
 800467c:	d901      	bls.n	8004682 <HAL_RCCEx_GetPeriphCLKFreq+0x12a>
 800467e:	f000 fcab 	bl	8004fd8 <HAL_RCCEx_GetPeriphCLKFreq+0xa80>
 8004682:	687a      	ldr	r2, [r7, #4]
 8004684:	2380      	movs	r3, #128	@ 0x80
 8004686:	015b      	lsls	r3, r3, #5
 8004688:	429a      	cmp	r2, r3
 800468a:	d101      	bne.n	8004690 <HAL_RCCEx_GetPeriphCLKFreq+0x138>
 800468c:	f000 fbe2 	bl	8004e54 <HAL_RCCEx_GetPeriphCLKFreq+0x8fc>
 8004690:	687a      	ldr	r2, [r7, #4]
 8004692:	2380      	movs	r3, #128	@ 0x80
 8004694:	015b      	lsls	r3, r3, #5
 8004696:	429a      	cmp	r2, r3
 8004698:	d901      	bls.n	800469e <HAL_RCCEx_GetPeriphCLKFreq+0x146>
 800469a:	f000 fc9d 	bl	8004fd8 <HAL_RCCEx_GetPeriphCLKFreq+0xa80>
 800469e:	687a      	ldr	r2, [r7, #4]
 80046a0:	2380      	movs	r3, #128	@ 0x80
 80046a2:	011b      	lsls	r3, r3, #4
 80046a4:	429a      	cmp	r2, r3
 80046a6:	d101      	bne.n	80046ac <HAL_RCCEx_GetPeriphCLKFreq+0x154>
 80046a8:	f000 fba9 	bl	8004dfe <HAL_RCCEx_GetPeriphCLKFreq+0x8a6>
 80046ac:	687a      	ldr	r2, [r7, #4]
 80046ae:	2380      	movs	r3, #128	@ 0x80
 80046b0:	011b      	lsls	r3, r3, #4
 80046b2:	429a      	cmp	r2, r3
 80046b4:	d901      	bls.n	80046ba <HAL_RCCEx_GetPeriphCLKFreq+0x162>
 80046b6:	f000 fc8f 	bl	8004fd8 <HAL_RCCEx_GetPeriphCLKFreq+0xa80>
 80046ba:	687a      	ldr	r2, [r7, #4]
 80046bc:	2380      	movs	r3, #128	@ 0x80
 80046be:	00db      	lsls	r3, r3, #3
 80046c0:	429a      	cmp	r2, r3
 80046c2:	d101      	bne.n	80046c8 <HAL_RCCEx_GetPeriphCLKFreq+0x170>
 80046c4:	f000 fb70 	bl	8004da8 <HAL_RCCEx_GetPeriphCLKFreq+0x850>
 80046c8:	687a      	ldr	r2, [r7, #4]
 80046ca:	2380      	movs	r3, #128	@ 0x80
 80046cc:	00db      	lsls	r3, r3, #3
 80046ce:	429a      	cmp	r2, r3
 80046d0:	d901      	bls.n	80046d6 <HAL_RCCEx_GetPeriphCLKFreq+0x17e>
 80046d2:	f000 fc81 	bl	8004fd8 <HAL_RCCEx_GetPeriphCLKFreq+0xa80>
 80046d6:	687a      	ldr	r2, [r7, #4]
 80046d8:	2380      	movs	r3, #128	@ 0x80
 80046da:	009b      	lsls	r3, r3, #2
 80046dc:	429a      	cmp	r2, r3
 80046de:	d100      	bne.n	80046e2 <HAL_RCCEx_GetPeriphCLKFreq+0x18a>
 80046e0:	e305      	b.n	8004cee <HAL_RCCEx_GetPeriphCLKFreq+0x796>
 80046e2:	687a      	ldr	r2, [r7, #4]
 80046e4:	2380      	movs	r3, #128	@ 0x80
 80046e6:	009b      	lsls	r3, r3, #2
 80046e8:	429a      	cmp	r2, r3
 80046ea:	d901      	bls.n	80046f0 <HAL_RCCEx_GetPeriphCLKFreq+0x198>
 80046ec:	f000 fc74 	bl	8004fd8 <HAL_RCCEx_GetPeriphCLKFreq+0xa80>
 80046f0:	687a      	ldr	r2, [r7, #4]
 80046f2:	2380      	movs	r3, #128	@ 0x80
 80046f4:	005b      	lsls	r3, r3, #1
 80046f6:	429a      	cmp	r2, r3
 80046f8:	d100      	bne.n	80046fc <HAL_RCCEx_GetPeriphCLKFreq+0x1a4>
 80046fa:	e29b      	b.n	8004c34 <HAL_RCCEx_GetPeriphCLKFreq+0x6dc>
 80046fc:	687a      	ldr	r2, [r7, #4]
 80046fe:	2380      	movs	r3, #128	@ 0x80
 8004700:	005b      	lsls	r3, r3, #1
 8004702:	429a      	cmp	r2, r3
 8004704:	d901      	bls.n	800470a <HAL_RCCEx_GetPeriphCLKFreq+0x1b2>
 8004706:	f000 fc67 	bl	8004fd8 <HAL_RCCEx_GetPeriphCLKFreq+0xa80>
 800470a:	687b      	ldr	r3, [r7, #4]
 800470c:	2b80      	cmp	r3, #128	@ 0x80
 800470e:	d100      	bne.n	8004712 <HAL_RCCEx_GetPeriphCLKFreq+0x1ba>
 8004710:	e22f      	b.n	8004b72 <HAL_RCCEx_GetPeriphCLKFreq+0x61a>
 8004712:	687b      	ldr	r3, [r7, #4]
 8004714:	2b80      	cmp	r3, #128	@ 0x80
 8004716:	d901      	bls.n	800471c <HAL_RCCEx_GetPeriphCLKFreq+0x1c4>
 8004718:	f000 fc5e 	bl	8004fd8 <HAL_RCCEx_GetPeriphCLKFreq+0xa80>
 800471c:	687b      	ldr	r3, [r7, #4]
 800471e:	2b20      	cmp	r3, #32
 8004720:	d80f      	bhi.n	8004742 <HAL_RCCEx_GetPeriphCLKFreq+0x1ea>
 8004722:	687b      	ldr	r3, [r7, #4]
 8004724:	2b00      	cmp	r3, #0
 8004726:	d101      	bne.n	800472c <HAL_RCCEx_GetPeriphCLKFreq+0x1d4>
 8004728:	f000 fc56 	bl	8004fd8 <HAL_RCCEx_GetPeriphCLKFreq+0xa80>
 800472c:	687b      	ldr	r3, [r7, #4]
 800472e:	2b20      	cmp	r3, #32
 8004730:	d901      	bls.n	8004736 <HAL_RCCEx_GetPeriphCLKFreq+0x1de>
 8004732:	f000 fc51 	bl	8004fd8 <HAL_RCCEx_GetPeriphCLKFreq+0xa80>
 8004736:	687b      	ldr	r3, [r7, #4]
 8004738:	009a      	lsls	r2, r3, #2
 800473a:	4b64      	ldr	r3, [pc, #400]	@ (80048cc <HAL_RCCEx_GetPeriphCLKFreq+0x374>)
 800473c:	18d3      	adds	r3, r2, r3
 800473e:	681b      	ldr	r3, [r3, #0]
 8004740:	469f      	mov	pc, r3
 8004742:	687b      	ldr	r3, [r7, #4]
 8004744:	2b40      	cmp	r3, #64	@ 0x40
 8004746:	d100      	bne.n	800474a <HAL_RCCEx_GetPeriphCLKFreq+0x1f2>
 8004748:	e1df      	b.n	8004b0a <HAL_RCCEx_GetPeriphCLKFreq+0x5b2>
            break;
        }
        break;
      }
      default:
        break;
 800474a:	f000 fc45 	bl	8004fd8 <HAL_RCCEx_GetPeriphCLKFreq+0xa80>
        srcclk = __HAL_RCC_GET_USART1_SOURCE();
 800474e:	4a5d      	ldr	r2, [pc, #372]	@ (80048c4 <HAL_RCCEx_GetPeriphCLKFreq+0x36c>)
 8004750:	2388      	movs	r3, #136	@ 0x88
 8004752:	58d3      	ldr	r3, [r2, r3]
 8004754:	2203      	movs	r2, #3
 8004756:	4013      	ands	r3, r2
 8004758:	617b      	str	r3, [r7, #20]
        switch (srcclk)
 800475a:	697b      	ldr	r3, [r7, #20]
 800475c:	2b03      	cmp	r3, #3
 800475e:	d025      	beq.n	80047ac <HAL_RCCEx_GetPeriphCLKFreq+0x254>
 8004760:	697b      	ldr	r3, [r7, #20]
 8004762:	2b03      	cmp	r3, #3
 8004764:	d82d      	bhi.n	80047c2 <HAL_RCCEx_GetPeriphCLKFreq+0x26a>
 8004766:	697b      	ldr	r3, [r7, #20]
 8004768:	2b02      	cmp	r3, #2
 800476a:	d013      	beq.n	8004794 <HAL_RCCEx_GetPeriphCLKFreq+0x23c>
 800476c:	697b      	ldr	r3, [r7, #20]
 800476e:	2b02      	cmp	r3, #2
 8004770:	d827      	bhi.n	80047c2 <HAL_RCCEx_GetPeriphCLKFreq+0x26a>
 8004772:	697b      	ldr	r3, [r7, #20]
 8004774:	2b00      	cmp	r3, #0
 8004776:	d003      	beq.n	8004780 <HAL_RCCEx_GetPeriphCLKFreq+0x228>
 8004778:	697b      	ldr	r3, [r7, #20]
 800477a:	2b01      	cmp	r3, #1
 800477c:	d005      	beq.n	800478a <HAL_RCCEx_GetPeriphCLKFreq+0x232>
            break;
 800477e:	e020      	b.n	80047c2 <HAL_RCCEx_GetPeriphCLKFreq+0x26a>
            frequency = HAL_RCC_GetPCLK1Freq();
 8004780:	f7ff fc40 	bl	8004004 <HAL_RCC_GetPCLK1Freq>
 8004784:	0003      	movs	r3, r0
 8004786:	61fb      	str	r3, [r7, #28]
            break;
 8004788:	e022      	b.n	80047d0 <HAL_RCCEx_GetPeriphCLKFreq+0x278>
            frequency = HAL_RCC_GetSysClockFreq();
 800478a:	f7ff fb95 	bl	8003eb8 <HAL_RCC_GetSysClockFreq>
 800478e:	0003      	movs	r3, r0
 8004790:	61fb      	str	r3, [r7, #28]
            break;
 8004792:	e01d      	b.n	80047d0 <HAL_RCCEx_GetPeriphCLKFreq+0x278>
            if (HAL_IS_BIT_SET(RCC->CR, RCC_CR_HSIRDY))
 8004794:	4b4b      	ldr	r3, [pc, #300]	@ (80048c4 <HAL_RCCEx_GetPeriphCLKFreq+0x36c>)
 8004796:	681a      	ldr	r2, [r3, #0]
 8004798:	2380      	movs	r3, #128	@ 0x80
 800479a:	00db      	lsls	r3, r3, #3
 800479c:	401a      	ands	r2, r3
 800479e:	2380      	movs	r3, #128	@ 0x80
 80047a0:	00db      	lsls	r3, r3, #3
 80047a2:	429a      	cmp	r2, r3
 80047a4:	d110      	bne.n	80047c8 <HAL_RCCEx_GetPeriphCLKFreq+0x270>
              frequency = HSI_VALUE;
 80047a6:	4b4a      	ldr	r3, [pc, #296]	@ (80048d0 <HAL_RCCEx_GetPeriphCLKFreq+0x378>)
 80047a8:	61fb      	str	r3, [r7, #28]
            break;
 80047aa:	e00d      	b.n	80047c8 <HAL_RCCEx_GetPeriphCLKFreq+0x270>
            if (HAL_IS_BIT_SET(RCC->BDCR, RCC_BDCR_LSERDY))
 80047ac:	4a45      	ldr	r2, [pc, #276]	@ (80048c4 <HAL_RCCEx_GetPeriphCLKFreq+0x36c>)
 80047ae:	2390      	movs	r3, #144	@ 0x90
 80047b0:	58d3      	ldr	r3, [r2, r3]
 80047b2:	2202      	movs	r2, #2
 80047b4:	4013      	ands	r3, r2
 80047b6:	2b02      	cmp	r3, #2
 80047b8:	d109      	bne.n	80047ce <HAL_RCCEx_GetPeriphCLKFreq+0x276>
              frequency = LSE_VALUE;
 80047ba:	2380      	movs	r3, #128	@ 0x80
 80047bc:	021b      	lsls	r3, r3, #8
 80047be:	61fb      	str	r3, [r7, #28]
            break;
 80047c0:	e005      	b.n	80047ce <HAL_RCCEx_GetPeriphCLKFreq+0x276>
            break;
 80047c2:	46c0      	nop			@ (mov r8, r8)
 80047c4:	f000 fc09 	bl	8004fda <HAL_RCCEx_GetPeriphCLKFreq+0xa82>
            break;
 80047c8:	46c0      	nop			@ (mov r8, r8)
 80047ca:	f000 fc06 	bl	8004fda <HAL_RCCEx_GetPeriphCLKFreq+0xa82>
            break;
 80047ce:	46c0      	nop			@ (mov r8, r8)
        break;
 80047d0:	f000 fc03 	bl	8004fda <HAL_RCCEx_GetPeriphCLKFreq+0xa82>
        srcclk = __HAL_RCC_GET_USART2_SOURCE();
 80047d4:	4a3b      	ldr	r2, [pc, #236]	@ (80048c4 <HAL_RCCEx_GetPeriphCLKFreq+0x36c>)
 80047d6:	2388      	movs	r3, #136	@ 0x88
 80047d8:	58d3      	ldr	r3, [r2, r3]
 80047da:	220c      	movs	r2, #12
 80047dc:	4013      	ands	r3, r2
 80047de:	617b      	str	r3, [r7, #20]
        switch (srcclk)
 80047e0:	697b      	ldr	r3, [r7, #20]
 80047e2:	2b0c      	cmp	r3, #12
 80047e4:	d025      	beq.n	8004832 <HAL_RCCEx_GetPeriphCLKFreq+0x2da>
 80047e6:	697b      	ldr	r3, [r7, #20]
 80047e8:	2b0c      	cmp	r3, #12
 80047ea:	d82d      	bhi.n	8004848 <HAL_RCCEx_GetPeriphCLKFreq+0x2f0>
 80047ec:	697b      	ldr	r3, [r7, #20]
 80047ee:	2b08      	cmp	r3, #8
 80047f0:	d013      	beq.n	800481a <HAL_RCCEx_GetPeriphCLKFreq+0x2c2>
 80047f2:	697b      	ldr	r3, [r7, #20]
 80047f4:	2b08      	cmp	r3, #8
 80047f6:	d827      	bhi.n	8004848 <HAL_RCCEx_GetPeriphCLKFreq+0x2f0>
 80047f8:	697b      	ldr	r3, [r7, #20]
 80047fa:	2b00      	cmp	r3, #0
 80047fc:	d003      	beq.n	8004806 <HAL_RCCEx_GetPeriphCLKFreq+0x2ae>
 80047fe:	697b      	ldr	r3, [r7, #20]
 8004800:	2b04      	cmp	r3, #4
 8004802:	d005      	beq.n	8004810 <HAL_RCCEx_GetPeriphCLKFreq+0x2b8>
            break;
 8004804:	e020      	b.n	8004848 <HAL_RCCEx_GetPeriphCLKFreq+0x2f0>
            frequency = HAL_RCC_GetPCLK1Freq();
 8004806:	f7ff fbfd 	bl	8004004 <HAL_RCC_GetPCLK1Freq>
 800480a:	0003      	movs	r3, r0
 800480c:	61fb      	str	r3, [r7, #28]
            break;
 800480e:	e022      	b.n	8004856 <HAL_RCCEx_GetPeriphCLKFreq+0x2fe>
            frequency = HAL_RCC_GetSysClockFreq();
 8004810:	f7ff fb52 	bl	8003eb8 <HAL_RCC_GetSysClockFreq>
 8004814:	0003      	movs	r3, r0
 8004816:	61fb      	str	r3, [r7, #28]
            break;
 8004818:	e01d      	b.n	8004856 <HAL_RCCEx_GetPeriphCLKFreq+0x2fe>
            if (HAL_IS_BIT_SET(RCC->CR, RCC_CR_HSIRDY))
 800481a:	4b2a      	ldr	r3, [pc, #168]	@ (80048c4 <HAL_RCCEx_GetPeriphCLKFreq+0x36c>)
 800481c:	681a      	ldr	r2, [r3, #0]
 800481e:	2380      	movs	r3, #128	@ 0x80
 8004820:	00db      	lsls	r3, r3, #3
 8004822:	401a      	ands	r2, r3
 8004824:	2380      	movs	r3, #128	@ 0x80
 8004826:	00db      	lsls	r3, r3, #3
 8004828:	429a      	cmp	r2, r3
 800482a:	d110      	bne.n	800484e <HAL_RCCEx_GetPeriphCLKFreq+0x2f6>
              frequency = HSI_VALUE;
 800482c:	4b28      	ldr	r3, [pc, #160]	@ (80048d0 <HAL_RCCEx_GetPeriphCLKFreq+0x378>)
 800482e:	61fb      	str	r3, [r7, #28]
            break;
 8004830:	e00d      	b.n	800484e <HAL_RCCEx_GetPeriphCLKFreq+0x2f6>
            if (HAL_IS_BIT_SET(RCC->BDCR, RCC_BDCR_LSERDY))
 8004832:	4a24      	ldr	r2, [pc, #144]	@ (80048c4 <HAL_RCCEx_GetPeriphCLKFreq+0x36c>)
 8004834:	2390      	movs	r3, #144	@ 0x90
 8004836:	58d3      	ldr	r3, [r2, r3]
 8004838:	2202      	movs	r2, #2
 800483a:	4013      	ands	r3, r2
 800483c:	2b02      	cmp	r3, #2
 800483e:	d109      	bne.n	8004854 <HAL_RCCEx_GetPeriphCLKFreq+0x2fc>
              frequency = LSE_VALUE;
 8004840:	2380      	movs	r3, #128	@ 0x80
 8004842:	021b      	lsls	r3, r3, #8
 8004844:	61fb      	str	r3, [r7, #28]
            break;
 8004846:	e005      	b.n	8004854 <HAL_RCCEx_GetPeriphCLKFreq+0x2fc>
            break;
 8004848:	46c0      	nop			@ (mov r8, r8)
 800484a:	f000 fbc6 	bl	8004fda <HAL_RCCEx_GetPeriphCLKFreq+0xa82>
            break;
 800484e:	46c0      	nop			@ (mov r8, r8)
 8004850:	f000 fbc3 	bl	8004fda <HAL_RCCEx_GetPeriphCLKFreq+0xa82>
            break;
 8004854:	46c0      	nop			@ (mov r8, r8)
        break;
 8004856:	f000 fbc0 	bl	8004fda <HAL_RCCEx_GetPeriphCLKFreq+0xa82>
        frequency = HAL_RCC_GetPCLK1Freq();
 800485a:	f7ff fbd3 	bl	8004004 <HAL_RCC_GetPCLK1Freq>
 800485e:	0003      	movs	r3, r0
 8004860:	61fb      	str	r3, [r7, #28]
        break;
 8004862:	f000 fbba 	bl	8004fda <HAL_RCCEx_GetPeriphCLKFreq+0xa82>
        srcclk = __HAL_RCC_GET_LPUART1_SOURCE();
 8004866:	4a17      	ldr	r2, [pc, #92]	@ (80048c4 <HAL_RCCEx_GetPeriphCLKFreq+0x36c>)
 8004868:	2388      	movs	r3, #136	@ 0x88
 800486a:	58d2      	ldr	r2, [r2, r3]
 800486c:	23c0      	movs	r3, #192	@ 0xc0
 800486e:	011b      	lsls	r3, r3, #4
 8004870:	4013      	ands	r3, r2
 8004872:	617b      	str	r3, [r7, #20]
        switch (srcclk)
 8004874:	697a      	ldr	r2, [r7, #20]
 8004876:	23c0      	movs	r3, #192	@ 0xc0
 8004878:	011b      	lsls	r3, r3, #4
 800487a:	429a      	cmp	r2, r3
 800487c:	d036      	beq.n	80048ec <HAL_RCCEx_GetPeriphCLKFreq+0x394>
 800487e:	697a      	ldr	r2, [r7, #20]
 8004880:	23c0      	movs	r3, #192	@ 0xc0
 8004882:	011b      	lsls	r3, r3, #4
 8004884:	429a      	cmp	r2, r3
 8004886:	d83c      	bhi.n	8004902 <HAL_RCCEx_GetPeriphCLKFreq+0x3aa>
 8004888:	697a      	ldr	r2, [r7, #20]
 800488a:	2380      	movs	r3, #128	@ 0x80
 800488c:	011b      	lsls	r3, r3, #4
 800488e:	429a      	cmp	r2, r3
 8004890:	d020      	beq.n	80048d4 <HAL_RCCEx_GetPeriphCLKFreq+0x37c>
 8004892:	697a      	ldr	r2, [r7, #20]
 8004894:	2380      	movs	r3, #128	@ 0x80
 8004896:	011b      	lsls	r3, r3, #4
 8004898:	429a      	cmp	r2, r3
 800489a:	d832      	bhi.n	8004902 <HAL_RCCEx_GetPeriphCLKFreq+0x3aa>
 800489c:	697b      	ldr	r3, [r7, #20]
 800489e:	2b00      	cmp	r3, #0
 80048a0:	d005      	beq.n	80048ae <HAL_RCCEx_GetPeriphCLKFreq+0x356>
 80048a2:	697a      	ldr	r2, [r7, #20]
 80048a4:	2380      	movs	r3, #128	@ 0x80
 80048a6:	00db      	lsls	r3, r3, #3
 80048a8:	429a      	cmp	r2, r3
 80048aa:	d005      	beq.n	80048b8 <HAL_RCCEx_GetPeriphCLKFreq+0x360>
            break;
 80048ac:	e029      	b.n	8004902 <HAL_RCCEx_GetPeriphCLKFreq+0x3aa>
            frequency = HAL_RCC_GetPCLK1Freq();
 80048ae:	f7ff fba9 	bl	8004004 <HAL_RCC_GetPCLK1Freq>
 80048b2:	0003      	movs	r3, r0
 80048b4:	61fb      	str	r3, [r7, #28]
            break;
 80048b6:	e02b      	b.n	8004910 <HAL_RCCEx_GetPeriphCLKFreq+0x3b8>
            frequency = HAL_RCC_GetSysClockFreq();
 80048b8:	f7ff fafe 	bl	8003eb8 <HAL_RCC_GetSysClockFreq>
 80048bc:	0003      	movs	r3, r0
 80048be:	61fb      	str	r3, [r7, #28]
            break;
 80048c0:	e026      	b.n	8004910 <HAL_RCCEx_GetPeriphCLKFreq+0x3b8>
 80048c2:	46c0      	nop			@ (mov r8, r8)
 80048c4:	40021000 	.word	0x40021000
 80048c8:	0001e848 	.word	0x0001e848
 80048cc:	08006e60 	.word	0x08006e60
 80048d0:	00f42400 	.word	0x00f42400
            if (HAL_IS_BIT_SET(RCC->CR, RCC_CR_HSIRDY))
 80048d4:	4bbb      	ldr	r3, [pc, #748]	@ (8004bc4 <HAL_RCCEx_GetPeriphCLKFreq+0x66c>)
 80048d6:	681a      	ldr	r2, [r3, #0]
 80048d8:	2380      	movs	r3, #128	@ 0x80
 80048da:	00db      	lsls	r3, r3, #3
 80048dc:	401a      	ands	r2, r3
 80048de:	2380      	movs	r3, #128	@ 0x80
 80048e0:	00db      	lsls	r3, r3, #3
 80048e2:	429a      	cmp	r2, r3
 80048e4:	d110      	bne.n	8004908 <HAL_RCCEx_GetPeriphCLKFreq+0x3b0>
              frequency = HSI_VALUE;
 80048e6:	4bb8      	ldr	r3, [pc, #736]	@ (8004bc8 <HAL_RCCEx_GetPeriphCLKFreq+0x670>)
 80048e8:	61fb      	str	r3, [r7, #28]
            break;
 80048ea:	e00d      	b.n	8004908 <HAL_RCCEx_GetPeriphCLKFreq+0x3b0>
            if (HAL_IS_BIT_SET(RCC->BDCR, RCC_BDCR_LSERDY))
 80048ec:	4ab5      	ldr	r2, [pc, #724]	@ (8004bc4 <HAL_RCCEx_GetPeriphCLKFreq+0x66c>)
 80048ee:	2390      	movs	r3, #144	@ 0x90
 80048f0:	58d3      	ldr	r3, [r2, r3]
 80048f2:	2202      	movs	r2, #2
 80048f4:	4013      	ands	r3, r2
 80048f6:	2b02      	cmp	r3, #2
 80048f8:	d109      	bne.n	800490e <HAL_RCCEx_GetPeriphCLKFreq+0x3b6>
              frequency = LSE_VALUE;
 80048fa:	2380      	movs	r3, #128	@ 0x80
 80048fc:	021b      	lsls	r3, r3, #8
 80048fe:	61fb      	str	r3, [r7, #28]
            break;
 8004900:	e005      	b.n	800490e <HAL_RCCEx_GetPeriphCLKFreq+0x3b6>
            break;
 8004902:	46c0      	nop			@ (mov r8, r8)
 8004904:	f000 fb69 	bl	8004fda <HAL_RCCEx_GetPeriphCLKFreq+0xa82>
            break;
 8004908:	46c0      	nop			@ (mov r8, r8)
 800490a:	f000 fb66 	bl	8004fda <HAL_RCCEx_GetPeriphCLKFreq+0xa82>
            break;
 800490e:	46c0      	nop			@ (mov r8, r8)
        break;
 8004910:	f000 fb63 	bl	8004fda <HAL_RCCEx_GetPeriphCLKFreq+0xa82>
        srcclk = __HAL_RCC_GET_LPUART2_SOURCE();
 8004914:	4aab      	ldr	r2, [pc, #684]	@ (8004bc4 <HAL_RCCEx_GetPeriphCLKFreq+0x66c>)
 8004916:	2388      	movs	r3, #136	@ 0x88
 8004918:	58d2      	ldr	r2, [r2, r3]
 800491a:	23c0      	movs	r3, #192	@ 0xc0
 800491c:	009b      	lsls	r3, r3, #2
 800491e:	4013      	ands	r3, r2
 8004920:	617b      	str	r3, [r7, #20]
        switch (srcclk)
 8004922:	697a      	ldr	r2, [r7, #20]
 8004924:	23c0      	movs	r3, #192	@ 0xc0
 8004926:	009b      	lsls	r3, r3, #2
 8004928:	429a      	cmp	r2, r3
 800492a:	d02d      	beq.n	8004988 <HAL_RCCEx_GetPeriphCLKFreq+0x430>
 800492c:	697a      	ldr	r2, [r7, #20]
 800492e:	23c0      	movs	r3, #192	@ 0xc0
 8004930:	009b      	lsls	r3, r3, #2
 8004932:	429a      	cmp	r2, r3
 8004934:	d833      	bhi.n	800499e <HAL_RCCEx_GetPeriphCLKFreq+0x446>
 8004936:	697a      	ldr	r2, [r7, #20]
 8004938:	2380      	movs	r3, #128	@ 0x80
 800493a:	009b      	lsls	r3, r3, #2
 800493c:	429a      	cmp	r2, r3
 800493e:	d017      	beq.n	8004970 <HAL_RCCEx_GetPeriphCLKFreq+0x418>
 8004940:	697a      	ldr	r2, [r7, #20]
 8004942:	2380      	movs	r3, #128	@ 0x80
 8004944:	009b      	lsls	r3, r3, #2
 8004946:	429a      	cmp	r2, r3
 8004948:	d829      	bhi.n	800499e <HAL_RCCEx_GetPeriphCLKFreq+0x446>
 800494a:	697b      	ldr	r3, [r7, #20]
 800494c:	2b00      	cmp	r3, #0
 800494e:	d005      	beq.n	800495c <HAL_RCCEx_GetPeriphCLKFreq+0x404>
 8004950:	697a      	ldr	r2, [r7, #20]
 8004952:	2380      	movs	r3, #128	@ 0x80
 8004954:	005b      	lsls	r3, r3, #1
 8004956:	429a      	cmp	r2, r3
 8004958:	d005      	beq.n	8004966 <HAL_RCCEx_GetPeriphCLKFreq+0x40e>
            break;
 800495a:	e020      	b.n	800499e <HAL_RCCEx_GetPeriphCLKFreq+0x446>
            frequency = HAL_RCC_GetPCLK1Freq();
 800495c:	f7ff fb52 	bl	8004004 <HAL_RCC_GetPCLK1Freq>
 8004960:	0003      	movs	r3, r0
 8004962:	61fb      	str	r3, [r7, #28]
            break;
 8004964:	e022      	b.n	80049ac <HAL_RCCEx_GetPeriphCLKFreq+0x454>
            frequency = HAL_RCC_GetSysClockFreq();
 8004966:	f7ff faa7 	bl	8003eb8 <HAL_RCC_GetSysClockFreq>
 800496a:	0003      	movs	r3, r0
 800496c:	61fb      	str	r3, [r7, #28]
            break;
 800496e:	e01d      	b.n	80049ac <HAL_RCCEx_GetPeriphCLKFreq+0x454>
            if (HAL_IS_BIT_SET(RCC->CR, RCC_CR_HSIRDY))
 8004970:	4b94      	ldr	r3, [pc, #592]	@ (8004bc4 <HAL_RCCEx_GetPeriphCLKFreq+0x66c>)
 8004972:	681a      	ldr	r2, [r3, #0]
 8004974:	2380      	movs	r3, #128	@ 0x80
 8004976:	00db      	lsls	r3, r3, #3
 8004978:	401a      	ands	r2, r3
 800497a:	2380      	movs	r3, #128	@ 0x80
 800497c:	00db      	lsls	r3, r3, #3
 800497e:	429a      	cmp	r2, r3
 8004980:	d110      	bne.n	80049a4 <HAL_RCCEx_GetPeriphCLKFreq+0x44c>
              frequency = HSI_VALUE;
 8004982:	4b91      	ldr	r3, [pc, #580]	@ (8004bc8 <HAL_RCCEx_GetPeriphCLKFreq+0x670>)
 8004984:	61fb      	str	r3, [r7, #28]
            break;
 8004986:	e00d      	b.n	80049a4 <HAL_RCCEx_GetPeriphCLKFreq+0x44c>
            if (HAL_IS_BIT_SET(RCC->BDCR, RCC_BDCR_LSERDY))
 8004988:	4a8e      	ldr	r2, [pc, #568]	@ (8004bc4 <HAL_RCCEx_GetPeriphCLKFreq+0x66c>)
 800498a:	2390      	movs	r3, #144	@ 0x90
 800498c:	58d3      	ldr	r3, [r2, r3]
 800498e:	2202      	movs	r2, #2
 8004990:	4013      	ands	r3, r2
 8004992:	2b02      	cmp	r3, #2
 8004994:	d109      	bne.n	80049aa <HAL_RCCEx_GetPeriphCLKFreq+0x452>
              frequency = LSE_VALUE;
 8004996:	2380      	movs	r3, #128	@ 0x80
 8004998:	021b      	lsls	r3, r3, #8
 800499a:	61fb      	str	r3, [r7, #28]
            break;
 800499c:	e005      	b.n	80049aa <HAL_RCCEx_GetPeriphCLKFreq+0x452>
            break;
 800499e:	46c0      	nop			@ (mov r8, r8)
 80049a0:	f000 fb1b 	bl	8004fda <HAL_RCCEx_GetPeriphCLKFreq+0xa82>
            break;
 80049a4:	46c0      	nop			@ (mov r8, r8)
 80049a6:	f000 fb18 	bl	8004fda <HAL_RCCEx_GetPeriphCLKFreq+0xa82>
            break;
 80049aa:	46c0      	nop			@ (mov r8, r8)
        break;
 80049ac:	f000 fb15 	bl	8004fda <HAL_RCCEx_GetPeriphCLKFreq+0xa82>
        srcclk = __HAL_RCC_GET_LPUART3_SOURCE();
 80049b0:	4a84      	ldr	r2, [pc, #528]	@ (8004bc4 <HAL_RCCEx_GetPeriphCLKFreq+0x66c>)
 80049b2:	2388      	movs	r3, #136	@ 0x88
 80049b4:	58d3      	ldr	r3, [r2, r3]
 80049b6:	22c0      	movs	r2, #192	@ 0xc0
 80049b8:	4013      	ands	r3, r2
 80049ba:	617b      	str	r3, [r7, #20]
        switch (srcclk)
 80049bc:	697b      	ldr	r3, [r7, #20]
 80049be:	2bc0      	cmp	r3, #192	@ 0xc0
 80049c0:	d025      	beq.n	8004a0e <HAL_RCCEx_GetPeriphCLKFreq+0x4b6>
 80049c2:	697b      	ldr	r3, [r7, #20]
 80049c4:	2bc0      	cmp	r3, #192	@ 0xc0
 80049c6:	d82d      	bhi.n	8004a24 <HAL_RCCEx_GetPeriphCLKFreq+0x4cc>
 80049c8:	697b      	ldr	r3, [r7, #20]
 80049ca:	2b80      	cmp	r3, #128	@ 0x80
 80049cc:	d013      	beq.n	80049f6 <HAL_RCCEx_GetPeriphCLKFreq+0x49e>
 80049ce:	697b      	ldr	r3, [r7, #20]
 80049d0:	2b80      	cmp	r3, #128	@ 0x80
 80049d2:	d827      	bhi.n	8004a24 <HAL_RCCEx_GetPeriphCLKFreq+0x4cc>
 80049d4:	697b      	ldr	r3, [r7, #20]
 80049d6:	2b00      	cmp	r3, #0
 80049d8:	d003      	beq.n	80049e2 <HAL_RCCEx_GetPeriphCLKFreq+0x48a>
 80049da:	697b      	ldr	r3, [r7, #20]
 80049dc:	2b40      	cmp	r3, #64	@ 0x40
 80049de:	d005      	beq.n	80049ec <HAL_RCCEx_GetPeriphCLKFreq+0x494>
            break;
 80049e0:	e020      	b.n	8004a24 <HAL_RCCEx_GetPeriphCLKFreq+0x4cc>
            frequency = HAL_RCC_GetPCLK1Freq();
 80049e2:	f7ff fb0f 	bl	8004004 <HAL_RCC_GetPCLK1Freq>
 80049e6:	0003      	movs	r3, r0
 80049e8:	61fb      	str	r3, [r7, #28]
            break;
 80049ea:	e020      	b.n	8004a2e <HAL_RCCEx_GetPeriphCLKFreq+0x4d6>
            frequency = HAL_RCC_GetSysClockFreq();
 80049ec:	f7ff fa64 	bl	8003eb8 <HAL_RCC_GetSysClockFreq>
 80049f0:	0003      	movs	r3, r0
 80049f2:	61fb      	str	r3, [r7, #28]
            break;
 80049f4:	e01b      	b.n	8004a2e <HAL_RCCEx_GetPeriphCLKFreq+0x4d6>
            if (HAL_IS_BIT_SET(RCC->CR, RCC_CR_HSIRDY))
 80049f6:	4b73      	ldr	r3, [pc, #460]	@ (8004bc4 <HAL_RCCEx_GetPeriphCLKFreq+0x66c>)
 80049f8:	681a      	ldr	r2, [r3, #0]
 80049fa:	2380      	movs	r3, #128	@ 0x80
 80049fc:	00db      	lsls	r3, r3, #3
 80049fe:	401a      	ands	r2, r3
 8004a00:	2380      	movs	r3, #128	@ 0x80
 8004a02:	00db      	lsls	r3, r3, #3
 8004a04:	429a      	cmp	r2, r3
 8004a06:	d10f      	bne.n	8004a28 <HAL_RCCEx_GetPeriphCLKFreq+0x4d0>
              frequency = HSI_VALUE;
 8004a08:	4b6f      	ldr	r3, [pc, #444]	@ (8004bc8 <HAL_RCCEx_GetPeriphCLKFreq+0x670>)
 8004a0a:	61fb      	str	r3, [r7, #28]
            break;
 8004a0c:	e00c      	b.n	8004a28 <HAL_RCCEx_GetPeriphCLKFreq+0x4d0>
            if (HAL_IS_BIT_SET(RCC->BDCR, RCC_BDCR_LSERDY))
 8004a0e:	4a6d      	ldr	r2, [pc, #436]	@ (8004bc4 <HAL_RCCEx_GetPeriphCLKFreq+0x66c>)
 8004a10:	2390      	movs	r3, #144	@ 0x90
 8004a12:	58d3      	ldr	r3, [r2, r3]
 8004a14:	2202      	movs	r2, #2
 8004a16:	4013      	ands	r3, r2
 8004a18:	2b02      	cmp	r3, #2
 8004a1a:	d107      	bne.n	8004a2c <HAL_RCCEx_GetPeriphCLKFreq+0x4d4>
              frequency = LSE_VALUE;
 8004a1c:	2380      	movs	r3, #128	@ 0x80
 8004a1e:	021b      	lsls	r3, r3, #8
 8004a20:	61fb      	str	r3, [r7, #28]
            break;
 8004a22:	e003      	b.n	8004a2c <HAL_RCCEx_GetPeriphCLKFreq+0x4d4>
            break;
 8004a24:	46c0      	nop			@ (mov r8, r8)
 8004a26:	e2d8      	b.n	8004fda <HAL_RCCEx_GetPeriphCLKFreq+0xa82>
            break;
 8004a28:	46c0      	nop			@ (mov r8, r8)
 8004a2a:	e2d6      	b.n	8004fda <HAL_RCCEx_GetPeriphCLKFreq+0xa82>
            break;
 8004a2c:	46c0      	nop			@ (mov r8, r8)
        break;
 8004a2e:	e2d4      	b.n	8004fda <HAL_RCCEx_GetPeriphCLKFreq+0xa82>
        srcclk = __HAL_RCC_GET_ADC_SOURCE();
 8004a30:	4a64      	ldr	r2, [pc, #400]	@ (8004bc4 <HAL_RCCEx_GetPeriphCLKFreq+0x66c>)
 8004a32:	2388      	movs	r3, #136	@ 0x88
 8004a34:	58d2      	ldr	r2, [r2, r3]
 8004a36:	23c0      	movs	r3, #192	@ 0xc0
 8004a38:	059b      	lsls	r3, r3, #22
 8004a3a:	4013      	ands	r3, r2
 8004a3c:	617b      	str	r3, [r7, #20]
        switch (srcclk)
 8004a3e:	697a      	ldr	r2, [r7, #20]
 8004a40:	2380      	movs	r3, #128	@ 0x80
 8004a42:	059b      	lsls	r3, r3, #22
 8004a44:	429a      	cmp	r2, r3
 8004a46:	d012      	beq.n	8004a6e <HAL_RCCEx_GetPeriphCLKFreq+0x516>
 8004a48:	697a      	ldr	r2, [r7, #20]
 8004a4a:	2380      	movs	r3, #128	@ 0x80
 8004a4c:	059b      	lsls	r3, r3, #22
 8004a4e:	429a      	cmp	r2, r3
 8004a50:	d825      	bhi.n	8004a9e <HAL_RCCEx_GetPeriphCLKFreq+0x546>
 8004a52:	697b      	ldr	r3, [r7, #20]
 8004a54:	2b00      	cmp	r3, #0
 8004a56:	d005      	beq.n	8004a64 <HAL_RCCEx_GetPeriphCLKFreq+0x50c>
 8004a58:	697a      	ldr	r2, [r7, #20]
 8004a5a:	2380      	movs	r3, #128	@ 0x80
 8004a5c:	055b      	lsls	r3, r3, #21
 8004a5e:	429a      	cmp	r2, r3
 8004a60:	d014      	beq.n	8004a8c <HAL_RCCEx_GetPeriphCLKFreq+0x534>
            break;
 8004a62:	e01c      	b.n	8004a9e <HAL_RCCEx_GetPeriphCLKFreq+0x546>
            frequency = HAL_RCC_GetSysClockFreq();
 8004a64:	f7ff fa28 	bl	8003eb8 <HAL_RCC_GetSysClockFreq>
 8004a68:	0003      	movs	r3, r0
 8004a6a:	61fb      	str	r3, [r7, #28]
            break;
 8004a6c:	e018      	b.n	8004aa0 <HAL_RCCEx_GetPeriphCLKFreq+0x548>
            if (HAL_IS_BIT_SET(RCC->CR, RCC_CR_HSIRDY))
 8004a6e:	4b55      	ldr	r3, [pc, #340]	@ (8004bc4 <HAL_RCCEx_GetPeriphCLKFreq+0x66c>)
 8004a70:	681a      	ldr	r2, [r3, #0]
 8004a72:	2380      	movs	r3, #128	@ 0x80
 8004a74:	00db      	lsls	r3, r3, #3
 8004a76:	401a      	ands	r2, r3
 8004a78:	2380      	movs	r3, #128	@ 0x80
 8004a7a:	00db      	lsls	r3, r3, #3
 8004a7c:	429a      	cmp	r2, r3
 8004a7e:	d102      	bne.n	8004a86 <HAL_RCCEx_GetPeriphCLKFreq+0x52e>
              frequency = HSI_VALUE;
 8004a80:	4b51      	ldr	r3, [pc, #324]	@ (8004bc8 <HAL_RCCEx_GetPeriphCLKFreq+0x670>)
 8004a82:	61fb      	str	r3, [r7, #28]
            break;
 8004a84:	e00c      	b.n	8004aa0 <HAL_RCCEx_GetPeriphCLKFreq+0x548>
              frequency = 0U;
 8004a86:	2300      	movs	r3, #0
 8004a88:	61fb      	str	r3, [r7, #28]
            break;
 8004a8a:	e009      	b.n	8004aa0 <HAL_RCCEx_GetPeriphCLKFreq+0x548>
            HAL_RCCEx_GetPLLClockFreq(&pll_freq);
 8004a8c:	2408      	movs	r4, #8
 8004a8e:	193b      	adds	r3, r7, r4
 8004a90:	0018      	movs	r0, r3
 8004a92:	f000 faad 	bl	8004ff0 <HAL_RCCEx_GetPLLClockFreq>
            frequency = pll_freq.PLL_P_Frequency;
 8004a96:	193b      	adds	r3, r7, r4
 8004a98:	681b      	ldr	r3, [r3, #0]
 8004a9a:	61fb      	str	r3, [r7, #28]
            break;
 8004a9c:	e000      	b.n	8004aa0 <HAL_RCCEx_GetPeriphCLKFreq+0x548>
            break;
 8004a9e:	46c0      	nop			@ (mov r8, r8)
        break;
 8004aa0:	e29b      	b.n	8004fda <HAL_RCCEx_GetPeriphCLKFreq+0xa82>
        srcclk = __HAL_RCC_GET_I2C1_SOURCE();
 8004aa2:	4a48      	ldr	r2, [pc, #288]	@ (8004bc4 <HAL_RCCEx_GetPeriphCLKFreq+0x66c>)
 8004aa4:	2388      	movs	r3, #136	@ 0x88
 8004aa6:	58d2      	ldr	r2, [r2, r3]
 8004aa8:	23c0      	movs	r3, #192	@ 0xc0
 8004aaa:	019b      	lsls	r3, r3, #6
 8004aac:	4013      	ands	r3, r2
 8004aae:	617b      	str	r3, [r7, #20]
        switch (srcclk)
 8004ab0:	697a      	ldr	r2, [r7, #20]
 8004ab2:	2380      	movs	r3, #128	@ 0x80
 8004ab4:	019b      	lsls	r3, r3, #6
 8004ab6:	429a      	cmp	r2, r3
 8004ab8:	d017      	beq.n	8004aea <HAL_RCCEx_GetPeriphCLKFreq+0x592>
 8004aba:	697a      	ldr	r2, [r7, #20]
 8004abc:	2380      	movs	r3, #128	@ 0x80
 8004abe:	019b      	lsls	r3, r3, #6
 8004ac0:	429a      	cmp	r2, r3
 8004ac2:	d81e      	bhi.n	8004b02 <HAL_RCCEx_GetPeriphCLKFreq+0x5aa>
 8004ac4:	697b      	ldr	r3, [r7, #20]
 8004ac6:	2b00      	cmp	r3, #0
 8004ac8:	d005      	beq.n	8004ad6 <HAL_RCCEx_GetPeriphCLKFreq+0x57e>
 8004aca:	697a      	ldr	r2, [r7, #20]
 8004acc:	2380      	movs	r3, #128	@ 0x80
 8004ace:	015b      	lsls	r3, r3, #5
 8004ad0:	429a      	cmp	r2, r3
 8004ad2:	d005      	beq.n	8004ae0 <HAL_RCCEx_GetPeriphCLKFreq+0x588>
            break;
 8004ad4:	e015      	b.n	8004b02 <HAL_RCCEx_GetPeriphCLKFreq+0x5aa>
            frequency = HAL_RCC_GetPCLK1Freq();
 8004ad6:	f7ff fa95 	bl	8004004 <HAL_RCC_GetPCLK1Freq>
 8004ada:	0003      	movs	r3, r0
 8004adc:	61fb      	str	r3, [r7, #28]
            break;
 8004ade:	e013      	b.n	8004b08 <HAL_RCCEx_GetPeriphCLKFreq+0x5b0>
            frequency = HAL_RCC_GetSysClockFreq();
 8004ae0:	f7ff f9ea 	bl	8003eb8 <HAL_RCC_GetSysClockFreq>
 8004ae4:	0003      	movs	r3, r0
 8004ae6:	61fb      	str	r3, [r7, #28]
            break;
 8004ae8:	e00e      	b.n	8004b08 <HAL_RCCEx_GetPeriphCLKFreq+0x5b0>
            if (HAL_IS_BIT_SET(RCC->CR, RCC_CR_HSIRDY))
 8004aea:	4b36      	ldr	r3, [pc, #216]	@ (8004bc4 <HAL_RCCEx_GetPeriphCLKFreq+0x66c>)
 8004aec:	681a      	ldr	r2, [r3, #0]
 8004aee:	2380      	movs	r3, #128	@ 0x80
 8004af0:	00db      	lsls	r3, r3, #3
 8004af2:	401a      	ands	r2, r3
 8004af4:	2380      	movs	r3, #128	@ 0x80
 8004af6:	00db      	lsls	r3, r3, #3
 8004af8:	429a      	cmp	r2, r3
 8004afa:	d104      	bne.n	8004b06 <HAL_RCCEx_GetPeriphCLKFreq+0x5ae>
              frequency = HSI_VALUE;
 8004afc:	4b32      	ldr	r3, [pc, #200]	@ (8004bc8 <HAL_RCCEx_GetPeriphCLKFreq+0x670>)
 8004afe:	61fb      	str	r3, [r7, #28]
            break;
 8004b00:	e001      	b.n	8004b06 <HAL_RCCEx_GetPeriphCLKFreq+0x5ae>
            break;
 8004b02:	46c0      	nop			@ (mov r8, r8)
 8004b04:	e269      	b.n	8004fda <HAL_RCCEx_GetPeriphCLKFreq+0xa82>
            break;
 8004b06:	46c0      	nop			@ (mov r8, r8)
        break;
 8004b08:	e267      	b.n	8004fda <HAL_RCCEx_GetPeriphCLKFreq+0xa82>
        srcclk = __HAL_RCC_GET_I2C3_SOURCE();
 8004b0a:	4a2e      	ldr	r2, [pc, #184]	@ (8004bc4 <HAL_RCCEx_GetPeriphCLKFreq+0x66c>)
 8004b0c:	2388      	movs	r3, #136	@ 0x88
 8004b0e:	58d2      	ldr	r2, [r2, r3]
 8004b10:	23c0      	movs	r3, #192	@ 0xc0
 8004b12:	029b      	lsls	r3, r3, #10
 8004b14:	4013      	ands	r3, r2
 8004b16:	617b      	str	r3, [r7, #20]
        switch (srcclk)
 8004b18:	697a      	ldr	r2, [r7, #20]
 8004b1a:	2380      	movs	r3, #128	@ 0x80
 8004b1c:	029b      	lsls	r3, r3, #10
 8004b1e:	429a      	cmp	r2, r3
 8004b20:	d017      	beq.n	8004b52 <HAL_RCCEx_GetPeriphCLKFreq+0x5fa>
 8004b22:	697a      	ldr	r2, [r7, #20]
 8004b24:	2380      	movs	r3, #128	@ 0x80
 8004b26:	029b      	lsls	r3, r3, #10
 8004b28:	429a      	cmp	r2, r3
 8004b2a:	d81e      	bhi.n	8004b6a <HAL_RCCEx_GetPeriphCLKFreq+0x612>
 8004b2c:	697b      	ldr	r3, [r7, #20]
 8004b2e:	2b00      	cmp	r3, #0
 8004b30:	d005      	beq.n	8004b3e <HAL_RCCEx_GetPeriphCLKFreq+0x5e6>
 8004b32:	697a      	ldr	r2, [r7, #20]
 8004b34:	2380      	movs	r3, #128	@ 0x80
 8004b36:	025b      	lsls	r3, r3, #9
 8004b38:	429a      	cmp	r2, r3
 8004b3a:	d005      	beq.n	8004b48 <HAL_RCCEx_GetPeriphCLKFreq+0x5f0>
            break;
 8004b3c:	e015      	b.n	8004b6a <HAL_RCCEx_GetPeriphCLKFreq+0x612>
            frequency = HAL_RCC_GetPCLK1Freq();
 8004b3e:	f7ff fa61 	bl	8004004 <HAL_RCC_GetPCLK1Freq>
 8004b42:	0003      	movs	r3, r0
 8004b44:	61fb      	str	r3, [r7, #28]
            break;
 8004b46:	e013      	b.n	8004b70 <HAL_RCCEx_GetPeriphCLKFreq+0x618>
            frequency = HAL_RCC_GetSysClockFreq();
 8004b48:	f7ff f9b6 	bl	8003eb8 <HAL_RCC_GetSysClockFreq>
 8004b4c:	0003      	movs	r3, r0
 8004b4e:	61fb      	str	r3, [r7, #28]
            break;
 8004b50:	e00e      	b.n	8004b70 <HAL_RCCEx_GetPeriphCLKFreq+0x618>
            if (HAL_IS_BIT_SET(RCC->CR, RCC_CR_HSIRDY))
 8004b52:	4b1c      	ldr	r3, [pc, #112]	@ (8004bc4 <HAL_RCCEx_GetPeriphCLKFreq+0x66c>)
 8004b54:	681a      	ldr	r2, [r3, #0]
 8004b56:	2380      	movs	r3, #128	@ 0x80
 8004b58:	00db      	lsls	r3, r3, #3
 8004b5a:	401a      	ands	r2, r3
 8004b5c:	2380      	movs	r3, #128	@ 0x80
 8004b5e:	00db      	lsls	r3, r3, #3
 8004b60:	429a      	cmp	r2, r3
 8004b62:	d104      	bne.n	8004b6e <HAL_RCCEx_GetPeriphCLKFreq+0x616>
              frequency = HSI_VALUE;
 8004b64:	4b18      	ldr	r3, [pc, #96]	@ (8004bc8 <HAL_RCCEx_GetPeriphCLKFreq+0x670>)
 8004b66:	61fb      	str	r3, [r7, #28]
            break;
 8004b68:	e001      	b.n	8004b6e <HAL_RCCEx_GetPeriphCLKFreq+0x616>
            break;
 8004b6a:	46c0      	nop			@ (mov r8, r8)
 8004b6c:	e235      	b.n	8004fda <HAL_RCCEx_GetPeriphCLKFreq+0xa82>
            break;
 8004b6e:	46c0      	nop			@ (mov r8, r8)
        break;
 8004b70:	e233      	b.n	8004fda <HAL_RCCEx_GetPeriphCLKFreq+0xa82>
        srcclk = __HAL_RCC_GET_LPTIM1_SOURCE();
 8004b72:	4a14      	ldr	r2, [pc, #80]	@ (8004bc4 <HAL_RCCEx_GetPeriphCLKFreq+0x66c>)
 8004b74:	2388      	movs	r3, #136	@ 0x88
 8004b76:	58d2      	ldr	r2, [r2, r3]
 8004b78:	23c0      	movs	r3, #192	@ 0xc0
 8004b7a:	031b      	lsls	r3, r3, #12
 8004b7c:	4013      	ands	r3, r2
 8004b7e:	617b      	str	r3, [r7, #20]
        switch (srcclk)
 8004b80:	697a      	ldr	r2, [r7, #20]
 8004b82:	23c0      	movs	r3, #192	@ 0xc0
 8004b84:	031b      	lsls	r3, r3, #12
 8004b86:	429a      	cmp	r2, r3
 8004b88:	d041      	beq.n	8004c0e <HAL_RCCEx_GetPeriphCLKFreq+0x6b6>
 8004b8a:	697a      	ldr	r2, [r7, #20]
 8004b8c:	23c0      	movs	r3, #192	@ 0xc0
 8004b8e:	031b      	lsls	r3, r3, #12
 8004b90:	429a      	cmp	r2, r3
 8004b92:	d847      	bhi.n	8004c24 <HAL_RCCEx_GetPeriphCLKFreq+0x6cc>
 8004b94:	697a      	ldr	r2, [r7, #20]
 8004b96:	2380      	movs	r3, #128	@ 0x80
 8004b98:	031b      	lsls	r3, r3, #12
 8004b9a:	429a      	cmp	r2, r3
 8004b9c:	d02b      	beq.n	8004bf6 <HAL_RCCEx_GetPeriphCLKFreq+0x69e>
 8004b9e:	697a      	ldr	r2, [r7, #20]
 8004ba0:	2380      	movs	r3, #128	@ 0x80
 8004ba2:	031b      	lsls	r3, r3, #12
 8004ba4:	429a      	cmp	r2, r3
 8004ba6:	d83d      	bhi.n	8004c24 <HAL_RCCEx_GetPeriphCLKFreq+0x6cc>
 8004ba8:	697b      	ldr	r3, [r7, #20]
 8004baa:	2b00      	cmp	r3, #0
 8004bac:	d005      	beq.n	8004bba <HAL_RCCEx_GetPeriphCLKFreq+0x662>
 8004bae:	697a      	ldr	r2, [r7, #20]
 8004bb0:	2380      	movs	r3, #128	@ 0x80
 8004bb2:	02db      	lsls	r3, r3, #11
 8004bb4:	429a      	cmp	r2, r3
 8004bb6:	d009      	beq.n	8004bcc <HAL_RCCEx_GetPeriphCLKFreq+0x674>
            break;
 8004bb8:	e034      	b.n	8004c24 <HAL_RCCEx_GetPeriphCLKFreq+0x6cc>
            frequency = HAL_RCC_GetPCLK1Freq();
 8004bba:	f7ff fa23 	bl	8004004 <HAL_RCC_GetPCLK1Freq>
 8004bbe:	0003      	movs	r3, r0
 8004bc0:	61fb      	str	r3, [r7, #28]
            break;
 8004bc2:	e036      	b.n	8004c32 <HAL_RCCEx_GetPeriphCLKFreq+0x6da>
 8004bc4:	40021000 	.word	0x40021000
 8004bc8:	00f42400 	.word	0x00f42400
            if (HAL_IS_BIT_SET(RCC->CSR, RCC_CSR_LSIRDY))
 8004bcc:	4abd      	ldr	r2, [pc, #756]	@ (8004ec4 <HAL_RCCEx_GetPeriphCLKFreq+0x96c>)
 8004bce:	2394      	movs	r3, #148	@ 0x94
 8004bd0:	58d3      	ldr	r3, [r2, r3]
 8004bd2:	2202      	movs	r2, #2
 8004bd4:	4013      	ands	r3, r2
 8004bd6:	2b02      	cmp	r3, #2
 8004bd8:	d126      	bne.n	8004c28 <HAL_RCCEx_GetPeriphCLKFreq+0x6d0>
              if (HAL_IS_BIT_SET(RCC->CSR, RCC_CSR_LSIPREDIV))
 8004bda:	4aba      	ldr	r2, [pc, #744]	@ (8004ec4 <HAL_RCCEx_GetPeriphCLKFreq+0x96c>)
 8004bdc:	2394      	movs	r3, #148	@ 0x94
 8004bde:	58d3      	ldr	r3, [r2, r3]
 8004be0:	2204      	movs	r2, #4
 8004be2:	4013      	ands	r3, r2
 8004be4:	2b04      	cmp	r3, #4
 8004be6:	d102      	bne.n	8004bee <HAL_RCCEx_GetPeriphCLKFreq+0x696>
                frequency = LSI_VALUE / 128U;
 8004be8:	23fa      	movs	r3, #250	@ 0xfa
 8004bea:	61fb      	str	r3, [r7, #28]
            break;
 8004bec:	e01c      	b.n	8004c28 <HAL_RCCEx_GetPeriphCLKFreq+0x6d0>
                frequency = LSI_VALUE;
 8004bee:	23fa      	movs	r3, #250	@ 0xfa
 8004bf0:	01db      	lsls	r3, r3, #7
 8004bf2:	61fb      	str	r3, [r7, #28]
            break;
 8004bf4:	e018      	b.n	8004c28 <HAL_RCCEx_GetPeriphCLKFreq+0x6d0>
            if (HAL_IS_BIT_SET(RCC->CR, RCC_CR_HSIRDY))
 8004bf6:	4bb3      	ldr	r3, [pc, #716]	@ (8004ec4 <HAL_RCCEx_GetPeriphCLKFreq+0x96c>)
 8004bf8:	681a      	ldr	r2, [r3, #0]
 8004bfa:	2380      	movs	r3, #128	@ 0x80
 8004bfc:	00db      	lsls	r3, r3, #3
 8004bfe:	401a      	ands	r2, r3
 8004c00:	2380      	movs	r3, #128	@ 0x80
 8004c02:	00db      	lsls	r3, r3, #3
 8004c04:	429a      	cmp	r2, r3
 8004c06:	d111      	bne.n	8004c2c <HAL_RCCEx_GetPeriphCLKFreq+0x6d4>
              frequency = HSI_VALUE;
 8004c08:	4baf      	ldr	r3, [pc, #700]	@ (8004ec8 <HAL_RCCEx_GetPeriphCLKFreq+0x970>)
 8004c0a:	61fb      	str	r3, [r7, #28]
            break;
 8004c0c:	e00e      	b.n	8004c2c <HAL_RCCEx_GetPeriphCLKFreq+0x6d4>
            if (HAL_IS_BIT_SET(RCC->BDCR, RCC_BDCR_LSERDY))
 8004c0e:	4aad      	ldr	r2, [pc, #692]	@ (8004ec4 <HAL_RCCEx_GetPeriphCLKFreq+0x96c>)
 8004c10:	2390      	movs	r3, #144	@ 0x90
 8004c12:	58d3      	ldr	r3, [r2, r3]
 8004c14:	2202      	movs	r2, #2
 8004c16:	4013      	ands	r3, r2
 8004c18:	2b02      	cmp	r3, #2
 8004c1a:	d109      	bne.n	8004c30 <HAL_RCCEx_GetPeriphCLKFreq+0x6d8>
              frequency = LSE_VALUE;
 8004c1c:	2380      	movs	r3, #128	@ 0x80
 8004c1e:	021b      	lsls	r3, r3, #8
 8004c20:	61fb      	str	r3, [r7, #28]
            break;
 8004c22:	e005      	b.n	8004c30 <HAL_RCCEx_GetPeriphCLKFreq+0x6d8>
            break;
 8004c24:	46c0      	nop			@ (mov r8, r8)
 8004c26:	e1d8      	b.n	8004fda <HAL_RCCEx_GetPeriphCLKFreq+0xa82>
            break;
 8004c28:	46c0      	nop			@ (mov r8, r8)
 8004c2a:	e1d6      	b.n	8004fda <HAL_RCCEx_GetPeriphCLKFreq+0xa82>
            break;
 8004c2c:	46c0      	nop			@ (mov r8, r8)
 8004c2e:	e1d4      	b.n	8004fda <HAL_RCCEx_GetPeriphCLKFreq+0xa82>
            break;
 8004c30:	46c0      	nop			@ (mov r8, r8)
        break;
 8004c32:	e1d2      	b.n	8004fda <HAL_RCCEx_GetPeriphCLKFreq+0xa82>
        srcclk = __HAL_RCC_GET_LPTIM2_SOURCE();
 8004c34:	4aa3      	ldr	r2, [pc, #652]	@ (8004ec4 <HAL_RCCEx_GetPeriphCLKFreq+0x96c>)
 8004c36:	2388      	movs	r3, #136	@ 0x88
 8004c38:	58d2      	ldr	r2, [r2, r3]
 8004c3a:	23c0      	movs	r3, #192	@ 0xc0
 8004c3c:	039b      	lsls	r3, r3, #14
 8004c3e:	4013      	ands	r3, r2
 8004c40:	617b      	str	r3, [r7, #20]
        switch (srcclk)
 8004c42:	697a      	ldr	r2, [r7, #20]
 8004c44:	23c0      	movs	r3, #192	@ 0xc0
 8004c46:	039b      	lsls	r3, r3, #14
 8004c48:	429a      	cmp	r2, r3
 8004c4a:	d03d      	beq.n	8004cc8 <HAL_RCCEx_GetPeriphCLKFreq+0x770>
 8004c4c:	697a      	ldr	r2, [r7, #20]
 8004c4e:	23c0      	movs	r3, #192	@ 0xc0
 8004c50:	039b      	lsls	r3, r3, #14
 8004c52:	429a      	cmp	r2, r3
 8004c54:	d843      	bhi.n	8004cde <HAL_RCCEx_GetPeriphCLKFreq+0x786>
 8004c56:	697a      	ldr	r2, [r7, #20]
 8004c58:	2380      	movs	r3, #128	@ 0x80
 8004c5a:	039b      	lsls	r3, r3, #14
 8004c5c:	429a      	cmp	r2, r3
 8004c5e:	d027      	beq.n	8004cb0 <HAL_RCCEx_GetPeriphCLKFreq+0x758>
 8004c60:	697a      	ldr	r2, [r7, #20]
 8004c62:	2380      	movs	r3, #128	@ 0x80
 8004c64:	039b      	lsls	r3, r3, #14
 8004c66:	429a      	cmp	r2, r3
 8004c68:	d839      	bhi.n	8004cde <HAL_RCCEx_GetPeriphCLKFreq+0x786>
 8004c6a:	697b      	ldr	r3, [r7, #20]
 8004c6c:	2b00      	cmp	r3, #0
 8004c6e:	d005      	beq.n	8004c7c <HAL_RCCEx_GetPeriphCLKFreq+0x724>
 8004c70:	697a      	ldr	r2, [r7, #20]
 8004c72:	2380      	movs	r3, #128	@ 0x80
 8004c74:	035b      	lsls	r3, r3, #13
 8004c76:	429a      	cmp	r2, r3
 8004c78:	d005      	beq.n	8004c86 <HAL_RCCEx_GetPeriphCLKFreq+0x72e>
            break;
 8004c7a:	e030      	b.n	8004cde <HAL_RCCEx_GetPeriphCLKFreq+0x786>
            frequency = HAL_RCC_GetPCLK1Freq();
 8004c7c:	f7ff f9c2 	bl	8004004 <HAL_RCC_GetPCLK1Freq>
 8004c80:	0003      	movs	r3, r0
 8004c82:	61fb      	str	r3, [r7, #28]
            break;
 8004c84:	e032      	b.n	8004cec <HAL_RCCEx_GetPeriphCLKFreq+0x794>
            if (HAL_IS_BIT_SET(RCC->CSR, RCC_CSR_LSIRDY))
 8004c86:	4a8f      	ldr	r2, [pc, #572]	@ (8004ec4 <HAL_RCCEx_GetPeriphCLKFreq+0x96c>)
 8004c88:	2394      	movs	r3, #148	@ 0x94
 8004c8a:	58d3      	ldr	r3, [r2, r3]
 8004c8c:	2202      	movs	r2, #2
 8004c8e:	4013      	ands	r3, r2
 8004c90:	2b02      	cmp	r3, #2
 8004c92:	d126      	bne.n	8004ce2 <HAL_RCCEx_GetPeriphCLKFreq+0x78a>
              if (HAL_IS_BIT_SET(RCC->CSR, RCC_CSR_LSIPREDIV))
 8004c94:	4a8b      	ldr	r2, [pc, #556]	@ (8004ec4 <HAL_RCCEx_GetPeriphCLKFreq+0x96c>)
 8004c96:	2394      	movs	r3, #148	@ 0x94
 8004c98:	58d3      	ldr	r3, [r2, r3]
 8004c9a:	2204      	movs	r2, #4
 8004c9c:	4013      	ands	r3, r2
 8004c9e:	2b04      	cmp	r3, #4
 8004ca0:	d102      	bne.n	8004ca8 <HAL_RCCEx_GetPeriphCLKFreq+0x750>
                frequency = LSI_VALUE / 128U;
 8004ca2:	23fa      	movs	r3, #250	@ 0xfa
 8004ca4:	61fb      	str	r3, [r7, #28]
            break;
 8004ca6:	e01c      	b.n	8004ce2 <HAL_RCCEx_GetPeriphCLKFreq+0x78a>
                frequency = LSI_VALUE;
 8004ca8:	23fa      	movs	r3, #250	@ 0xfa
 8004caa:	01db      	lsls	r3, r3, #7
 8004cac:	61fb      	str	r3, [r7, #28]
            break;
 8004cae:	e018      	b.n	8004ce2 <HAL_RCCEx_GetPeriphCLKFreq+0x78a>
            if (HAL_IS_BIT_SET(RCC->CR, RCC_CR_HSIRDY))
 8004cb0:	4b84      	ldr	r3, [pc, #528]	@ (8004ec4 <HAL_RCCEx_GetPeriphCLKFreq+0x96c>)
 8004cb2:	681a      	ldr	r2, [r3, #0]
 8004cb4:	2380      	movs	r3, #128	@ 0x80
 8004cb6:	00db      	lsls	r3, r3, #3
 8004cb8:	401a      	ands	r2, r3
 8004cba:	2380      	movs	r3, #128	@ 0x80
 8004cbc:	00db      	lsls	r3, r3, #3
 8004cbe:	429a      	cmp	r2, r3
 8004cc0:	d111      	bne.n	8004ce6 <HAL_RCCEx_GetPeriphCLKFreq+0x78e>
              frequency = HSI_VALUE;
 8004cc2:	4b81      	ldr	r3, [pc, #516]	@ (8004ec8 <HAL_RCCEx_GetPeriphCLKFreq+0x970>)
 8004cc4:	61fb      	str	r3, [r7, #28]
            break;
 8004cc6:	e00e      	b.n	8004ce6 <HAL_RCCEx_GetPeriphCLKFreq+0x78e>
            if (HAL_IS_BIT_SET(RCC->BDCR, RCC_BDCR_LSERDY))
 8004cc8:	4a7e      	ldr	r2, [pc, #504]	@ (8004ec4 <HAL_RCCEx_GetPeriphCLKFreq+0x96c>)
 8004cca:	2390      	movs	r3, #144	@ 0x90
 8004ccc:	58d3      	ldr	r3, [r2, r3]
 8004cce:	2202      	movs	r2, #2
 8004cd0:	4013      	ands	r3, r2
 8004cd2:	2b02      	cmp	r3, #2
 8004cd4:	d109      	bne.n	8004cea <HAL_RCCEx_GetPeriphCLKFreq+0x792>
              frequency = LSE_VALUE;
 8004cd6:	2380      	movs	r3, #128	@ 0x80
 8004cd8:	021b      	lsls	r3, r3, #8
 8004cda:	61fb      	str	r3, [r7, #28]
            break;
 8004cdc:	e005      	b.n	8004cea <HAL_RCCEx_GetPeriphCLKFreq+0x792>
            break;
 8004cde:	46c0      	nop			@ (mov r8, r8)
 8004ce0:	e17b      	b.n	8004fda <HAL_RCCEx_GetPeriphCLKFreq+0xa82>
            break;
 8004ce2:	46c0      	nop			@ (mov r8, r8)
 8004ce4:	e179      	b.n	8004fda <HAL_RCCEx_GetPeriphCLKFreq+0xa82>
            break;
 8004ce6:	46c0      	nop			@ (mov r8, r8)
 8004ce8:	e177      	b.n	8004fda <HAL_RCCEx_GetPeriphCLKFreq+0xa82>
            break;
 8004cea:	46c0      	nop			@ (mov r8, r8)
        break;
 8004cec:	e175      	b.n	8004fda <HAL_RCCEx_GetPeriphCLKFreq+0xa82>
        srcclk = __HAL_RCC_GET_LPTIM3_SOURCE();
 8004cee:	4a75      	ldr	r2, [pc, #468]	@ (8004ec4 <HAL_RCCEx_GetPeriphCLKFreq+0x96c>)
 8004cf0:	2388      	movs	r3, #136	@ 0x88
 8004cf2:	58d2      	ldr	r2, [r2, r3]
 8004cf4:	23c0      	movs	r3, #192	@ 0xc0
 8004cf6:	041b      	lsls	r3, r3, #16
 8004cf8:	4013      	ands	r3, r2
 8004cfa:	617b      	str	r3, [r7, #20]
        switch (srcclk)
 8004cfc:	697a      	ldr	r2, [r7, #20]
 8004cfe:	23c0      	movs	r3, #192	@ 0xc0
 8004d00:	041b      	lsls	r3, r3, #16
 8004d02:	429a      	cmp	r2, r3
 8004d04:	d03d      	beq.n	8004d82 <HAL_RCCEx_GetPeriphCLKFreq+0x82a>
 8004d06:	697a      	ldr	r2, [r7, #20]
 8004d08:	23c0      	movs	r3, #192	@ 0xc0
 8004d0a:	041b      	lsls	r3, r3, #16
 8004d0c:	429a      	cmp	r2, r3
 8004d0e:	d843      	bhi.n	8004d98 <HAL_RCCEx_GetPeriphCLKFreq+0x840>
 8004d10:	697a      	ldr	r2, [r7, #20]
 8004d12:	2380      	movs	r3, #128	@ 0x80
 8004d14:	041b      	lsls	r3, r3, #16
 8004d16:	429a      	cmp	r2, r3
 8004d18:	d027      	beq.n	8004d6a <HAL_RCCEx_GetPeriphCLKFreq+0x812>
 8004d1a:	697a      	ldr	r2, [r7, #20]
 8004d1c:	2380      	movs	r3, #128	@ 0x80
 8004d1e:	041b      	lsls	r3, r3, #16
 8004d20:	429a      	cmp	r2, r3
 8004d22:	d839      	bhi.n	8004d98 <HAL_RCCEx_GetPeriphCLKFreq+0x840>
 8004d24:	697b      	ldr	r3, [r7, #20]
 8004d26:	2b00      	cmp	r3, #0
 8004d28:	d005      	beq.n	8004d36 <HAL_RCCEx_GetPeriphCLKFreq+0x7de>
 8004d2a:	697a      	ldr	r2, [r7, #20]
 8004d2c:	2380      	movs	r3, #128	@ 0x80
 8004d2e:	03db      	lsls	r3, r3, #15
 8004d30:	429a      	cmp	r2, r3
 8004d32:	d005      	beq.n	8004d40 <HAL_RCCEx_GetPeriphCLKFreq+0x7e8>
            break;
 8004d34:	e030      	b.n	8004d98 <HAL_RCCEx_GetPeriphCLKFreq+0x840>
            frequency = HAL_RCC_GetPCLK1Freq();
 8004d36:	f7ff f965 	bl	8004004 <HAL_RCC_GetPCLK1Freq>
 8004d3a:	0003      	movs	r3, r0
 8004d3c:	61fb      	str	r3, [r7, #28]
            break;
 8004d3e:	e032      	b.n	8004da6 <HAL_RCCEx_GetPeriphCLKFreq+0x84e>
            if (HAL_IS_BIT_SET(RCC->CSR, RCC_CSR_LSIRDY))
 8004d40:	4a60      	ldr	r2, [pc, #384]	@ (8004ec4 <HAL_RCCEx_GetPeriphCLKFreq+0x96c>)
 8004d42:	2394      	movs	r3, #148	@ 0x94
 8004d44:	58d3      	ldr	r3, [r2, r3]
 8004d46:	2202      	movs	r2, #2
 8004d48:	4013      	ands	r3, r2
 8004d4a:	2b02      	cmp	r3, #2
 8004d4c:	d126      	bne.n	8004d9c <HAL_RCCEx_GetPeriphCLKFreq+0x844>
              if (HAL_IS_BIT_SET(RCC->CSR, RCC_CSR_LSIPREDIV))
 8004d4e:	4a5d      	ldr	r2, [pc, #372]	@ (8004ec4 <HAL_RCCEx_GetPeriphCLKFreq+0x96c>)
 8004d50:	2394      	movs	r3, #148	@ 0x94
 8004d52:	58d3      	ldr	r3, [r2, r3]
 8004d54:	2204      	movs	r2, #4
 8004d56:	4013      	ands	r3, r2
 8004d58:	2b04      	cmp	r3, #4
 8004d5a:	d102      	bne.n	8004d62 <HAL_RCCEx_GetPeriphCLKFreq+0x80a>
                frequency = LSI_VALUE / 128U;
 8004d5c:	23fa      	movs	r3, #250	@ 0xfa
 8004d5e:	61fb      	str	r3, [r7, #28]
            break;
 8004d60:	e01c      	b.n	8004d9c <HAL_RCCEx_GetPeriphCLKFreq+0x844>
                frequency = LSI_VALUE;
 8004d62:	23fa      	movs	r3, #250	@ 0xfa
 8004d64:	01db      	lsls	r3, r3, #7
 8004d66:	61fb      	str	r3, [r7, #28]
            break;
 8004d68:	e018      	b.n	8004d9c <HAL_RCCEx_GetPeriphCLKFreq+0x844>
            if (HAL_IS_BIT_SET(RCC->CR, RCC_CR_HSIRDY))
 8004d6a:	4b56      	ldr	r3, [pc, #344]	@ (8004ec4 <HAL_RCCEx_GetPeriphCLKFreq+0x96c>)
 8004d6c:	681a      	ldr	r2, [r3, #0]
 8004d6e:	2380      	movs	r3, #128	@ 0x80
 8004d70:	00db      	lsls	r3, r3, #3
 8004d72:	401a      	ands	r2, r3
 8004d74:	2380      	movs	r3, #128	@ 0x80
 8004d76:	00db      	lsls	r3, r3, #3
 8004d78:	429a      	cmp	r2, r3
 8004d7a:	d111      	bne.n	8004da0 <HAL_RCCEx_GetPeriphCLKFreq+0x848>
              frequency = HSI_VALUE;
 8004d7c:	4b52      	ldr	r3, [pc, #328]	@ (8004ec8 <HAL_RCCEx_GetPeriphCLKFreq+0x970>)
 8004d7e:	61fb      	str	r3, [r7, #28]
            break;
 8004d80:	e00e      	b.n	8004da0 <HAL_RCCEx_GetPeriphCLKFreq+0x848>
            if (HAL_IS_BIT_SET(RCC->BDCR, RCC_BDCR_LSERDY))
 8004d82:	4a50      	ldr	r2, [pc, #320]	@ (8004ec4 <HAL_RCCEx_GetPeriphCLKFreq+0x96c>)
 8004d84:	2390      	movs	r3, #144	@ 0x90
 8004d86:	58d3      	ldr	r3, [r2, r3]
 8004d88:	2202      	movs	r2, #2
 8004d8a:	4013      	ands	r3, r2
 8004d8c:	2b02      	cmp	r3, #2
 8004d8e:	d109      	bne.n	8004da4 <HAL_RCCEx_GetPeriphCLKFreq+0x84c>
              frequency = LSE_VALUE;
 8004d90:	2380      	movs	r3, #128	@ 0x80
 8004d92:	021b      	lsls	r3, r3, #8
 8004d94:	61fb      	str	r3, [r7, #28]
            break;
 8004d96:	e005      	b.n	8004da4 <HAL_RCCEx_GetPeriphCLKFreq+0x84c>
            break;
 8004d98:	46c0      	nop			@ (mov r8, r8)
 8004d9a:	e11e      	b.n	8004fda <HAL_RCCEx_GetPeriphCLKFreq+0xa82>
            break;
 8004d9c:	46c0      	nop			@ (mov r8, r8)
 8004d9e:	e11c      	b.n	8004fda <HAL_RCCEx_GetPeriphCLKFreq+0xa82>
            break;
 8004da0:	46c0      	nop			@ (mov r8, r8)
 8004da2:	e11a      	b.n	8004fda <HAL_RCCEx_GetPeriphCLKFreq+0xa82>
            break;
 8004da4:	46c0      	nop			@ (mov r8, r8)
        break;
 8004da6:	e118      	b.n	8004fda <HAL_RCCEx_GetPeriphCLKFreq+0xa82>
        srcclk = __HAL_RCC_GET_TIM1_SOURCE();
 8004da8:	4a46      	ldr	r2, [pc, #280]	@ (8004ec4 <HAL_RCCEx_GetPeriphCLKFreq+0x96c>)
 8004daa:	2388      	movs	r3, #136	@ 0x88
 8004dac:	58d2      	ldr	r2, [r2, r3]
 8004dae:	2380      	movs	r3, #128	@ 0x80
 8004db0:	045b      	lsls	r3, r3, #17
 8004db2:	4013      	ands	r3, r2
 8004db4:	617b      	str	r3, [r7, #20]
        switch (srcclk)
 8004db6:	697b      	ldr	r3, [r7, #20]
 8004db8:	2b00      	cmp	r3, #0
 8004dba:	d005      	beq.n	8004dc8 <HAL_RCCEx_GetPeriphCLKFreq+0x870>
 8004dbc:	697a      	ldr	r2, [r7, #20]
 8004dbe:	2380      	movs	r3, #128	@ 0x80
 8004dc0:	045b      	lsls	r3, r3, #17
 8004dc2:	429a      	cmp	r2, r3
 8004dc4:	d011      	beq.n	8004dea <HAL_RCCEx_GetPeriphCLKFreq+0x892>
            break;
 8004dc6:	e019      	b.n	8004dfc <HAL_RCCEx_GetPeriphCLKFreq+0x8a4>
            if ((READ_BIT(RCC->CFGR, RCC_CFGR_PPRE) == RCC_HCLK_DIV1))
 8004dc8:	4b3e      	ldr	r3, [pc, #248]	@ (8004ec4 <HAL_RCCEx_GetPeriphCLKFreq+0x96c>)
 8004dca:	689a      	ldr	r2, [r3, #8]
 8004dcc:	23e0      	movs	r3, #224	@ 0xe0
 8004dce:	01db      	lsls	r3, r3, #7
 8004dd0:	4013      	ands	r3, r2
 8004dd2:	d104      	bne.n	8004dde <HAL_RCCEx_GetPeriphCLKFreq+0x886>
              frequency = HAL_RCC_GetPCLK1Freq();
 8004dd4:	f7ff f916 	bl	8004004 <HAL_RCC_GetPCLK1Freq>
 8004dd8:	0003      	movs	r3, r0
 8004dda:	61fb      	str	r3, [r7, #28]
            break;
 8004ddc:	e00e      	b.n	8004dfc <HAL_RCCEx_GetPeriphCLKFreq+0x8a4>
              frequency = (HAL_RCC_GetPCLK1Freq() * 2U);
 8004dde:	f7ff f911 	bl	8004004 <HAL_RCC_GetPCLK1Freq>
 8004de2:	0003      	movs	r3, r0
 8004de4:	005b      	lsls	r3, r3, #1
 8004de6:	61fb      	str	r3, [r7, #28]
            break;
 8004de8:	e008      	b.n	8004dfc <HAL_RCCEx_GetPeriphCLKFreq+0x8a4>
            HAL_RCCEx_GetPLLClockFreq(&pll_freq);
 8004dea:	2408      	movs	r4, #8
 8004dec:	193b      	adds	r3, r7, r4
 8004dee:	0018      	movs	r0, r3
 8004df0:	f000 f8fe 	bl	8004ff0 <HAL_RCCEx_GetPLLClockFreq>
            frequency = pll_freq.PLL_Q_Frequency;
 8004df4:	193b      	adds	r3, r7, r4
 8004df6:	685b      	ldr	r3, [r3, #4]
 8004df8:	61fb      	str	r3, [r7, #28]
            break;
 8004dfa:	46c0      	nop			@ (mov r8, r8)
        break;
 8004dfc:	e0ed      	b.n	8004fda <HAL_RCCEx_GetPeriphCLKFreq+0xa82>
        srcclk = __HAL_RCC_GET_TIM15_SOURCE();
 8004dfe:	4a31      	ldr	r2, [pc, #196]	@ (8004ec4 <HAL_RCCEx_GetPeriphCLKFreq+0x96c>)
 8004e00:	2388      	movs	r3, #136	@ 0x88
 8004e02:	58d2      	ldr	r2, [r2, r3]
 8004e04:	2380      	movs	r3, #128	@ 0x80
 8004e06:	049b      	lsls	r3, r3, #18
 8004e08:	4013      	ands	r3, r2
 8004e0a:	617b      	str	r3, [r7, #20]
        switch (srcclk)
 8004e0c:	697b      	ldr	r3, [r7, #20]
 8004e0e:	2b00      	cmp	r3, #0
 8004e10:	d005      	beq.n	8004e1e <HAL_RCCEx_GetPeriphCLKFreq+0x8c6>
 8004e12:	697a      	ldr	r2, [r7, #20]
 8004e14:	2380      	movs	r3, #128	@ 0x80
 8004e16:	049b      	lsls	r3, r3, #18
 8004e18:	429a      	cmp	r2, r3
 8004e1a:	d011      	beq.n	8004e40 <HAL_RCCEx_GetPeriphCLKFreq+0x8e8>
            break;
 8004e1c:	e019      	b.n	8004e52 <HAL_RCCEx_GetPeriphCLKFreq+0x8fa>
            if ((READ_BIT(RCC->CFGR, RCC_CFGR_PPRE) == RCC_HCLK_DIV1))
 8004e1e:	4b29      	ldr	r3, [pc, #164]	@ (8004ec4 <HAL_RCCEx_GetPeriphCLKFreq+0x96c>)
 8004e20:	689a      	ldr	r2, [r3, #8]
 8004e22:	23e0      	movs	r3, #224	@ 0xe0
 8004e24:	01db      	lsls	r3, r3, #7
 8004e26:	4013      	ands	r3, r2
 8004e28:	d104      	bne.n	8004e34 <HAL_RCCEx_GetPeriphCLKFreq+0x8dc>
              frequency = HAL_RCC_GetPCLK1Freq();
 8004e2a:	f7ff f8eb 	bl	8004004 <HAL_RCC_GetPCLK1Freq>
 8004e2e:	0003      	movs	r3, r0
 8004e30:	61fb      	str	r3, [r7, #28]
            break;
 8004e32:	e00e      	b.n	8004e52 <HAL_RCCEx_GetPeriphCLKFreq+0x8fa>
              frequency = (HAL_RCC_GetPCLK1Freq() * 2U);
 8004e34:	f7ff f8e6 	bl	8004004 <HAL_RCC_GetPCLK1Freq>
 8004e38:	0003      	movs	r3, r0
 8004e3a:	005b      	lsls	r3, r3, #1
 8004e3c:	61fb      	str	r3, [r7, #28]
            break;
 8004e3e:	e008      	b.n	8004e52 <HAL_RCCEx_GetPeriphCLKFreq+0x8fa>
            HAL_RCCEx_GetPLLClockFreq(&pll_freq);
 8004e40:	2408      	movs	r4, #8
 8004e42:	193b      	adds	r3, r7, r4
 8004e44:	0018      	movs	r0, r3
 8004e46:	f000 f8d3 	bl	8004ff0 <HAL_RCCEx_GetPLLClockFreq>
            frequency = pll_freq.PLL_Q_Frequency;
 8004e4a:	193b      	adds	r3, r7, r4
 8004e4c:	685b      	ldr	r3, [r3, #4]
 8004e4e:	61fb      	str	r3, [r7, #28]
            break;
 8004e50:	46c0      	nop			@ (mov r8, r8)
        break;
 8004e52:	e0c2      	b.n	8004fda <HAL_RCCEx_GetPeriphCLKFreq+0xa82>
        srcclk = __HAL_RCC_GET_USB_SOURCE();
 8004e54:	4a1b      	ldr	r2, [pc, #108]	@ (8004ec4 <HAL_RCCEx_GetPeriphCLKFreq+0x96c>)
 8004e56:	2388      	movs	r3, #136	@ 0x88
 8004e58:	58d2      	ldr	r2, [r2, r3]
 8004e5a:	23c0      	movs	r3, #192	@ 0xc0
 8004e5c:	051b      	lsls	r3, r3, #20
 8004e5e:	4013      	ands	r3, r2
 8004e60:	617b      	str	r3, [r7, #20]
        switch (srcclk)
 8004e62:	697a      	ldr	r2, [r7, #20]
 8004e64:	23c0      	movs	r3, #192	@ 0xc0
 8004e66:	051b      	lsls	r3, r3, #20
 8004e68:	429a      	cmp	r2, r3
 8004e6a:	d017      	beq.n	8004e9c <HAL_RCCEx_GetPeriphCLKFreq+0x944>
 8004e6c:	697a      	ldr	r2, [r7, #20]
 8004e6e:	23c0      	movs	r3, #192	@ 0xc0
 8004e70:	051b      	lsls	r3, r3, #20
 8004e72:	429a      	cmp	r2, r3
 8004e74:	d84a      	bhi.n	8004f0c <HAL_RCCEx_GetPeriphCLKFreq+0x9b4>
 8004e76:	697a      	ldr	r2, [r7, #20]
 8004e78:	2380      	movs	r3, #128	@ 0x80
 8004e7a:	051b      	lsls	r3, r3, #20
 8004e7c:	429a      	cmp	r2, r3
 8004e7e:	d039      	beq.n	8004ef4 <HAL_RCCEx_GetPeriphCLKFreq+0x99c>
 8004e80:	697a      	ldr	r2, [r7, #20]
 8004e82:	2380      	movs	r3, #128	@ 0x80
 8004e84:	051b      	lsls	r3, r3, #20
 8004e86:	429a      	cmp	r2, r3
 8004e88:	d840      	bhi.n	8004f0c <HAL_RCCEx_GetPeriphCLKFreq+0x9b4>
 8004e8a:	697b      	ldr	r3, [r7, #20]
 8004e8c:	2b00      	cmp	r3, #0
 8004e8e:	d03a      	beq.n	8004f06 <HAL_RCCEx_GetPeriphCLKFreq+0x9ae>
 8004e90:	697a      	ldr	r2, [r7, #20]
 8004e92:	2380      	movs	r3, #128	@ 0x80
 8004e94:	04db      	lsls	r3, r3, #19
 8004e96:	429a      	cmp	r2, r3
 8004e98:	d003      	beq.n	8004ea2 <HAL_RCCEx_GetPeriphCLKFreq+0x94a>
            break;
 8004e9a:	e037      	b.n	8004f0c <HAL_RCCEx_GetPeriphCLKFreq+0x9b4>
            frequency = HSI48_VALUE;
 8004e9c:	4b0b      	ldr	r3, [pc, #44]	@ (8004ecc <HAL_RCCEx_GetPeriphCLKFreq+0x974>)
 8004e9e:	61fb      	str	r3, [r7, #28]
            break;
 8004ea0:	e037      	b.n	8004f12 <HAL_RCCEx_GetPeriphCLKFreq+0x9ba>
            if (HAL_IS_BIT_SET(RCC->CR, RCC_CR_MSIRDY))
 8004ea2:	4b08      	ldr	r3, [pc, #32]	@ (8004ec4 <HAL_RCCEx_GetPeriphCLKFreq+0x96c>)
 8004ea4:	681b      	ldr	r3, [r3, #0]
 8004ea6:	2202      	movs	r2, #2
 8004ea8:	4013      	ands	r3, r2
 8004eaa:	2b02      	cmp	r3, #2
 8004eac:	d130      	bne.n	8004f10 <HAL_RCCEx_GetPeriphCLKFreq+0x9b8>
              msirange = (__HAL_RCC_GET_MSI_RANGE() >> 4U);
 8004eae:	4b05      	ldr	r3, [pc, #20]	@ (8004ec4 <HAL_RCCEx_GetPeriphCLKFreq+0x96c>)
 8004eb0:	681b      	ldr	r3, [r3, #0]
 8004eb2:	2208      	movs	r2, #8
 8004eb4:	4013      	ands	r3, r2
 8004eb6:	d00b      	beq.n	8004ed0 <HAL_RCCEx_GetPeriphCLKFreq+0x978>
 8004eb8:	4b02      	ldr	r3, [pc, #8]	@ (8004ec4 <HAL_RCCEx_GetPeriphCLKFreq+0x96c>)
 8004eba:	681b      	ldr	r3, [r3, #0]
 8004ebc:	091b      	lsrs	r3, r3, #4
 8004ebe:	220f      	movs	r2, #15
 8004ec0:	4013      	ands	r3, r2
 8004ec2:	e00b      	b.n	8004edc <HAL_RCCEx_GetPeriphCLKFreq+0x984>
 8004ec4:	40021000 	.word	0x40021000
 8004ec8:	00f42400 	.word	0x00f42400
 8004ecc:	02dc6c00 	.word	0x02dc6c00
 8004ed0:	4a44      	ldr	r2, [pc, #272]	@ (8004fe4 <HAL_RCCEx_GetPeriphCLKFreq+0xa8c>)
 8004ed2:	2394      	movs	r3, #148	@ 0x94
 8004ed4:	58d3      	ldr	r3, [r2, r3]
 8004ed6:	0a1b      	lsrs	r3, r3, #8
 8004ed8:	220f      	movs	r2, #15
 8004eda:	4013      	ands	r3, r2
 8004edc:	61bb      	str	r3, [r7, #24]
              if (msirange > 11U)
 8004ede:	69bb      	ldr	r3, [r7, #24]
 8004ee0:	2b0b      	cmp	r3, #11
 8004ee2:	d901      	bls.n	8004ee8 <HAL_RCCEx_GetPeriphCLKFreq+0x990>
                msirange = 11U;
 8004ee4:	230b      	movs	r3, #11
 8004ee6:	61bb      	str	r3, [r7, #24]
              frequency = MSIRangeTable[msirange];
 8004ee8:	4b3f      	ldr	r3, [pc, #252]	@ (8004fe8 <HAL_RCCEx_GetPeriphCLKFreq+0xa90>)
 8004eea:	69ba      	ldr	r2, [r7, #24]
 8004eec:	0092      	lsls	r2, r2, #2
 8004eee:	58d3      	ldr	r3, [r2, r3]
 8004ef0:	61fb      	str	r3, [r7, #28]
            break;
 8004ef2:	e00d      	b.n	8004f10 <HAL_RCCEx_GetPeriphCLKFreq+0x9b8>
            HAL_RCCEx_GetPLLClockFreq(&pll_freq);
 8004ef4:	2408      	movs	r4, #8
 8004ef6:	193b      	adds	r3, r7, r4
 8004ef8:	0018      	movs	r0, r3
 8004efa:	f000 f879 	bl	8004ff0 <HAL_RCCEx_GetPLLClockFreq>
            frequency = pll_freq.PLL_Q_Frequency;
 8004efe:	193b      	adds	r3, r7, r4
 8004f00:	685b      	ldr	r3, [r3, #4]
 8004f02:	61fb      	str	r3, [r7, #28]
            break;
 8004f04:	e005      	b.n	8004f12 <HAL_RCCEx_GetPeriphCLKFreq+0x9ba>
            frequency = 0U;
 8004f06:	2300      	movs	r3, #0
 8004f08:	61fb      	str	r3, [r7, #28]
            break;
 8004f0a:	e002      	b.n	8004f12 <HAL_RCCEx_GetPeriphCLKFreq+0x9ba>
            break;
 8004f0c:	46c0      	nop			@ (mov r8, r8)
 8004f0e:	e064      	b.n	8004fda <HAL_RCCEx_GetPeriphCLKFreq+0xa82>
            break;
 8004f10:	46c0      	nop			@ (mov r8, r8)
        break;
 8004f12:	e062      	b.n	8004fda <HAL_RCCEx_GetPeriphCLKFreq+0xa82>
        srcclk = __HAL_RCC_GET_RNG_SOURCE();
 8004f14:	4a33      	ldr	r2, [pc, #204]	@ (8004fe4 <HAL_RCCEx_GetPeriphCLKFreq+0xa8c>)
 8004f16:	2388      	movs	r3, #136	@ 0x88
 8004f18:	58d2      	ldr	r2, [r2, r3]
 8004f1a:	23c0      	movs	r3, #192	@ 0xc0
 8004f1c:	051b      	lsls	r3, r3, #20
 8004f1e:	4013      	ands	r3, r2
 8004f20:	617b      	str	r3, [r7, #20]
        switch (srcclk)
 8004f22:	697a      	ldr	r2, [r7, #20]
 8004f24:	23c0      	movs	r3, #192	@ 0xc0
 8004f26:	051b      	lsls	r3, r3, #20
 8004f28:	429a      	cmp	r2, r3
 8004f2a:	d017      	beq.n	8004f5c <HAL_RCCEx_GetPeriphCLKFreq+0xa04>
 8004f2c:	697a      	ldr	r2, [r7, #20]
 8004f2e:	23c0      	movs	r3, #192	@ 0xc0
 8004f30:	051b      	lsls	r3, r3, #20
 8004f32:	429a      	cmp	r2, r3
 8004f34:	d844      	bhi.n	8004fc0 <HAL_RCCEx_GetPeriphCLKFreq+0xa68>
 8004f36:	697a      	ldr	r2, [r7, #20]
 8004f38:	2380      	movs	r3, #128	@ 0x80
 8004f3a:	051b      	lsls	r3, r3, #20
 8004f3c:	429a      	cmp	r2, r3
 8004f3e:	d033      	beq.n	8004fa8 <HAL_RCCEx_GetPeriphCLKFreq+0xa50>
 8004f40:	697a      	ldr	r2, [r7, #20]
 8004f42:	2380      	movs	r3, #128	@ 0x80
 8004f44:	051b      	lsls	r3, r3, #20
 8004f46:	429a      	cmp	r2, r3
 8004f48:	d83a      	bhi.n	8004fc0 <HAL_RCCEx_GetPeriphCLKFreq+0xa68>
 8004f4a:	697b      	ldr	r3, [r7, #20]
 8004f4c:	2b00      	cmp	r3, #0
 8004f4e:	d034      	beq.n	8004fba <HAL_RCCEx_GetPeriphCLKFreq+0xa62>
 8004f50:	697a      	ldr	r2, [r7, #20]
 8004f52:	2380      	movs	r3, #128	@ 0x80
 8004f54:	04db      	lsls	r3, r3, #19
 8004f56:	429a      	cmp	r2, r3
 8004f58:	d003      	beq.n	8004f62 <HAL_RCCEx_GetPeriphCLKFreq+0xa0a>
            break;
 8004f5a:	e031      	b.n	8004fc0 <HAL_RCCEx_GetPeriphCLKFreq+0xa68>
            frequency = HSI48_VALUE;
 8004f5c:	4b23      	ldr	r3, [pc, #140]	@ (8004fec <HAL_RCCEx_GetPeriphCLKFreq+0xa94>)
 8004f5e:	61fb      	str	r3, [r7, #28]
            break;
 8004f60:	e031      	b.n	8004fc6 <HAL_RCCEx_GetPeriphCLKFreq+0xa6e>
            if (HAL_IS_BIT_SET(RCC->CR, RCC_CR_MSIRDY))
 8004f62:	4b20      	ldr	r3, [pc, #128]	@ (8004fe4 <HAL_RCCEx_GetPeriphCLKFreq+0xa8c>)
 8004f64:	681b      	ldr	r3, [r3, #0]
 8004f66:	2202      	movs	r2, #2
 8004f68:	4013      	ands	r3, r2
 8004f6a:	2b02      	cmp	r3, #2
 8004f6c:	d12a      	bne.n	8004fc4 <HAL_RCCEx_GetPeriphCLKFreq+0xa6c>
              msirange = (__HAL_RCC_GET_MSI_RANGE() >> 4U);
 8004f6e:	4b1d      	ldr	r3, [pc, #116]	@ (8004fe4 <HAL_RCCEx_GetPeriphCLKFreq+0xa8c>)
 8004f70:	681b      	ldr	r3, [r3, #0]
 8004f72:	2208      	movs	r2, #8
 8004f74:	4013      	ands	r3, r2
 8004f76:	d005      	beq.n	8004f84 <HAL_RCCEx_GetPeriphCLKFreq+0xa2c>
 8004f78:	4b1a      	ldr	r3, [pc, #104]	@ (8004fe4 <HAL_RCCEx_GetPeriphCLKFreq+0xa8c>)
 8004f7a:	681b      	ldr	r3, [r3, #0]
 8004f7c:	091b      	lsrs	r3, r3, #4
 8004f7e:	220f      	movs	r2, #15
 8004f80:	4013      	ands	r3, r2
 8004f82:	e005      	b.n	8004f90 <HAL_RCCEx_GetPeriphCLKFreq+0xa38>
 8004f84:	4a17      	ldr	r2, [pc, #92]	@ (8004fe4 <HAL_RCCEx_GetPeriphCLKFreq+0xa8c>)
 8004f86:	2394      	movs	r3, #148	@ 0x94
 8004f88:	58d3      	ldr	r3, [r2, r3]
 8004f8a:	0a1b      	lsrs	r3, r3, #8
 8004f8c:	220f      	movs	r2, #15
 8004f8e:	4013      	ands	r3, r2
 8004f90:	61bb      	str	r3, [r7, #24]
              if (msirange > 11U)
 8004f92:	69bb      	ldr	r3, [r7, #24]
 8004f94:	2b0b      	cmp	r3, #11
 8004f96:	d901      	bls.n	8004f9c <HAL_RCCEx_GetPeriphCLKFreq+0xa44>
                msirange = 11U;
 8004f98:	230b      	movs	r3, #11
 8004f9a:	61bb      	str	r3, [r7, #24]
              frequency = MSIRangeTable[msirange];
 8004f9c:	4b12      	ldr	r3, [pc, #72]	@ (8004fe8 <HAL_RCCEx_GetPeriphCLKFreq+0xa90>)
 8004f9e:	69ba      	ldr	r2, [r7, #24]
 8004fa0:	0092      	lsls	r2, r2, #2
 8004fa2:	58d3      	ldr	r3, [r2, r3]
 8004fa4:	61fb      	str	r3, [r7, #28]
            break;
 8004fa6:	e00d      	b.n	8004fc4 <HAL_RCCEx_GetPeriphCLKFreq+0xa6c>
            HAL_RCCEx_GetPLLClockFreq(&pll_freq);
 8004fa8:	2408      	movs	r4, #8
 8004faa:	193b      	adds	r3, r7, r4
 8004fac:	0018      	movs	r0, r3
 8004fae:	f000 f81f 	bl	8004ff0 <HAL_RCCEx_GetPLLClockFreq>
            frequency = pll_freq.PLL_Q_Frequency;
 8004fb2:	193b      	adds	r3, r7, r4
 8004fb4:	685b      	ldr	r3, [r3, #4]
 8004fb6:	61fb      	str	r3, [r7, #28]
            break;
 8004fb8:	e005      	b.n	8004fc6 <HAL_RCCEx_GetPeriphCLKFreq+0xa6e>
            frequency = 0U;
 8004fba:	2300      	movs	r3, #0
 8004fbc:	61fb      	str	r3, [r7, #28]
            break;
 8004fbe:	e002      	b.n	8004fc6 <HAL_RCCEx_GetPeriphCLKFreq+0xa6e>
            break;
 8004fc0:	46c0      	nop			@ (mov r8, r8)
 8004fc2:	e00a      	b.n	8004fda <HAL_RCCEx_GetPeriphCLKFreq+0xa82>
            break;
 8004fc4:	46c0      	nop			@ (mov r8, r8)
        break;
 8004fc6:	e008      	b.n	8004fda <HAL_RCCEx_GetPeriphCLKFreq+0xa82>
        break;
 8004fc8:	46c0      	nop			@ (mov r8, r8)
 8004fca:	e006      	b.n	8004fda <HAL_RCCEx_GetPeriphCLKFreq+0xa82>
        break;
 8004fcc:	46c0      	nop			@ (mov r8, r8)
 8004fce:	e004      	b.n	8004fda <HAL_RCCEx_GetPeriphCLKFreq+0xa82>
        break;
 8004fd0:	46c0      	nop			@ (mov r8, r8)
 8004fd2:	e002      	b.n	8004fda <HAL_RCCEx_GetPeriphCLKFreq+0xa82>
        break;
 8004fd4:	46c0      	nop			@ (mov r8, r8)
 8004fd6:	e000      	b.n	8004fda <HAL_RCCEx_GetPeriphCLKFreq+0xa82>
        break;
 8004fd8:	46c0      	nop			@ (mov r8, r8)
    }
  }
  return (frequency);
 8004fda:	69fb      	ldr	r3, [r7, #28]
}
 8004fdc:	0018      	movs	r0, r3
 8004fde:	46bd      	mov	sp, r7
 8004fe0:	b009      	add	sp, #36	@ 0x24
 8004fe2:	bd90      	pop	{r4, r7, pc}
 8004fe4:	40021000 	.word	0x40021000
 8004fe8:	08006dcc 	.word	0x08006dcc
 8004fec:	02dc6c00 	.word	0x02dc6c00

08004ff0 <HAL_RCCEx_GetPLLClockFreq>:
  * @param  PLL_Clocks structure.
  * @retval None
  */

void HAL_RCCEx_GetPLLClockFreq(PLL_ClocksTypeDef *PLL_Clocks)
{
 8004ff0:	b580      	push	{r7, lr}
 8004ff2:	b088      	sub	sp, #32
 8004ff4:	af00      	add	r7, sp, #0
 8004ff6:	6078      	str	r0, [r7, #4]
  uint32_t pllm;
  uint32_t plln;
  uint32_t pllvco;
  uint32_t msirange;

  plln = ((RCC->PLLCFGR & RCC_PLLCFGR_PLLN) >> RCC_PLLCFGR_PLLN_Pos);
 8004ff8:	4b58      	ldr	r3, [pc, #352]	@ (800515c <HAL_RCCEx_GetPLLClockFreq+0x16c>)
 8004ffa:	68db      	ldr	r3, [r3, #12]
 8004ffc:	0a1b      	lsrs	r3, r3, #8
 8004ffe:	227f      	movs	r2, #127	@ 0x7f
 8005000:	4013      	ands	r3, r2
 8005002:	617b      	str	r3, [r7, #20]
  pllsource = (RCC->PLLCFGR & RCC_PLLCFGR_PLLSRC);
 8005004:	4b55      	ldr	r3, [pc, #340]	@ (800515c <HAL_RCCEx_GetPLLClockFreq+0x16c>)
 8005006:	68db      	ldr	r3, [r3, #12]
 8005008:	2203      	movs	r2, #3
 800500a:	4013      	ands	r3, r2
 800500c:	613b      	str	r3, [r7, #16]
  pllm = ((RCC->PLLCFGR & RCC_PLLCFGR_PLLM) >> RCC_PLLCFGR_PLLM_Pos) + 1U;
 800500e:	4b53      	ldr	r3, [pc, #332]	@ (800515c <HAL_RCCEx_GetPLLClockFreq+0x16c>)
 8005010:	68db      	ldr	r3, [r3, #12]
 8005012:	091b      	lsrs	r3, r3, #4
 8005014:	2207      	movs	r2, #7
 8005016:	4013      	ands	r3, r2
 8005018:	3301      	adds	r3, #1
 800501a:	60fb      	str	r3, [r7, #12]
  msirange = (__HAL_RCC_GET_MSI_RANGE() >> 4U);
 800501c:	4b4f      	ldr	r3, [pc, #316]	@ (800515c <HAL_RCCEx_GetPLLClockFreq+0x16c>)
 800501e:	681b      	ldr	r3, [r3, #0]
 8005020:	2208      	movs	r2, #8
 8005022:	4013      	ands	r3, r2
 8005024:	d005      	beq.n	8005032 <HAL_RCCEx_GetPLLClockFreq+0x42>
 8005026:	4b4d      	ldr	r3, [pc, #308]	@ (800515c <HAL_RCCEx_GetPLLClockFreq+0x16c>)
 8005028:	681b      	ldr	r3, [r3, #0]
 800502a:	091b      	lsrs	r3, r3, #4
 800502c:	220f      	movs	r2, #15
 800502e:	4013      	ands	r3, r2
 8005030:	e005      	b.n	800503e <HAL_RCCEx_GetPLLClockFreq+0x4e>
 8005032:	4a4a      	ldr	r2, [pc, #296]	@ (800515c <HAL_RCCEx_GetPLLClockFreq+0x16c>)
 8005034:	2394      	movs	r3, #148	@ 0x94
 8005036:	58d3      	ldr	r3, [r2, r3]
 8005038:	0a1b      	lsrs	r3, r3, #8
 800503a:	220f      	movs	r2, #15
 800503c:	4013      	ands	r3, r2
 800503e:	61bb      	str	r3, [r7, #24]
  if (msirange > 11U)
 8005040:	69bb      	ldr	r3, [r7, #24]
 8005042:	2b0b      	cmp	r3, #11
 8005044:	d901      	bls.n	800504a <HAL_RCCEx_GetPLLClockFreq+0x5a>
  {
    msirange = 11U;
 8005046:	230b      	movs	r3, #11
 8005048:	61bb      	str	r3, [r7, #24]
  }
  switch (pllsource)
 800504a:	693b      	ldr	r3, [r7, #16]
 800504c:	2b03      	cmp	r3, #3
 800504e:	d020      	beq.n	8005092 <HAL_RCCEx_GetPLLClockFreq+0xa2>
 8005050:	693b      	ldr	r3, [r7, #16]
 8005052:	2b03      	cmp	r3, #3
 8005054:	d827      	bhi.n	80050a6 <HAL_RCCEx_GetPLLClockFreq+0xb6>
 8005056:	693b      	ldr	r3, [r7, #16]
 8005058:	2b01      	cmp	r3, #1
 800505a:	d00c      	beq.n	8005076 <HAL_RCCEx_GetPLLClockFreq+0x86>
 800505c:	693b      	ldr	r3, [r7, #16]
 800505e:	2b02      	cmp	r3, #2
 8005060:	d121      	bne.n	80050a6 <HAL_RCCEx_GetPLLClockFreq+0xb6>
  {

    case RCC_PLLSOURCE_HSI:  /* HSI used as PLL clock source */
      pllvco = (HSI_VALUE / pllm) * plln;
 8005062:	68f9      	ldr	r1, [r7, #12]
 8005064:	483e      	ldr	r0, [pc, #248]	@ (8005160 <HAL_RCCEx_GetPLLClockFreq+0x170>)
 8005066:	f7fb f859 	bl	800011c <__udivsi3>
 800506a:	0003      	movs	r3, r0
 800506c:	001a      	movs	r2, r3
 800506e:	697b      	ldr	r3, [r7, #20]
 8005070:	4353      	muls	r3, r2
 8005072:	61fb      	str	r3, [r7, #28]
      break;
 8005074:	e025      	b.n	80050c2 <HAL_RCCEx_GetPLLClockFreq+0xd2>

    case RCC_PLLSOURCE_MSI:  /* MSI used as PLL clock source */
      pllvco = ((MSIRangeTable[msirange] / pllm) * plln);
 8005076:	4b3b      	ldr	r3, [pc, #236]	@ (8005164 <HAL_RCCEx_GetPLLClockFreq+0x174>)
 8005078:	69ba      	ldr	r2, [r7, #24]
 800507a:	0092      	lsls	r2, r2, #2
 800507c:	58d3      	ldr	r3, [r2, r3]
 800507e:	68f9      	ldr	r1, [r7, #12]
 8005080:	0018      	movs	r0, r3
 8005082:	f7fb f84b 	bl	800011c <__udivsi3>
 8005086:	0003      	movs	r3, r0
 8005088:	001a      	movs	r2, r3
 800508a:	697b      	ldr	r3, [r7, #20]
 800508c:	4353      	muls	r3, r2
 800508e:	61fb      	str	r3, [r7, #28]
      break;
 8005090:	e017      	b.n	80050c2 <HAL_RCCEx_GetPLLClockFreq+0xd2>

    case RCC_PLLSOURCE_HSE:  /* HSE used as PLL clock source */
      pllvco = (HSE_VALUE / pllm) * plln;
 8005092:	68f9      	ldr	r1, [r7, #12]
 8005094:	4834      	ldr	r0, [pc, #208]	@ (8005168 <HAL_RCCEx_GetPLLClockFreq+0x178>)
 8005096:	f7fb f841 	bl	800011c <__udivsi3>
 800509a:	0003      	movs	r3, r0
 800509c:	001a      	movs	r2, r3
 800509e:	697b      	ldr	r3, [r7, #20]
 80050a0:	4353      	muls	r3, r2
 80050a2:	61fb      	str	r3, [r7, #28]
      break;
 80050a4:	e00d      	b.n	80050c2 <HAL_RCCEx_GetPLLClockFreq+0xd2>

    default:
      pllvco = ((MSIRangeTable[msirange] / pllm) * plln);
 80050a6:	4b2f      	ldr	r3, [pc, #188]	@ (8005164 <HAL_RCCEx_GetPLLClockFreq+0x174>)
 80050a8:	69ba      	ldr	r2, [r7, #24]
 80050aa:	0092      	lsls	r2, r2, #2
 80050ac:	58d3      	ldr	r3, [r2, r3]
 80050ae:	68f9      	ldr	r1, [r7, #12]
 80050b0:	0018      	movs	r0, r3
 80050b2:	f7fb f833 	bl	800011c <__udivsi3>
 80050b6:	0003      	movs	r3, r0
 80050b8:	001a      	movs	r2, r3
 80050ba:	697b      	ldr	r3, [r7, #20]
 80050bc:	4353      	muls	r3, r2
 80050be:	61fb      	str	r3, [r7, #28]
      break;
 80050c0:	46c0      	nop			@ (mov r8, r8)
  }

  if (__HAL_RCC_GET_PLLCLKOUT_CONFIG(RCC_PLL_DIVP) != 0U)
 80050c2:	4b26      	ldr	r3, [pc, #152]	@ (800515c <HAL_RCCEx_GetPLLClockFreq+0x16c>)
 80050c4:	68da      	ldr	r2, [r3, #12]
 80050c6:	2380      	movs	r3, #128	@ 0x80
 80050c8:	025b      	lsls	r3, r3, #9
 80050ca:	4013      	ands	r3, r2
 80050cc:	d00e      	beq.n	80050ec <HAL_RCCEx_GetPLLClockFreq+0xfc>
  {
    PLL_Clocks->PLL_P_Frequency = (uint32_t)(pllvco / (((RCC->PLLCFGR & RCC_PLLCFGR_PLLP) \
 80050ce:	4b23      	ldr	r3, [pc, #140]	@ (800515c <HAL_RCCEx_GetPLLClockFreq+0x16c>)
 80050d0:	68db      	ldr	r3, [r3, #12]
                                                        >> RCC_PLLCFGR_PLLP_Pos) + 1U));
 80050d2:	0c5b      	lsrs	r3, r3, #17
 80050d4:	221f      	movs	r2, #31
 80050d6:	4013      	ands	r3, r2
 80050d8:	3301      	adds	r3, #1
    PLL_Clocks->PLL_P_Frequency = (uint32_t)(pllvco / (((RCC->PLLCFGR & RCC_PLLCFGR_PLLP) \
 80050da:	0019      	movs	r1, r3
 80050dc:	69f8      	ldr	r0, [r7, #28]
 80050de:	f7fb f81d 	bl	800011c <__udivsi3>
 80050e2:	0003      	movs	r3, r0
 80050e4:	001a      	movs	r2, r3
 80050e6:	687b      	ldr	r3, [r7, #4]
 80050e8:	601a      	str	r2, [r3, #0]
 80050ea:	e002      	b.n	80050f2 <HAL_RCCEx_GetPLLClockFreq+0x102>
  }
  else
  {
    PLL_Clocks->PLL_P_Frequency = 0;
 80050ec:	687b      	ldr	r3, [r7, #4]
 80050ee:	2200      	movs	r2, #0
 80050f0:	601a      	str	r2, [r3, #0]
  }

  if (__HAL_RCC_GET_PLLCLKOUT_CONFIG(RCC_PLL_DIVQ) != 0U)
 80050f2:	4b1a      	ldr	r3, [pc, #104]	@ (800515c <HAL_RCCEx_GetPLLClockFreq+0x16c>)
 80050f4:	68da      	ldr	r2, [r3, #12]
 80050f6:	2380      	movs	r3, #128	@ 0x80
 80050f8:	045b      	lsls	r3, r3, #17
 80050fa:	4013      	ands	r3, r2
 80050fc:	d00e      	beq.n	800511c <HAL_RCCEx_GetPLLClockFreq+0x12c>
  {
    PLL_Clocks->PLL_Q_Frequency = (uint32_t)(pllvco / (((RCC->PLLCFGR & RCC_PLLCFGR_PLLQ) \
 80050fe:	4b17      	ldr	r3, [pc, #92]	@ (800515c <HAL_RCCEx_GetPLLClockFreq+0x16c>)
 8005100:	68db      	ldr	r3, [r3, #12]
                                                        >> RCC_PLLCFGR_PLLQ_Pos) + 1U));
 8005102:	0e5b      	lsrs	r3, r3, #25
 8005104:	2207      	movs	r2, #7
 8005106:	4013      	ands	r3, r2
 8005108:	3301      	adds	r3, #1
    PLL_Clocks->PLL_Q_Frequency = (uint32_t)(pllvco / (((RCC->PLLCFGR & RCC_PLLCFGR_PLLQ) \
 800510a:	0019      	movs	r1, r3
 800510c:	69f8      	ldr	r0, [r7, #28]
 800510e:	f7fb f805 	bl	800011c <__udivsi3>
 8005112:	0003      	movs	r3, r0
 8005114:	001a      	movs	r2, r3
 8005116:	687b      	ldr	r3, [r7, #4]
 8005118:	605a      	str	r2, [r3, #4]
 800511a:	e002      	b.n	8005122 <HAL_RCCEx_GetPLLClockFreq+0x132>
  }
  else
  {
    PLL_Clocks->PLL_Q_Frequency = 0;
 800511c:	687b      	ldr	r3, [r7, #4]
 800511e:	2200      	movs	r2, #0
 8005120:	605a      	str	r2, [r3, #4]
  }

  if (__HAL_RCC_GET_PLLCLKOUT_CONFIG(RCC_PLL_DIVR) != 0U)
 8005122:	4b0e      	ldr	r3, [pc, #56]	@ (800515c <HAL_RCCEx_GetPLLClockFreq+0x16c>)
 8005124:	68da      	ldr	r2, [r3, #12]
 8005126:	2380      	movs	r3, #128	@ 0x80
 8005128:	055b      	lsls	r3, r3, #21
 800512a:	4013      	ands	r3, r2
 800512c:	d00e      	beq.n	800514c <HAL_RCCEx_GetPLLClockFreq+0x15c>
  {
    PLL_Clocks->PLL_R_Frequency = (uint32_t)(pllvco / (((RCC->PLLCFGR & RCC_PLLCFGR_PLLR) \
 800512e:	4b0b      	ldr	r3, [pc, #44]	@ (800515c <HAL_RCCEx_GetPLLClockFreq+0x16c>)
 8005130:	68db      	ldr	r3, [r3, #12]
                                                        >> RCC_PLLCFGR_PLLR_Pos) + 1U));
 8005132:	0f5b      	lsrs	r3, r3, #29
 8005134:	2207      	movs	r2, #7
 8005136:	4013      	ands	r3, r2
 8005138:	3301      	adds	r3, #1
    PLL_Clocks->PLL_R_Frequency = (uint32_t)(pllvco / (((RCC->PLLCFGR & RCC_PLLCFGR_PLLR) \
 800513a:	0019      	movs	r1, r3
 800513c:	69f8      	ldr	r0, [r7, #28]
 800513e:	f7fa ffed 	bl	800011c <__udivsi3>
 8005142:	0003      	movs	r3, r0
 8005144:	001a      	movs	r2, r3
 8005146:	687b      	ldr	r3, [r7, #4]
 8005148:	609a      	str	r2, [r3, #8]
  }
  else
  {
    PLL_Clocks->PLL_R_Frequency = 0;
  }
}
 800514a:	e002      	b.n	8005152 <HAL_RCCEx_GetPLLClockFreq+0x162>
    PLL_Clocks->PLL_R_Frequency = 0;
 800514c:	687b      	ldr	r3, [r7, #4]
 800514e:	2200      	movs	r2, #0
 8005150:	609a      	str	r2, [r3, #8]
}
 8005152:	46c0      	nop			@ (mov r8, r8)
 8005154:	46bd      	mov	sp, r7
 8005156:	b008      	add	sp, #32
 8005158:	bd80      	pop	{r7, pc}
 800515a:	46c0      	nop			@ (mov r8, r8)
 800515c:	40021000 	.word	0x40021000
 8005160:	00f42400 	.word	0x00f42400
 8005164:	08006dcc 	.word	0x08006dcc
 8005168:	003d0900 	.word	0x003d0900

0800516c <HAL_RNG_Init>:
  * @param  hrng pointer to a RNG_HandleTypeDef structure that contains
  *                the configuration information for RNG.
  * @retval HAL status
  */
HAL_StatusTypeDef HAL_RNG_Init(RNG_HandleTypeDef *hrng)
{
 800516c:	b580      	push	{r7, lr}
 800516e:	b084      	sub	sp, #16
 8005170:	af00      	add	r7, sp, #0
 8005172:	6078      	str	r0, [r7, #4]
  uint32_t tickstart;
  /* Check the RNG handle allocation */
  if (hrng == NULL)
 8005174:	687b      	ldr	r3, [r7, #4]
 8005176:	2b00      	cmp	r3, #0
 8005178:	d101      	bne.n	800517e <HAL_RNG_Init+0x12>
  {
    return HAL_ERROR;
 800517a:	2301      	movs	r3, #1
 800517c:	e091      	b.n	80052a2 <HAL_RNG_Init+0x136>

    /* Init the low level hardware */
    hrng->MspInitCallback(hrng);
  }
#else
  if (hrng->State == HAL_RNG_STATE_RESET)
 800517e:	687b      	ldr	r3, [r7, #4]
 8005180:	7a5b      	ldrb	r3, [r3, #9]
 8005182:	b2db      	uxtb	r3, r3
 8005184:	2b00      	cmp	r3, #0
 8005186:	d106      	bne.n	8005196 <HAL_RNG_Init+0x2a>
  {
    /* Allocate lock resource and initialize it */
    hrng->Lock = HAL_UNLOCKED;
 8005188:	687b      	ldr	r3, [r7, #4]
 800518a:	2200      	movs	r2, #0
 800518c:	721a      	strb	r2, [r3, #8]

    /* Init the low level hardware */
    HAL_RNG_MspInit(hrng);
 800518e:	687b      	ldr	r3, [r7, #4]
 8005190:	0018      	movs	r0, r3
 8005192:	f7fb fb59 	bl	8000848 <HAL_RNG_MspInit>
  }
#endif /* USE_HAL_RNG_REGISTER_CALLBACKS */

  /* Change RNG peripheral state */
  hrng->State = HAL_RNG_STATE_BUSY;
 8005196:	687b      	ldr	r3, [r7, #4]
 8005198:	2202      	movs	r2, #2
 800519a:	725a      	strb	r2, [r3, #9]

  /* Disable RNG */
  __HAL_RNG_DISABLE(hrng);
 800519c:	687b      	ldr	r3, [r7, #4]
 800519e:	681b      	ldr	r3, [r3, #0]
 80051a0:	681a      	ldr	r2, [r3, #0]
 80051a2:	687b      	ldr	r3, [r7, #4]
 80051a4:	681b      	ldr	r3, [r3, #0]
 80051a6:	2104      	movs	r1, #4
 80051a8:	438a      	bics	r2, r1
 80051aa:	601a      	str	r2, [r3, #0]

  /* Clock Error Detection Configuration when CONDRT bit is set to 1 */
  MODIFY_REG(hrng->Instance->CR, RNG_CR_CED | RNG_CR_CONDRST, hrng->Init.ClockErrorDetection | RNG_CR_CONDRST);
 80051ac:	687b      	ldr	r3, [r7, #4]
 80051ae:	681b      	ldr	r3, [r3, #0]
 80051b0:	681b      	ldr	r3, [r3, #0]
 80051b2:	4a3e      	ldr	r2, [pc, #248]	@ (80052ac <HAL_RNG_Init+0x140>)
 80051b4:	401a      	ands	r2, r3
 80051b6:	687b      	ldr	r3, [r7, #4]
 80051b8:	685b      	ldr	r3, [r3, #4]
 80051ba:	431a      	orrs	r2, r3
 80051bc:	687b      	ldr	r3, [r7, #4]
 80051be:	681b      	ldr	r3, [r3, #0]
 80051c0:	2180      	movs	r1, #128	@ 0x80
 80051c2:	05c9      	lsls	r1, r1, #23
 80051c4:	430a      	orrs	r2, r1
 80051c6:	601a      	str	r2, [r3, #0]

  /* Writing bit CONDRST=0 */
  CLEAR_BIT(hrng->Instance->CR, RNG_CR_CONDRST);
 80051c8:	687b      	ldr	r3, [r7, #4]
 80051ca:	681b      	ldr	r3, [r3, #0]
 80051cc:	681a      	ldr	r2, [r3, #0]
 80051ce:	687b      	ldr	r3, [r7, #4]
 80051d0:	681b      	ldr	r3, [r3, #0]
 80051d2:	4937      	ldr	r1, [pc, #220]	@ (80052b0 <HAL_RNG_Init+0x144>)
 80051d4:	400a      	ands	r2, r1
 80051d6:	601a      	str	r2, [r3, #0]

  /* Get tick */
  tickstart = HAL_GetTick();
 80051d8:	f7fb ff76 	bl	80010c8 <HAL_GetTick>
 80051dc:	0003      	movs	r3, r0
 80051de:	60fb      	str	r3, [r7, #12]

  /* Wait for conditioning reset process to be completed */
  while (HAL_IS_BIT_SET(hrng->Instance->CR, RNG_CR_CONDRST))
 80051e0:	e018      	b.n	8005214 <HAL_RNG_Init+0xa8>
  {
    if ((HAL_GetTick() - tickstart) > RNG_TIMEOUT_VALUE)
 80051e2:	f7fb ff71 	bl	80010c8 <HAL_GetTick>
 80051e6:	0002      	movs	r2, r0
 80051e8:	68fb      	ldr	r3, [r7, #12]
 80051ea:	1ad3      	subs	r3, r2, r3
 80051ec:	2b04      	cmp	r3, #4
 80051ee:	d911      	bls.n	8005214 <HAL_RNG_Init+0xa8>
    {
      /* New check to avoid false timeout detection in case of preemption */
      if (HAL_IS_BIT_SET(hrng->Instance->CR, RNG_CR_CONDRST))
 80051f0:	687b      	ldr	r3, [r7, #4]
 80051f2:	681b      	ldr	r3, [r3, #0]
 80051f4:	681a      	ldr	r2, [r3, #0]
 80051f6:	2380      	movs	r3, #128	@ 0x80
 80051f8:	05db      	lsls	r3, r3, #23
 80051fa:	401a      	ands	r2, r3
 80051fc:	2380      	movs	r3, #128	@ 0x80
 80051fe:	05db      	lsls	r3, r3, #23
 8005200:	429a      	cmp	r2, r3
 8005202:	d107      	bne.n	8005214 <HAL_RNG_Init+0xa8>
      {
        hrng->State = HAL_RNG_STATE_READY;
 8005204:	687b      	ldr	r3, [r7, #4]
 8005206:	2201      	movs	r2, #1
 8005208:	725a      	strb	r2, [r3, #9]
        hrng->ErrorCode = HAL_RNG_ERROR_TIMEOUT;
 800520a:	687b      	ldr	r3, [r7, #4]
 800520c:	2202      	movs	r2, #2
 800520e:	60da      	str	r2, [r3, #12]
        return HAL_ERROR;
 8005210:	2301      	movs	r3, #1
 8005212:	e046      	b.n	80052a2 <HAL_RNG_Init+0x136>
  while (HAL_IS_BIT_SET(hrng->Instance->CR, RNG_CR_CONDRST))
 8005214:	687b      	ldr	r3, [r7, #4]
 8005216:	681b      	ldr	r3, [r3, #0]
 8005218:	681a      	ldr	r2, [r3, #0]
 800521a:	2380      	movs	r3, #128	@ 0x80
 800521c:	05db      	lsls	r3, r3, #23
 800521e:	401a      	ands	r2, r3
 8005220:	2380      	movs	r3, #128	@ 0x80
 8005222:	05db      	lsls	r3, r3, #23
 8005224:	429a      	cmp	r2, r3
 8005226:	d0dc      	beq.n	80051e2 <HAL_RNG_Init+0x76>
      }
    }
  }

  /* Enable the RNG Peripheral */
  __HAL_RNG_ENABLE(hrng);
 8005228:	687b      	ldr	r3, [r7, #4]
 800522a:	681b      	ldr	r3, [r3, #0]
 800522c:	681a      	ldr	r2, [r3, #0]
 800522e:	687b      	ldr	r3, [r7, #4]
 8005230:	681b      	ldr	r3, [r3, #0]
 8005232:	2104      	movs	r1, #4
 8005234:	430a      	orrs	r2, r1
 8005236:	601a      	str	r2, [r3, #0]

  /* verify that no seed error */
  if (__HAL_RNG_GET_IT(hrng, RNG_IT_SEI) != RESET)
 8005238:	687b      	ldr	r3, [r7, #4]
 800523a:	681b      	ldr	r3, [r3, #0]
 800523c:	685b      	ldr	r3, [r3, #4]
 800523e:	2240      	movs	r2, #64	@ 0x40
 8005240:	4013      	ands	r3, r2
 8005242:	2b40      	cmp	r3, #64	@ 0x40
 8005244:	d104      	bne.n	8005250 <HAL_RNG_Init+0xe4>
  {
    hrng->State = HAL_RNG_STATE_ERROR;
 8005246:	687b      	ldr	r3, [r7, #4]
 8005248:	2204      	movs	r2, #4
 800524a:	725a      	strb	r2, [r3, #9]
    return HAL_ERROR;
 800524c:	2301      	movs	r3, #1
 800524e:	e028      	b.n	80052a2 <HAL_RNG_Init+0x136>
  }
  /* Get tick */
  tickstart = HAL_GetTick();
 8005250:	f7fb ff3a 	bl	80010c8 <HAL_GetTick>
 8005254:	0003      	movs	r3, r0
 8005256:	60fb      	str	r3, [r7, #12]
  /* Check if data register contains valid random data */
  while (__HAL_RNG_GET_FLAG(hrng, RNG_FLAG_DRDY) != SET)
 8005258:	e015      	b.n	8005286 <HAL_RNG_Init+0x11a>
  {
    if ((HAL_GetTick() - tickstart) > RNG_TIMEOUT_VALUE)
 800525a:	f7fb ff35 	bl	80010c8 <HAL_GetTick>
 800525e:	0002      	movs	r2, r0
 8005260:	68fb      	ldr	r3, [r7, #12]
 8005262:	1ad3      	subs	r3, r2, r3
 8005264:	2b04      	cmp	r3, #4
 8005266:	d90e      	bls.n	8005286 <HAL_RNG_Init+0x11a>
    {
      /* New check to avoid false timeout detection in case of preemption */
      if (__HAL_RNG_GET_FLAG(hrng, RNG_FLAG_DRDY) != SET)
 8005268:	687b      	ldr	r3, [r7, #4]
 800526a:	681b      	ldr	r3, [r3, #0]
 800526c:	685b      	ldr	r3, [r3, #4]
 800526e:	2201      	movs	r2, #1
 8005270:	4013      	ands	r3, r2
 8005272:	2b01      	cmp	r3, #1
 8005274:	d007      	beq.n	8005286 <HAL_RNG_Init+0x11a>
      {
        hrng->State = HAL_RNG_STATE_ERROR;
 8005276:	687b      	ldr	r3, [r7, #4]
 8005278:	2204      	movs	r2, #4
 800527a:	725a      	strb	r2, [r3, #9]
        hrng->ErrorCode = HAL_RNG_ERROR_TIMEOUT;
 800527c:	687b      	ldr	r3, [r7, #4]
 800527e:	2202      	movs	r2, #2
 8005280:	60da      	str	r2, [r3, #12]
        return HAL_ERROR;
 8005282:	2301      	movs	r3, #1
 8005284:	e00d      	b.n	80052a2 <HAL_RNG_Init+0x136>
  while (__HAL_RNG_GET_FLAG(hrng, RNG_FLAG_DRDY) != SET)
 8005286:	687b      	ldr	r3, [r7, #4]
 8005288:	681b      	ldr	r3, [r3, #0]
 800528a:	685b      	ldr	r3, [r3, #4]
 800528c:	2201      	movs	r2, #1
 800528e:	4013      	ands	r3, r2
 8005290:	2b01      	cmp	r3, #1
 8005292:	d1e2      	bne.n	800525a <HAL_RNG_Init+0xee>
      }
    }
  }

  /* Initialize the RNG state */
  hrng->State = HAL_RNG_STATE_READY;
 8005294:	687b      	ldr	r3, [r7, #4]
 8005296:	2201      	movs	r2, #1
 8005298:	725a      	strb	r2, [r3, #9]

  /* Initialise the error code */
  hrng->ErrorCode = HAL_RNG_ERROR_NONE;
 800529a:	687b      	ldr	r3, [r7, #4]
 800529c:	2200      	movs	r2, #0
 800529e:	60da      	str	r2, [r3, #12]

  /* Return function status */
  return HAL_OK;
 80052a0:	2300      	movs	r3, #0
}
 80052a2:	0018      	movs	r0, r3
 80052a4:	46bd      	mov	sp, r7
 80052a6:	b004      	add	sp, #16
 80052a8:	bd80      	pop	{r7, pc}
 80052aa:	46c0      	nop			@ (mov r8, r8)
 80052ac:	bfffffdf 	.word	0xbfffffdf
 80052b0:	bfffffff 	.word	0xbfffffff

080052b4 <HAL_RNG_GenerateRandomNumber_IT>:
  * @param  hrng pointer to a RNG_HandleTypeDef structure that contains
  *                the configuration information for RNG.
  * @retval HAL status
  */
HAL_StatusTypeDef HAL_RNG_GenerateRandomNumber_IT(RNG_HandleTypeDef *hrng)
{
 80052b4:	b580      	push	{r7, lr}
 80052b6:	b084      	sub	sp, #16
 80052b8:	af00      	add	r7, sp, #0
 80052ba:	6078      	str	r0, [r7, #4]
  HAL_StatusTypeDef status = HAL_OK;
 80052bc:	230f      	movs	r3, #15
 80052be:	18fb      	adds	r3, r7, r3
 80052c0:	2200      	movs	r2, #0
 80052c2:	701a      	strb	r2, [r3, #0]

  /* Process Locked */
  __HAL_LOCK(hrng);
 80052c4:	687b      	ldr	r3, [r7, #4]
 80052c6:	7a1b      	ldrb	r3, [r3, #8]
 80052c8:	2b01      	cmp	r3, #1
 80052ca:	d101      	bne.n	80052d0 <HAL_RNG_GenerateRandomNumber_IT+0x1c>
 80052cc:	2302      	movs	r3, #2
 80052ce:	e020      	b.n	8005312 <HAL_RNG_GenerateRandomNumber_IT+0x5e>
 80052d0:	687b      	ldr	r3, [r7, #4]
 80052d2:	2201      	movs	r2, #1
 80052d4:	721a      	strb	r2, [r3, #8]

  /* Check RNG peripheral state */
  if (hrng->State == HAL_RNG_STATE_READY)
 80052d6:	687b      	ldr	r3, [r7, #4]
 80052d8:	7a5b      	ldrb	r3, [r3, #9]
 80052da:	b2db      	uxtb	r3, r3
 80052dc:	2b01      	cmp	r3, #1
 80052de:	d10b      	bne.n	80052f8 <HAL_RNG_GenerateRandomNumber_IT+0x44>
  {
    /* Change RNG peripheral state */
    hrng->State = HAL_RNG_STATE_BUSY;
 80052e0:	687b      	ldr	r3, [r7, #4]
 80052e2:	2202      	movs	r2, #2
 80052e4:	725a      	strb	r2, [r3, #9]

    /* Enable the RNG Interrupts: Data Ready, Clock error, Seed error */
    __HAL_RNG_ENABLE_IT(hrng);
 80052e6:	687b      	ldr	r3, [r7, #4]
 80052e8:	681b      	ldr	r3, [r3, #0]
 80052ea:	681a      	ldr	r2, [r3, #0]
 80052ec:	687b      	ldr	r3, [r7, #4]
 80052ee:	681b      	ldr	r3, [r3, #0]
 80052f0:	2108      	movs	r1, #8
 80052f2:	430a      	orrs	r2, r1
 80052f4:	601a      	str	r2, [r3, #0]
 80052f6:	e009      	b.n	800530c <HAL_RNG_GenerateRandomNumber_IT+0x58>
  }
  else
  {
    /* Process Unlocked */
    __HAL_UNLOCK(hrng);
 80052f8:	687b      	ldr	r3, [r7, #4]
 80052fa:	2200      	movs	r2, #0
 80052fc:	721a      	strb	r2, [r3, #8]

    hrng->ErrorCode = HAL_RNG_ERROR_BUSY;
 80052fe:	687b      	ldr	r3, [r7, #4]
 8005300:	2204      	movs	r2, #4
 8005302:	60da      	str	r2, [r3, #12]
    status = HAL_ERROR;
 8005304:	230f      	movs	r3, #15
 8005306:	18fb      	adds	r3, r7, r3
 8005308:	2201      	movs	r2, #1
 800530a:	701a      	strb	r2, [r3, #0]
  }

  return status;
 800530c:	230f      	movs	r3, #15
 800530e:	18fb      	adds	r3, r7, r3
 8005310:	781b      	ldrb	r3, [r3, #0]
}
 8005312:	0018      	movs	r0, r3
 8005314:	46bd      	mov	sp, r7
 8005316:	b004      	add	sp, #16
 8005318:	bd80      	pop	{r7, pc}

0800531a <HAL_RNG_IRQHandler>:
  *                the configuration information for RNG.
  * @retval None

  */
void HAL_RNG_IRQHandler(RNG_HandleTypeDef *hrng)
{
 800531a:	b580      	push	{r7, lr}
 800531c:	b084      	sub	sp, #16
 800531e:	af00      	add	r7, sp, #0
 8005320:	6078      	str	r0, [r7, #4]
  uint32_t rngclockerror = 0U;
 8005322:	2300      	movs	r3, #0
 8005324:	60fb      	str	r3, [r7, #12]
  uint32_t itflag   = hrng->Instance->SR;
 8005326:	687b      	ldr	r3, [r7, #4]
 8005328:	681b      	ldr	r3, [r3, #0]
 800532a:	685b      	ldr	r3, [r3, #4]
 800532c:	60bb      	str	r3, [r7, #8]

  /* RNG clock error interrupt occurred */
  if ((itflag & RNG_IT_CEI) == RNG_IT_CEI)
 800532e:	68bb      	ldr	r3, [r7, #8]
 8005330:	2220      	movs	r2, #32
 8005332:	4013      	ands	r3, r2
 8005334:	d005      	beq.n	8005342 <HAL_RNG_IRQHandler+0x28>
  {
    /* Update the error code */
    hrng->ErrorCode = HAL_RNG_ERROR_CLOCK;
 8005336:	687b      	ldr	r3, [r7, #4]
 8005338:	2210      	movs	r2, #16
 800533a:	60da      	str	r2, [r3, #12]
    rngclockerror = 1U;
 800533c:	2301      	movs	r3, #1
 800533e:	60fb      	str	r3, [r7, #12]
 8005340:	e01d      	b.n	800537e <HAL_RNG_IRQHandler+0x64>
  }
  else if ((itflag & RNG_IT_SEI) == RNG_IT_SEI)
 8005342:	68bb      	ldr	r3, [r7, #8]
 8005344:	2240      	movs	r2, #64	@ 0x40
 8005346:	4013      	ands	r3, r2
 8005348:	d019      	beq.n	800537e <HAL_RNG_IRQHandler+0x64>
  {
    /* Check if Seed Error Current Status (SECS) is set */
    if ((itflag & RNG_FLAG_SECS) != RNG_FLAG_SECS)
 800534a:	68bb      	ldr	r3, [r7, #8]
 800534c:	2204      	movs	r2, #4
 800534e:	4013      	ands	r3, r2
 8005350:	d108      	bne.n	8005364 <HAL_RNG_IRQHandler+0x4a>
    {
      /* RNG IP performed the reset automatically (auto-reset) */
      /* Clear bit SEIS */
      CLEAR_BIT(hrng->Instance->SR, RNG_IT_SEI);
 8005352:	687b      	ldr	r3, [r7, #4]
 8005354:	681b      	ldr	r3, [r3, #0]
 8005356:	685a      	ldr	r2, [r3, #4]
 8005358:	687b      	ldr	r3, [r7, #4]
 800535a:	681b      	ldr	r3, [r3, #0]
 800535c:	2140      	movs	r1, #64	@ 0x40
 800535e:	438a      	bics	r2, r1
 8005360:	605a      	str	r2, [r3, #4]
 8005362:	e00c      	b.n	800537e <HAL_RNG_IRQHandler+0x64>
    }
    else
    {
      /* Seed Error has not been recovered : Update the error code */
      hrng->ErrorCode = HAL_RNG_ERROR_SEED;
 8005364:	687b      	ldr	r3, [r7, #4]
 8005366:	2208      	movs	r2, #8
 8005368:	60da      	str	r2, [r3, #12]
      rngclockerror = 1U;
 800536a:	2301      	movs	r3, #1
 800536c:	60fb      	str	r3, [r7, #12]
      /* Disable the IT */
      __HAL_RNG_DISABLE_IT(hrng);
 800536e:	687b      	ldr	r3, [r7, #4]
 8005370:	681b      	ldr	r3, [r3, #0]
 8005372:	681a      	ldr	r2, [r3, #0]
 8005374:	687b      	ldr	r3, [r7, #4]
 8005376:	681b      	ldr	r3, [r3, #0]
 8005378:	2108      	movs	r1, #8
 800537a:	438a      	bics	r2, r1
 800537c:	601a      	str	r2, [r3, #0]
  else
  {
    /* Nothing to do */
  }

  if (rngclockerror == 1U)
 800537e:	68fb      	ldr	r3, [r7, #12]
 8005380:	2b01      	cmp	r3, #1
 8005382:	d10c      	bne.n	800539e <HAL_RNG_IRQHandler+0x84>
  {
    /* Change RNG peripheral state */
    hrng->State = HAL_RNG_STATE_ERROR;
 8005384:	687b      	ldr	r3, [r7, #4]
 8005386:	2204      	movs	r2, #4
 8005388:	725a      	strb	r2, [r3, #9]
#if (USE_HAL_RNG_REGISTER_CALLBACKS == 1)
    /* Call registered Error callback */
    hrng->ErrorCallback(hrng);
#else
    /* Call legacy weak Error callback */
    HAL_RNG_ErrorCallback(hrng);
 800538a:	687b      	ldr	r3, [r7, #4]
 800538c:	0018      	movs	r0, r3
 800538e:	f7fb facd 	bl	800092c <HAL_RNG_ErrorCallback>
#endif /* USE_HAL_RNG_REGISTER_CALLBACKS */

    /* Clear the clock error flag */
    __HAL_RNG_CLEAR_IT(hrng, RNG_IT_CEI | RNG_IT_SEI);
 8005392:	687b      	ldr	r3, [r7, #4]
 8005394:	681b      	ldr	r3, [r3, #0]
 8005396:	2261      	movs	r2, #97	@ 0x61
 8005398:	4252      	negs	r2, r2
 800539a:	605a      	str	r2, [r3, #4]

    return;
 800539c:	e022      	b.n	80053e4 <HAL_RNG_IRQHandler+0xca>
  }

  /* Check RNG data ready interrupt occurred */
  if ((itflag & RNG_IT_DRDY) == RNG_IT_DRDY)
 800539e:	68bb      	ldr	r3, [r7, #8]
 80053a0:	2201      	movs	r2, #1
 80053a2:	4013      	ands	r3, r2
 80053a4:	d01e      	beq.n	80053e4 <HAL_RNG_IRQHandler+0xca>
  {
    /* Generate random number once, so disable the IT */
    __HAL_RNG_DISABLE_IT(hrng);
 80053a6:	687b      	ldr	r3, [r7, #4]
 80053a8:	681b      	ldr	r3, [r3, #0]
 80053aa:	681a      	ldr	r2, [r3, #0]
 80053ac:	687b      	ldr	r3, [r7, #4]
 80053ae:	681b      	ldr	r3, [r3, #0]
 80053b0:	2108      	movs	r1, #8
 80053b2:	438a      	bics	r2, r1
 80053b4:	601a      	str	r2, [r3, #0]

    /* Get the 32bit Random number (DRDY flag automatically cleared) */
    hrng->RandomNumber = hrng->Instance->DR;
 80053b6:	687b      	ldr	r3, [r7, #4]
 80053b8:	681b      	ldr	r3, [r3, #0]
 80053ba:	689a      	ldr	r2, [r3, #8]
 80053bc:	687b      	ldr	r3, [r7, #4]
 80053be:	611a      	str	r2, [r3, #16]

    if (hrng->State != HAL_RNG_STATE_ERROR)
 80053c0:	687b      	ldr	r3, [r7, #4]
 80053c2:	7a5b      	ldrb	r3, [r3, #9]
 80053c4:	b2db      	uxtb	r3, r3
 80053c6:	2b04      	cmp	r3, #4
 80053c8:	d00c      	beq.n	80053e4 <HAL_RNG_IRQHandler+0xca>
    {
      /* Change RNG peripheral state */
      hrng->State = HAL_RNG_STATE_READY;
 80053ca:	687b      	ldr	r3, [r7, #4]
 80053cc:	2201      	movs	r2, #1
 80053ce:	725a      	strb	r2, [r3, #9]
      /* Process Unlocked */
      __HAL_UNLOCK(hrng);
 80053d0:	687b      	ldr	r3, [r7, #4]
 80053d2:	2200      	movs	r2, #0
 80053d4:	721a      	strb	r2, [r3, #8]
#if (USE_HAL_RNG_REGISTER_CALLBACKS == 1)
      /* Call registered Data Ready callback */
      hrng->ReadyDataCallback(hrng, hrng->RandomNumber);
#else
      /* Call legacy weak Data Ready callback */
      HAL_RNG_ReadyDataCallback(hrng, hrng->RandomNumber);
 80053d6:	687b      	ldr	r3, [r7, #4]
 80053d8:	691a      	ldr	r2, [r3, #16]
 80053da:	687b      	ldr	r3, [r7, #4]
 80053dc:	0011      	movs	r1, r2
 80053de:	0018      	movs	r0, r3
 80053e0:	f7fb fa8a 	bl	80008f8 <HAL_RNG_ReadyDataCallback>
#endif /* USE_HAL_RNG_REGISTER_CALLBACKS */
    }
  }
}
 80053e4:	46bd      	mov	sp, r7
 80053e6:	b004      	add	sp, #16
 80053e8:	bd80      	pop	{r7, pc}
	...

080053ec <HAL_UART_Init>:
  *        parameters in the UART_InitTypeDef and initialize the associated handle.
  * @param huart UART handle.
  * @retval HAL status
  */
HAL_StatusTypeDef HAL_UART_Init(UART_HandleTypeDef *huart)
{
 80053ec:	b580      	push	{r7, lr}
 80053ee:	b082      	sub	sp, #8
 80053f0:	af00      	add	r7, sp, #0
 80053f2:	6078      	str	r0, [r7, #4]
  /* Check the UART handle allocation */
  if (huart == NULL)
 80053f4:	687b      	ldr	r3, [r7, #4]
 80053f6:	2b00      	cmp	r3, #0
 80053f8:	d101      	bne.n	80053fe <HAL_UART_Init+0x12>
  {
    return HAL_ERROR;
 80053fa:	2301      	movs	r3, #1
 80053fc:	e046      	b.n	800548c <HAL_UART_Init+0xa0>
  {
    /* Check the parameters */
    assert_param((IS_UART_INSTANCE(huart->Instance)) || (IS_LPUART_INSTANCE(huart->Instance)));
  }

  if (huart->gState == HAL_UART_STATE_RESET)
 80053fe:	687b      	ldr	r3, [r7, #4]
 8005400:	2288      	movs	r2, #136	@ 0x88
 8005402:	589b      	ldr	r3, [r3, r2]
 8005404:	2b00      	cmp	r3, #0
 8005406:	d107      	bne.n	8005418 <HAL_UART_Init+0x2c>
  {
    /* Allocate lock resource and initialize it */
    huart->Lock = HAL_UNLOCKED;
 8005408:	687b      	ldr	r3, [r7, #4]
 800540a:	2284      	movs	r2, #132	@ 0x84
 800540c:	2100      	movs	r1, #0
 800540e:	5499      	strb	r1, [r3, r2]

    /* Init the low level hardware */
    huart->MspInitCallback(huart);
#else
    /* Init the low level hardware : GPIO, CLOCK */
    HAL_UART_MspInit(huart);
 8005410:	687b      	ldr	r3, [r7, #4]
 8005412:	0018      	movs	r0, r3
 8005414:	f000 f840 	bl	8005498 <HAL_UART_MspInit>
#endif /* (USE_HAL_UART_REGISTER_CALLBACKS) */
  }

  huart->gState = HAL_UART_STATE_BUSY;
 8005418:	687b      	ldr	r3, [r7, #4]
 800541a:	2288      	movs	r2, #136	@ 0x88
 800541c:	2124      	movs	r1, #36	@ 0x24
 800541e:	5099      	str	r1, [r3, r2]

  __HAL_UART_DISABLE(huart);
 8005420:	687b      	ldr	r3, [r7, #4]
 8005422:	681b      	ldr	r3, [r3, #0]
 8005424:	681a      	ldr	r2, [r3, #0]
 8005426:	687b      	ldr	r3, [r7, #4]
 8005428:	681b      	ldr	r3, [r3, #0]
 800542a:	2101      	movs	r1, #1
 800542c:	438a      	bics	r2, r1
 800542e:	601a      	str	r2, [r3, #0]

  /* Perform advanced settings configuration */
  /* For some items, configuration requires to be done prior TE and RE bits are set */
  if (huart->AdvancedInit.AdvFeatureInit != UART_ADVFEATURE_NO_INIT)
 8005430:	687b      	ldr	r3, [r7, #4]
 8005432:	6a9b      	ldr	r3, [r3, #40]	@ 0x28
 8005434:	2b00      	cmp	r3, #0
 8005436:	d003      	beq.n	8005440 <HAL_UART_Init+0x54>
  {
    UART_AdvFeatureConfig(huart);
 8005438:	687b      	ldr	r3, [r7, #4]
 800543a:	0018      	movs	r0, r3
 800543c:	f000 faaa 	bl	8005994 <UART_AdvFeatureConfig>
  }

  /* Set the UART Communication parameters */
  if (UART_SetConfig(huart) == HAL_ERROR)
 8005440:	687b      	ldr	r3, [r7, #4]
 8005442:	0018      	movs	r0, r3
 8005444:	f000 f8d4 	bl	80055f0 <UART_SetConfig>
 8005448:	0003      	movs	r3, r0
 800544a:	2b01      	cmp	r3, #1
 800544c:	d101      	bne.n	8005452 <HAL_UART_Init+0x66>
  {
    return HAL_ERROR;
 800544e:	2301      	movs	r3, #1
 8005450:	e01c      	b.n	800548c <HAL_UART_Init+0xa0>
  }

  /* In asynchronous mode, the following bits must be kept cleared:
  - LINEN and CLKEN bits in the USART_CR2 register,
  - SCEN, HDSEL and IREN  bits in the USART_CR3 register.*/
  CLEAR_BIT(huart->Instance->CR2, (USART_CR2_LINEN | USART_CR2_CLKEN));
 8005452:	687b      	ldr	r3, [r7, #4]
 8005454:	681b      	ldr	r3, [r3, #0]
 8005456:	685a      	ldr	r2, [r3, #4]
 8005458:	687b      	ldr	r3, [r7, #4]
 800545a:	681b      	ldr	r3, [r3, #0]
 800545c:	490d      	ldr	r1, [pc, #52]	@ (8005494 <HAL_UART_Init+0xa8>)
 800545e:	400a      	ands	r2, r1
 8005460:	605a      	str	r2, [r3, #4]
  CLEAR_BIT(huart->Instance->CR3, (USART_CR3_SCEN | USART_CR3_HDSEL | USART_CR3_IREN));
 8005462:	687b      	ldr	r3, [r7, #4]
 8005464:	681b      	ldr	r3, [r3, #0]
 8005466:	689a      	ldr	r2, [r3, #8]
 8005468:	687b      	ldr	r3, [r7, #4]
 800546a:	681b      	ldr	r3, [r3, #0]
 800546c:	212a      	movs	r1, #42	@ 0x2a
 800546e:	438a      	bics	r2, r1
 8005470:	609a      	str	r2, [r3, #8]

  __HAL_UART_ENABLE(huart);
 8005472:	687b      	ldr	r3, [r7, #4]
 8005474:	681b      	ldr	r3, [r3, #0]
 8005476:	681a      	ldr	r2, [r3, #0]
 8005478:	687b      	ldr	r3, [r7, #4]
 800547a:	681b      	ldr	r3, [r3, #0]
 800547c:	2101      	movs	r1, #1
 800547e:	430a      	orrs	r2, r1
 8005480:	601a      	str	r2, [r3, #0]

  /* TEACK and/or REACK to check before moving huart->gState and huart->RxState to Ready */
  return (UART_CheckIdleState(huart));
 8005482:	687b      	ldr	r3, [r7, #4]
 8005484:	0018      	movs	r0, r3
 8005486:	f000 fb39 	bl	8005afc <UART_CheckIdleState>
 800548a:	0003      	movs	r3, r0
}
 800548c:	0018      	movs	r0, r3
 800548e:	46bd      	mov	sp, r7
 8005490:	b002      	add	sp, #8
 8005492:	bd80      	pop	{r7, pc}
 8005494:	ffffb7ff 	.word	0xffffb7ff

08005498 <HAL_UART_MspInit>:
  * @brief Initialize the UART MSP.
  * @param huart UART handle.
  * @retval None
  */
__weak void HAL_UART_MspInit(UART_HandleTypeDef *huart)
{
 8005498:	b580      	push	{r7, lr}
 800549a:	b082      	sub	sp, #8
 800549c:	af00      	add	r7, sp, #0
 800549e:	6078      	str	r0, [r7, #4]
  UNUSED(huart);

  /* NOTE : This function should not be modified, when the callback is needed,
            the HAL_UART_MspInit can be implemented in the user file
   */
}
 80054a0:	46c0      	nop			@ (mov r8, r8)
 80054a2:	46bd      	mov	sp, r7
 80054a4:	b002      	add	sp, #8
 80054a6:	bd80      	pop	{r7, pc}

080054a8 <HAL_UART_Transmit>:
  * @param Size    Amount of data elements (u8 or u16) to be sent.
  * @param Timeout Timeout duration.
  * @retval HAL status
  */
HAL_StatusTypeDef HAL_UART_Transmit(UART_HandleTypeDef *huart, const uint8_t *pData, uint16_t Size, uint32_t Timeout)
{
 80054a8:	b580      	push	{r7, lr}
 80054aa:	b08a      	sub	sp, #40	@ 0x28
 80054ac:	af02      	add	r7, sp, #8
 80054ae:	60f8      	str	r0, [r7, #12]
 80054b0:	60b9      	str	r1, [r7, #8]
 80054b2:	603b      	str	r3, [r7, #0]
 80054b4:	1dbb      	adds	r3, r7, #6
 80054b6:	801a      	strh	r2, [r3, #0]
  const uint8_t  *pdata8bits;
  const uint16_t *pdata16bits;
  uint32_t tickstart;

  /* Check that a Tx process is not already ongoing */
  if (huart->gState == HAL_UART_STATE_READY)
 80054b8:	68fb      	ldr	r3, [r7, #12]
 80054ba:	2288      	movs	r2, #136	@ 0x88
 80054bc:	589b      	ldr	r3, [r3, r2]
 80054be:	2b20      	cmp	r3, #32
 80054c0:	d000      	beq.n	80054c4 <HAL_UART_Transmit+0x1c>
 80054c2:	e090      	b.n	80055e6 <HAL_UART_Transmit+0x13e>
  {
    if ((pData == NULL) || (Size == 0U))
 80054c4:	68bb      	ldr	r3, [r7, #8]
 80054c6:	2b00      	cmp	r3, #0
 80054c8:	d003      	beq.n	80054d2 <HAL_UART_Transmit+0x2a>
 80054ca:	1dbb      	adds	r3, r7, #6
 80054cc:	881b      	ldrh	r3, [r3, #0]
 80054ce:	2b00      	cmp	r3, #0
 80054d0:	d101      	bne.n	80054d6 <HAL_UART_Transmit+0x2e>
    {
      return  HAL_ERROR;
 80054d2:	2301      	movs	r3, #1
 80054d4:	e088      	b.n	80055e8 <HAL_UART_Transmit+0x140>
    }

    /* In case of 9bits/No Parity transfer, pData buffer provided as input parameter
       should be aligned on a u16 frontier, as data to be filled into TDR will be
       handled through a u16 cast. */
    if ((huart->Init.WordLength == UART_WORDLENGTH_9B) && (huart->Init.Parity == UART_PARITY_NONE))
 80054d6:	68fb      	ldr	r3, [r7, #12]
 80054d8:	689a      	ldr	r2, [r3, #8]
 80054da:	2380      	movs	r3, #128	@ 0x80
 80054dc:	015b      	lsls	r3, r3, #5
 80054de:	429a      	cmp	r2, r3
 80054e0:	d109      	bne.n	80054f6 <HAL_UART_Transmit+0x4e>
 80054e2:	68fb      	ldr	r3, [r7, #12]
 80054e4:	691b      	ldr	r3, [r3, #16]
 80054e6:	2b00      	cmp	r3, #0
 80054e8:	d105      	bne.n	80054f6 <HAL_UART_Transmit+0x4e>
    {
      if ((((uint32_t)pData) & 1U) != 0U)
 80054ea:	68bb      	ldr	r3, [r7, #8]
 80054ec:	2201      	movs	r2, #1
 80054ee:	4013      	ands	r3, r2
 80054f0:	d001      	beq.n	80054f6 <HAL_UART_Transmit+0x4e>
      {
        return  HAL_ERROR;
 80054f2:	2301      	movs	r3, #1
 80054f4:	e078      	b.n	80055e8 <HAL_UART_Transmit+0x140>
      }
    }

    huart->ErrorCode = HAL_UART_ERROR_NONE;
 80054f6:	68fb      	ldr	r3, [r7, #12]
 80054f8:	2290      	movs	r2, #144	@ 0x90
 80054fa:	2100      	movs	r1, #0
 80054fc:	5099      	str	r1, [r3, r2]
    huart->gState = HAL_UART_STATE_BUSY_TX;
 80054fe:	68fb      	ldr	r3, [r7, #12]
 8005500:	2288      	movs	r2, #136	@ 0x88
 8005502:	2121      	movs	r1, #33	@ 0x21
 8005504:	5099      	str	r1, [r3, r2]

    /* Init tickstart for timeout management */
    tickstart = HAL_GetTick();
 8005506:	f7fb fddf 	bl	80010c8 <HAL_GetTick>
 800550a:	0003      	movs	r3, r0
 800550c:	617b      	str	r3, [r7, #20]

    huart->TxXferSize  = Size;
 800550e:	68fb      	ldr	r3, [r7, #12]
 8005510:	1dba      	adds	r2, r7, #6
 8005512:	2154      	movs	r1, #84	@ 0x54
 8005514:	8812      	ldrh	r2, [r2, #0]
 8005516:	525a      	strh	r2, [r3, r1]
    huart->TxXferCount = Size;
 8005518:	68fb      	ldr	r3, [r7, #12]
 800551a:	1dba      	adds	r2, r7, #6
 800551c:	2156      	movs	r1, #86	@ 0x56
 800551e:	8812      	ldrh	r2, [r2, #0]
 8005520:	525a      	strh	r2, [r3, r1]

    /* In case of 9bits/No Parity transfer, pData needs to be handled as a uint16_t pointer */
    if ((huart->Init.WordLength == UART_WORDLENGTH_9B) && (huart->Init.Parity == UART_PARITY_NONE))
 8005522:	68fb      	ldr	r3, [r7, #12]
 8005524:	689a      	ldr	r2, [r3, #8]
 8005526:	2380      	movs	r3, #128	@ 0x80
 8005528:	015b      	lsls	r3, r3, #5
 800552a:	429a      	cmp	r2, r3
 800552c:	d108      	bne.n	8005540 <HAL_UART_Transmit+0x98>
 800552e:	68fb      	ldr	r3, [r7, #12]
 8005530:	691b      	ldr	r3, [r3, #16]
 8005532:	2b00      	cmp	r3, #0
 8005534:	d104      	bne.n	8005540 <HAL_UART_Transmit+0x98>
    {
      pdata8bits  = NULL;
 8005536:	2300      	movs	r3, #0
 8005538:	61fb      	str	r3, [r7, #28]
      pdata16bits = (const uint16_t *) pData;
 800553a:	68bb      	ldr	r3, [r7, #8]
 800553c:	61bb      	str	r3, [r7, #24]
 800553e:	e003      	b.n	8005548 <HAL_UART_Transmit+0xa0>
    }
    else
    {
      pdata8bits  = pData;
 8005540:	68bb      	ldr	r3, [r7, #8]
 8005542:	61fb      	str	r3, [r7, #28]
      pdata16bits = NULL;
 8005544:	2300      	movs	r3, #0
 8005546:	61bb      	str	r3, [r7, #24]
    }

    while (huart->TxXferCount > 0U)
 8005548:	e030      	b.n	80055ac <HAL_UART_Transmit+0x104>
    {
      if (UART_WaitOnFlagUntilTimeout(huart, UART_FLAG_TXE, RESET, tickstart, Timeout) != HAL_OK)
 800554a:	697a      	ldr	r2, [r7, #20]
 800554c:	68f8      	ldr	r0, [r7, #12]
 800554e:	683b      	ldr	r3, [r7, #0]
 8005550:	9300      	str	r3, [sp, #0]
 8005552:	0013      	movs	r3, r2
 8005554:	2200      	movs	r2, #0
 8005556:	2180      	movs	r1, #128	@ 0x80
 8005558:	f000 fb7a 	bl	8005c50 <UART_WaitOnFlagUntilTimeout>
 800555c:	1e03      	subs	r3, r0, #0
 800555e:	d005      	beq.n	800556c <HAL_UART_Transmit+0xc4>
      {

        huart->gState = HAL_UART_STATE_READY;
 8005560:	68fb      	ldr	r3, [r7, #12]
 8005562:	2288      	movs	r2, #136	@ 0x88
 8005564:	2120      	movs	r1, #32
 8005566:	5099      	str	r1, [r3, r2]

        return HAL_TIMEOUT;
 8005568:	2303      	movs	r3, #3
 800556a:	e03d      	b.n	80055e8 <HAL_UART_Transmit+0x140>
      }
      if (pdata8bits == NULL)
 800556c:	69fb      	ldr	r3, [r7, #28]
 800556e:	2b00      	cmp	r3, #0
 8005570:	d10b      	bne.n	800558a <HAL_UART_Transmit+0xe2>
      {
        huart->Instance->TDR = (uint16_t)(*pdata16bits & 0x01FFU);
 8005572:	69bb      	ldr	r3, [r7, #24]
 8005574:	881b      	ldrh	r3, [r3, #0]
 8005576:	001a      	movs	r2, r3
 8005578:	68fb      	ldr	r3, [r7, #12]
 800557a:	681b      	ldr	r3, [r3, #0]
 800557c:	05d2      	lsls	r2, r2, #23
 800557e:	0dd2      	lsrs	r2, r2, #23
 8005580:	629a      	str	r2, [r3, #40]	@ 0x28
        pdata16bits++;
 8005582:	69bb      	ldr	r3, [r7, #24]
 8005584:	3302      	adds	r3, #2
 8005586:	61bb      	str	r3, [r7, #24]
 8005588:	e007      	b.n	800559a <HAL_UART_Transmit+0xf2>
      }
      else
      {
        huart->Instance->TDR = (uint8_t)(*pdata8bits & 0xFFU);
 800558a:	69fb      	ldr	r3, [r7, #28]
 800558c:	781a      	ldrb	r2, [r3, #0]
 800558e:	68fb      	ldr	r3, [r7, #12]
 8005590:	681b      	ldr	r3, [r3, #0]
 8005592:	629a      	str	r2, [r3, #40]	@ 0x28
        pdata8bits++;
 8005594:	69fb      	ldr	r3, [r7, #28]
 8005596:	3301      	adds	r3, #1
 8005598:	61fb      	str	r3, [r7, #28]
      }
      huart->TxXferCount--;
 800559a:	68fb      	ldr	r3, [r7, #12]
 800559c:	2256      	movs	r2, #86	@ 0x56
 800559e:	5a9b      	ldrh	r3, [r3, r2]
 80055a0:	b29b      	uxth	r3, r3
 80055a2:	3b01      	subs	r3, #1
 80055a4:	b299      	uxth	r1, r3
 80055a6:	68fb      	ldr	r3, [r7, #12]
 80055a8:	2256      	movs	r2, #86	@ 0x56
 80055aa:	5299      	strh	r1, [r3, r2]
    while (huart->TxXferCount > 0U)
 80055ac:	68fb      	ldr	r3, [r7, #12]
 80055ae:	2256      	movs	r2, #86	@ 0x56
 80055b0:	5a9b      	ldrh	r3, [r3, r2]
 80055b2:	b29b      	uxth	r3, r3
 80055b4:	2b00      	cmp	r3, #0
 80055b6:	d1c8      	bne.n	800554a <HAL_UART_Transmit+0xa2>
    }

    if (UART_WaitOnFlagUntilTimeout(huart, UART_FLAG_TC, RESET, tickstart, Timeout) != HAL_OK)
 80055b8:	697a      	ldr	r2, [r7, #20]
 80055ba:	68f8      	ldr	r0, [r7, #12]
 80055bc:	683b      	ldr	r3, [r7, #0]
 80055be:	9300      	str	r3, [sp, #0]
 80055c0:	0013      	movs	r3, r2
 80055c2:	2200      	movs	r2, #0
 80055c4:	2140      	movs	r1, #64	@ 0x40
 80055c6:	f000 fb43 	bl	8005c50 <UART_WaitOnFlagUntilTimeout>
 80055ca:	1e03      	subs	r3, r0, #0
 80055cc:	d005      	beq.n	80055da <HAL_UART_Transmit+0x132>
    {
      huart->gState = HAL_UART_STATE_READY;
 80055ce:	68fb      	ldr	r3, [r7, #12]
 80055d0:	2288      	movs	r2, #136	@ 0x88
 80055d2:	2120      	movs	r1, #32
 80055d4:	5099      	str	r1, [r3, r2]

      return HAL_TIMEOUT;
 80055d6:	2303      	movs	r3, #3
 80055d8:	e006      	b.n	80055e8 <HAL_UART_Transmit+0x140>
    }

    /* At end of Tx process, restore huart->gState to Ready */
    huart->gState = HAL_UART_STATE_READY;
 80055da:	68fb      	ldr	r3, [r7, #12]
 80055dc:	2288      	movs	r2, #136	@ 0x88
 80055de:	2120      	movs	r1, #32
 80055e0:	5099      	str	r1, [r3, r2]

    return HAL_OK;
 80055e2:	2300      	movs	r3, #0
 80055e4:	e000      	b.n	80055e8 <HAL_UART_Transmit+0x140>
  }
  else
  {
    return HAL_BUSY;
 80055e6:	2302      	movs	r3, #2
  }
}
 80055e8:	0018      	movs	r0, r3
 80055ea:	46bd      	mov	sp, r7
 80055ec:	b008      	add	sp, #32
 80055ee:	bd80      	pop	{r7, pc}

080055f0 <UART_SetConfig>:
  * @brief Configure the UART peripheral.
  * @param huart UART handle.
  * @retval HAL status
  */
HAL_StatusTypeDef UART_SetConfig(UART_HandleTypeDef *huart)
{
 80055f0:	b5b0      	push	{r4, r5, r7, lr}
 80055f2:	b092      	sub	sp, #72	@ 0x48
 80055f4:	af00      	add	r7, sp, #0
 80055f6:	6278      	str	r0, [r7, #36]	@ 0x24
  uint32_t tmpreg;
  uint16_t brrtemp;
  uint32_t clocksource;
  uint32_t usartdiv;
  HAL_StatusTypeDef ret               = HAL_OK;
 80055f8:	231f      	movs	r3, #31
 80055fa:	2220      	movs	r2, #32
 80055fc:	189b      	adds	r3, r3, r2
 80055fe:	19db      	adds	r3, r3, r7
 8005600:	2200      	movs	r2, #0
 8005602:	701a      	strb	r2, [r3, #0]
  uint32_t pclk;

  /* Check the parameters */
  assert_param(IS_UART_BAUDRATE(huart->Init.BaudRate));
  assert_param(IS_UART_WORD_LENGTH(huart->Init.WordLength));
  if (UART_INSTANCE_LOWPOWER(huart))
 8005604:	6a7b      	ldr	r3, [r7, #36]	@ 0x24
 8005606:	681b      	ldr	r3, [r3, #0]
 8005608:	4ac8      	ldr	r2, [pc, #800]	@ (800592c <UART_SetConfig+0x33c>)
  *  the UART Word Length, Parity, Mode and oversampling:
  *  set the M bits according to huart->Init.WordLength value
  *  set PCE and PS bits according to huart->Init.Parity value
  *  set TE and RE bits according to huart->Init.Mode value
  *  set OVER8 bit according to huart->Init.OverSampling value */
  tmpreg = (uint32_t)huart->Init.WordLength | huart->Init.Parity | huart->Init.Mode | huart->Init.OverSampling ;
 800560a:	6a7b      	ldr	r3, [r7, #36]	@ 0x24
 800560c:	689a      	ldr	r2, [r3, #8]
 800560e:	6a7b      	ldr	r3, [r7, #36]	@ 0x24
 8005610:	691b      	ldr	r3, [r3, #16]
 8005612:	431a      	orrs	r2, r3
 8005614:	6a7b      	ldr	r3, [r7, #36]	@ 0x24
 8005616:	695b      	ldr	r3, [r3, #20]
 8005618:	431a      	orrs	r2, r3
 800561a:	6a7b      	ldr	r3, [r7, #36]	@ 0x24
 800561c:	69db      	ldr	r3, [r3, #28]
 800561e:	4313      	orrs	r3, r2
 8005620:	647b      	str	r3, [r7, #68]	@ 0x44
  MODIFY_REG(huart->Instance->CR1, USART_CR1_FIELDS, tmpreg);
 8005622:	6a7b      	ldr	r3, [r7, #36]	@ 0x24
 8005624:	681b      	ldr	r3, [r3, #0]
 8005626:	681b      	ldr	r3, [r3, #0]
 8005628:	4ac1      	ldr	r2, [pc, #772]	@ (8005930 <UART_SetConfig+0x340>)
 800562a:	4013      	ands	r3, r2
 800562c:	0019      	movs	r1, r3
 800562e:	6a7b      	ldr	r3, [r7, #36]	@ 0x24
 8005630:	681a      	ldr	r2, [r3, #0]
 8005632:	6c7b      	ldr	r3, [r7, #68]	@ 0x44
 8005634:	430b      	orrs	r3, r1
 8005636:	6013      	str	r3, [r2, #0]

  /*-------------------------- USART CR2 Configuration -----------------------*/
  /* Configure the UART Stop Bits: Set STOP[13:12] bits according
  * to huart->Init.StopBits value */
  MODIFY_REG(huart->Instance->CR2, USART_CR2_STOP, huart->Init.StopBits);
 8005638:	6a7b      	ldr	r3, [r7, #36]	@ 0x24
 800563a:	681b      	ldr	r3, [r3, #0]
 800563c:	685b      	ldr	r3, [r3, #4]
 800563e:	4abd      	ldr	r2, [pc, #756]	@ (8005934 <UART_SetConfig+0x344>)
 8005640:	4013      	ands	r3, r2
 8005642:	0018      	movs	r0, r3
 8005644:	6a7b      	ldr	r3, [r7, #36]	@ 0x24
 8005646:	68d9      	ldr	r1, [r3, #12]
 8005648:	6a7b      	ldr	r3, [r7, #36]	@ 0x24
 800564a:	681a      	ldr	r2, [r3, #0]
 800564c:	0003      	movs	r3, r0
 800564e:	430b      	orrs	r3, r1
 8005650:	6053      	str	r3, [r2, #4]
  /* Configure
  * - UART HardWare Flow Control: set CTSE and RTSE bits according
  *   to huart->Init.HwFlowCtl value
  * - one-bit sampling method versus three samples' majority rule according
  *   to huart->Init.OneBitSampling (not applicable to LPUART) */
  tmpreg = (uint32_t)huart->Init.HwFlowCtl;
 8005652:	6a7b      	ldr	r3, [r7, #36]	@ 0x24
 8005654:	699b      	ldr	r3, [r3, #24]
 8005656:	647b      	str	r3, [r7, #68]	@ 0x44

  if (!(UART_INSTANCE_LOWPOWER(huart)))
 8005658:	6a7b      	ldr	r3, [r7, #36]	@ 0x24
 800565a:	681b      	ldr	r3, [r3, #0]
 800565c:	4ab3      	ldr	r2, [pc, #716]	@ (800592c <UART_SetConfig+0x33c>)
 800565e:	4293      	cmp	r3, r2
 8005660:	d00e      	beq.n	8005680 <UART_SetConfig+0x90>
 8005662:	6a7b      	ldr	r3, [r7, #36]	@ 0x24
 8005664:	681b      	ldr	r3, [r3, #0]
 8005666:	4ab4      	ldr	r2, [pc, #720]	@ (8005938 <UART_SetConfig+0x348>)
 8005668:	4293      	cmp	r3, r2
 800566a:	d009      	beq.n	8005680 <UART_SetConfig+0x90>
 800566c:	6a7b      	ldr	r3, [r7, #36]	@ 0x24
 800566e:	681b      	ldr	r3, [r3, #0]
 8005670:	4ab2      	ldr	r2, [pc, #712]	@ (800593c <UART_SetConfig+0x34c>)
 8005672:	4293      	cmp	r3, r2
 8005674:	d004      	beq.n	8005680 <UART_SetConfig+0x90>
  {
    tmpreg |= huart->Init.OneBitSampling;
 8005676:	6a7b      	ldr	r3, [r7, #36]	@ 0x24
 8005678:	6a1b      	ldr	r3, [r3, #32]
 800567a:	6c7a      	ldr	r2, [r7, #68]	@ 0x44
 800567c:	4313      	orrs	r3, r2
 800567e:	647b      	str	r3, [r7, #68]	@ 0x44
  }
  MODIFY_REG(huart->Instance->CR3, USART_CR3_FIELDS, tmpreg);
 8005680:	6a7b      	ldr	r3, [r7, #36]	@ 0x24
 8005682:	681b      	ldr	r3, [r3, #0]
 8005684:	689b      	ldr	r3, [r3, #8]
 8005686:	4aae      	ldr	r2, [pc, #696]	@ (8005940 <UART_SetConfig+0x350>)
 8005688:	4013      	ands	r3, r2
 800568a:	0019      	movs	r1, r3
 800568c:	6a7b      	ldr	r3, [r7, #36]	@ 0x24
 800568e:	681a      	ldr	r2, [r3, #0]
 8005690:	6c7b      	ldr	r3, [r7, #68]	@ 0x44
 8005692:	430b      	orrs	r3, r1
 8005694:	6093      	str	r3, [r2, #8]

  /*-------------------------- USART PRESC Configuration -----------------------*/
  /* Configure
  * - UART Clock Prescaler : set PRESCALER according to huart->Init.ClockPrescaler value */
  MODIFY_REG(huart->Instance->PRESC, USART_PRESC_PRESCALER, huart->Init.ClockPrescaler);
 8005696:	6a7b      	ldr	r3, [r7, #36]	@ 0x24
 8005698:	681b      	ldr	r3, [r3, #0]
 800569a:	6adb      	ldr	r3, [r3, #44]	@ 0x2c
 800569c:	220f      	movs	r2, #15
 800569e:	4393      	bics	r3, r2
 80056a0:	0018      	movs	r0, r3
 80056a2:	6a7b      	ldr	r3, [r7, #36]	@ 0x24
 80056a4:	6a59      	ldr	r1, [r3, #36]	@ 0x24
 80056a6:	6a7b      	ldr	r3, [r7, #36]	@ 0x24
 80056a8:	681a      	ldr	r2, [r3, #0]
 80056aa:	0003      	movs	r3, r0
 80056ac:	430b      	orrs	r3, r1
 80056ae:	62d3      	str	r3, [r2, #44]	@ 0x2c

  /*-------------------------- USART BRR Configuration -----------------------*/
  UART_GETCLOCKSOURCE(huart, clocksource);
 80056b0:	6a7b      	ldr	r3, [r7, #36]	@ 0x24
 80056b2:	681b      	ldr	r3, [r3, #0]
 80056b4:	4aa3      	ldr	r2, [pc, #652]	@ (8005944 <UART_SetConfig+0x354>)
 80056b6:	4293      	cmp	r3, r2
 80056b8:	d102      	bne.n	80056c0 <UART_SetConfig+0xd0>
 80056ba:	2301      	movs	r3, #1
 80056bc:	643b      	str	r3, [r7, #64]	@ 0x40
 80056be:	e033      	b.n	8005728 <UART_SetConfig+0x138>
 80056c0:	6a7b      	ldr	r3, [r7, #36]	@ 0x24
 80056c2:	681b      	ldr	r3, [r3, #0]
 80056c4:	4aa0      	ldr	r2, [pc, #640]	@ (8005948 <UART_SetConfig+0x358>)
 80056c6:	4293      	cmp	r3, r2
 80056c8:	d102      	bne.n	80056d0 <UART_SetConfig+0xe0>
 80056ca:	2302      	movs	r3, #2
 80056cc:	643b      	str	r3, [r7, #64]	@ 0x40
 80056ce:	e02b      	b.n	8005728 <UART_SetConfig+0x138>
 80056d0:	6a7b      	ldr	r3, [r7, #36]	@ 0x24
 80056d2:	681b      	ldr	r3, [r3, #0]
 80056d4:	4a9d      	ldr	r2, [pc, #628]	@ (800594c <UART_SetConfig+0x35c>)
 80056d6:	4293      	cmp	r3, r2
 80056d8:	d103      	bne.n	80056e2 <UART_SetConfig+0xf2>
 80056da:	2380      	movs	r3, #128	@ 0x80
 80056dc:	025b      	lsls	r3, r3, #9
 80056de:	643b      	str	r3, [r7, #64]	@ 0x40
 80056e0:	e022      	b.n	8005728 <UART_SetConfig+0x138>
 80056e2:	6a7b      	ldr	r3, [r7, #36]	@ 0x24
 80056e4:	681b      	ldr	r3, [r3, #0]
 80056e6:	4a9a      	ldr	r2, [pc, #616]	@ (8005950 <UART_SetConfig+0x360>)
 80056e8:	4293      	cmp	r3, r2
 80056ea:	d103      	bne.n	80056f4 <UART_SetConfig+0x104>
 80056ec:	2380      	movs	r3, #128	@ 0x80
 80056ee:	029b      	lsls	r3, r3, #10
 80056f0:	643b      	str	r3, [r7, #64]	@ 0x40
 80056f2:	e019      	b.n	8005728 <UART_SetConfig+0x138>
 80056f4:	6a7b      	ldr	r3, [r7, #36]	@ 0x24
 80056f6:	681b      	ldr	r3, [r3, #0]
 80056f8:	4a8c      	ldr	r2, [pc, #560]	@ (800592c <UART_SetConfig+0x33c>)
 80056fa:	4293      	cmp	r3, r2
 80056fc:	d102      	bne.n	8005704 <UART_SetConfig+0x114>
 80056fe:	2310      	movs	r3, #16
 8005700:	643b      	str	r3, [r7, #64]	@ 0x40
 8005702:	e011      	b.n	8005728 <UART_SetConfig+0x138>
 8005704:	6a7b      	ldr	r3, [r7, #36]	@ 0x24
 8005706:	681b      	ldr	r3, [r3, #0]
 8005708:	4a8b      	ldr	r2, [pc, #556]	@ (8005938 <UART_SetConfig+0x348>)
 800570a:	4293      	cmp	r3, r2
 800570c:	d102      	bne.n	8005714 <UART_SetConfig+0x124>
 800570e:	2308      	movs	r3, #8
 8005710:	643b      	str	r3, [r7, #64]	@ 0x40
 8005712:	e009      	b.n	8005728 <UART_SetConfig+0x138>
 8005714:	6a7b      	ldr	r3, [r7, #36]	@ 0x24
 8005716:	681b      	ldr	r3, [r3, #0]
 8005718:	4a88      	ldr	r2, [pc, #544]	@ (800593c <UART_SetConfig+0x34c>)
 800571a:	4293      	cmp	r3, r2
 800571c:	d102      	bne.n	8005724 <UART_SetConfig+0x134>
 800571e:	2304      	movs	r3, #4
 8005720:	643b      	str	r3, [r7, #64]	@ 0x40
 8005722:	e001      	b.n	8005728 <UART_SetConfig+0x138>
 8005724:	2300      	movs	r3, #0
 8005726:	643b      	str	r3, [r7, #64]	@ 0x40

  /* Check LPUART instance */
  if (UART_INSTANCE_LOWPOWER(huart))
 8005728:	6a7b      	ldr	r3, [r7, #36]	@ 0x24
 800572a:	681b      	ldr	r3, [r3, #0]
 800572c:	4a7f      	ldr	r2, [pc, #508]	@ (800592c <UART_SetConfig+0x33c>)
 800572e:	4293      	cmp	r3, r2
 8005730:	d00a      	beq.n	8005748 <UART_SetConfig+0x158>
 8005732:	6a7b      	ldr	r3, [r7, #36]	@ 0x24
 8005734:	681b      	ldr	r3, [r3, #0]
 8005736:	4a80      	ldr	r2, [pc, #512]	@ (8005938 <UART_SetConfig+0x348>)
 8005738:	4293      	cmp	r3, r2
 800573a:	d005      	beq.n	8005748 <UART_SetConfig+0x158>
 800573c:	6a7b      	ldr	r3, [r7, #36]	@ 0x24
 800573e:	681b      	ldr	r3, [r3, #0]
 8005740:	4a7e      	ldr	r2, [pc, #504]	@ (800593c <UART_SetConfig+0x34c>)
 8005742:	4293      	cmp	r3, r2
 8005744:	d000      	beq.n	8005748 <UART_SetConfig+0x158>
 8005746:	e06f      	b.n	8005828 <UART_SetConfig+0x238>
  {
    /* Retrieve frequency clock */
    pclk = HAL_RCCEx_GetPeriphCLKFreq(clocksource);
 8005748:	6c3b      	ldr	r3, [r7, #64]	@ 0x40
 800574a:	0018      	movs	r0, r3
 800574c:	f7fe ff04 	bl	8004558 <HAL_RCCEx_GetPeriphCLKFreq>
 8005750:	0003      	movs	r3, r0
 8005752:	63bb      	str	r3, [r7, #56]	@ 0x38

    /* If proper clock source reported */
    if (pclk != 0U)
 8005754:	6bbb      	ldr	r3, [r7, #56]	@ 0x38
 8005756:	2b00      	cmp	r3, #0
 8005758:	d100      	bne.n	800575c <UART_SetConfig+0x16c>
 800575a:	e103      	b.n	8005964 <UART_SetConfig+0x374>
    {
      /* Compute clock after Prescaler */
      lpuart_ker_ck_pres = (pclk / UARTPrescTable[huart->Init.ClockPrescaler]);
 800575c:	6a7b      	ldr	r3, [r7, #36]	@ 0x24
 800575e:	6a5a      	ldr	r2, [r3, #36]	@ 0x24
 8005760:	4b7c      	ldr	r3, [pc, #496]	@ (8005954 <UART_SetConfig+0x364>)
 8005762:	0052      	lsls	r2, r2, #1
 8005764:	5ad3      	ldrh	r3, [r2, r3]
 8005766:	0019      	movs	r1, r3
 8005768:	6bb8      	ldr	r0, [r7, #56]	@ 0x38
 800576a:	f7fa fcd7 	bl	800011c <__udivsi3>
 800576e:	0003      	movs	r3, r0
 8005770:	62fb      	str	r3, [r7, #44]	@ 0x2c

      /* Ensure that Frequency clock is in the range [3 * baudrate, 4096 * baudrate] */
      if ((lpuart_ker_ck_pres < (3U * huart->Init.BaudRate)) ||
 8005772:	6a7b      	ldr	r3, [r7, #36]	@ 0x24
 8005774:	685a      	ldr	r2, [r3, #4]
 8005776:	0013      	movs	r3, r2
 8005778:	005b      	lsls	r3, r3, #1
 800577a:	189b      	adds	r3, r3, r2
 800577c:	6afa      	ldr	r2, [r7, #44]	@ 0x2c
 800577e:	429a      	cmp	r2, r3
 8005780:	d305      	bcc.n	800578e <UART_SetConfig+0x19e>
          (lpuart_ker_ck_pres > (4096U * huart->Init.BaudRate)))
 8005782:	6a7b      	ldr	r3, [r7, #36]	@ 0x24
 8005784:	685b      	ldr	r3, [r3, #4]
 8005786:	031b      	lsls	r3, r3, #12
      if ((lpuart_ker_ck_pres < (3U * huart->Init.BaudRate)) ||
 8005788:	6afa      	ldr	r2, [r7, #44]	@ 0x2c
 800578a:	429a      	cmp	r2, r3
 800578c:	d906      	bls.n	800579c <UART_SetConfig+0x1ac>
      {
        ret = HAL_ERROR;
 800578e:	231f      	movs	r3, #31
 8005790:	2220      	movs	r2, #32
 8005792:	189b      	adds	r3, r3, r2
 8005794:	19db      	adds	r3, r3, r7
 8005796:	2201      	movs	r2, #1
 8005798:	701a      	strb	r2, [r3, #0]
 800579a:	e044      	b.n	8005826 <UART_SetConfig+0x236>
      }
      else
      {
        /* Check computed UsartDiv value is in allocated range
           (it is forbidden to write values lower than 0x300 in the LPUART_BRR register) */
        usartdiv = (uint32_t)(UART_DIV_LPUART(pclk, huart->Init.BaudRate, huart->Init.ClockPrescaler));
 800579c:	6bbb      	ldr	r3, [r7, #56]	@ 0x38
 800579e:	61bb      	str	r3, [r7, #24]
 80057a0:	2300      	movs	r3, #0
 80057a2:	61fb      	str	r3, [r7, #28]
 80057a4:	6a7b      	ldr	r3, [r7, #36]	@ 0x24
 80057a6:	6a5a      	ldr	r2, [r3, #36]	@ 0x24
 80057a8:	4b6a      	ldr	r3, [pc, #424]	@ (8005954 <UART_SetConfig+0x364>)
 80057aa:	0052      	lsls	r2, r2, #1
 80057ac:	5ad3      	ldrh	r3, [r2, r3]
 80057ae:	613b      	str	r3, [r7, #16]
 80057b0:	2300      	movs	r3, #0
 80057b2:	617b      	str	r3, [r7, #20]
 80057b4:	693a      	ldr	r2, [r7, #16]
 80057b6:	697b      	ldr	r3, [r7, #20]
 80057b8:	69b8      	ldr	r0, [r7, #24]
 80057ba:	69f9      	ldr	r1, [r7, #28]
 80057bc:	f7fa fd3a 	bl	8000234 <__aeabi_uldivmod>
 80057c0:	0002      	movs	r2, r0
 80057c2:	000b      	movs	r3, r1
 80057c4:	0e11      	lsrs	r1, r2, #24
 80057c6:	021d      	lsls	r5, r3, #8
 80057c8:	430d      	orrs	r5, r1
 80057ca:	0214      	lsls	r4, r2, #8
 80057cc:	6a7b      	ldr	r3, [r7, #36]	@ 0x24
 80057ce:	685b      	ldr	r3, [r3, #4]
 80057d0:	085b      	lsrs	r3, r3, #1
 80057d2:	60bb      	str	r3, [r7, #8]
 80057d4:	2300      	movs	r3, #0
 80057d6:	60fb      	str	r3, [r7, #12]
 80057d8:	68b8      	ldr	r0, [r7, #8]
 80057da:	68f9      	ldr	r1, [r7, #12]
 80057dc:	1900      	adds	r0, r0, r4
 80057de:	4169      	adcs	r1, r5
 80057e0:	6a7b      	ldr	r3, [r7, #36]	@ 0x24
 80057e2:	685b      	ldr	r3, [r3, #4]
 80057e4:	603b      	str	r3, [r7, #0]
 80057e6:	2300      	movs	r3, #0
 80057e8:	607b      	str	r3, [r7, #4]
 80057ea:	683a      	ldr	r2, [r7, #0]
 80057ec:	687b      	ldr	r3, [r7, #4]
 80057ee:	f7fa fd21 	bl	8000234 <__aeabi_uldivmod>
 80057f2:	0002      	movs	r2, r0
 80057f4:	000b      	movs	r3, r1
 80057f6:	0013      	movs	r3, r2
 80057f8:	637b      	str	r3, [r7, #52]	@ 0x34
        if ((usartdiv >= LPUART_BRR_MIN) && (usartdiv <= LPUART_BRR_MAX))
 80057fa:	6b7a      	ldr	r2, [r7, #52]	@ 0x34
 80057fc:	23c0      	movs	r3, #192	@ 0xc0
 80057fe:	009b      	lsls	r3, r3, #2
 8005800:	429a      	cmp	r2, r3
 8005802:	d309      	bcc.n	8005818 <UART_SetConfig+0x228>
 8005804:	6b7a      	ldr	r2, [r7, #52]	@ 0x34
 8005806:	2380      	movs	r3, #128	@ 0x80
 8005808:	035b      	lsls	r3, r3, #13
 800580a:	429a      	cmp	r2, r3
 800580c:	d204      	bcs.n	8005818 <UART_SetConfig+0x228>
        {
          huart->Instance->BRR = usartdiv;
 800580e:	6a7b      	ldr	r3, [r7, #36]	@ 0x24
 8005810:	681b      	ldr	r3, [r3, #0]
 8005812:	6b7a      	ldr	r2, [r7, #52]	@ 0x34
 8005814:	60da      	str	r2, [r3, #12]
 8005816:	e006      	b.n	8005826 <UART_SetConfig+0x236>
        }
        else
        {
          ret = HAL_ERROR;
 8005818:	231f      	movs	r3, #31
 800581a:	2220      	movs	r2, #32
 800581c:	189b      	adds	r3, r3, r2
 800581e:	19db      	adds	r3, r3, r7
 8005820:	2201      	movs	r2, #1
 8005822:	701a      	strb	r2, [r3, #0]
    if (pclk != 0U)
 8005824:	e09e      	b.n	8005964 <UART_SetConfig+0x374>
 8005826:	e09d      	b.n	8005964 <UART_SetConfig+0x374>
      } /* if ( (lpuart_ker_ck_pres < (3 * huart->Init.BaudRate) ) ||
                (lpuart_ker_ck_pres > (4096 * huart->Init.BaudRate) )) */
    } /* if (pclk != 0) */
  }
  /* Check UART Over Sampling to set Baud Rate Register */
  else if (huart->Init.OverSampling == UART_OVERSAMPLING_8)
 8005828:	6a7b      	ldr	r3, [r7, #36]	@ 0x24
 800582a:	69da      	ldr	r2, [r3, #28]
 800582c:	2380      	movs	r3, #128	@ 0x80
 800582e:	021b      	lsls	r3, r3, #8
 8005830:	429a      	cmp	r2, r3
 8005832:	d14c      	bne.n	80058ce <UART_SetConfig+0x2de>
  {
    pclk = HAL_RCCEx_GetPeriphCLKFreq(clocksource);
 8005834:	6c3b      	ldr	r3, [r7, #64]	@ 0x40
 8005836:	0018      	movs	r0, r3
 8005838:	f7fe fe8e 	bl	8004558 <HAL_RCCEx_GetPeriphCLKFreq>
 800583c:	0003      	movs	r3, r0
 800583e:	63bb      	str	r3, [r7, #56]	@ 0x38

    /* USARTDIV must be greater than or equal to 0d16 */
    if (pclk != 0U)
 8005840:	6bbb      	ldr	r3, [r7, #56]	@ 0x38
 8005842:	2b00      	cmp	r3, #0
 8005844:	d100      	bne.n	8005848 <UART_SetConfig+0x258>
 8005846:	e08d      	b.n	8005964 <UART_SetConfig+0x374>
    {
      usartdiv = (uint32_t)(UART_DIV_SAMPLING8(pclk, huart->Init.BaudRate, huart->Init.ClockPrescaler));
 8005848:	6a7b      	ldr	r3, [r7, #36]	@ 0x24
 800584a:	6a5a      	ldr	r2, [r3, #36]	@ 0x24
 800584c:	4b41      	ldr	r3, [pc, #260]	@ (8005954 <UART_SetConfig+0x364>)
 800584e:	0052      	lsls	r2, r2, #1
 8005850:	5ad3      	ldrh	r3, [r2, r3]
 8005852:	0019      	movs	r1, r3
 8005854:	6bb8      	ldr	r0, [r7, #56]	@ 0x38
 8005856:	f7fa fc61 	bl	800011c <__udivsi3>
 800585a:	0003      	movs	r3, r0
 800585c:	005a      	lsls	r2, r3, #1
 800585e:	6a7b      	ldr	r3, [r7, #36]	@ 0x24
 8005860:	685b      	ldr	r3, [r3, #4]
 8005862:	085b      	lsrs	r3, r3, #1
 8005864:	18d2      	adds	r2, r2, r3
 8005866:	6a7b      	ldr	r3, [r7, #36]	@ 0x24
 8005868:	685b      	ldr	r3, [r3, #4]
 800586a:	0019      	movs	r1, r3
 800586c:	0010      	movs	r0, r2
 800586e:	f7fa fc55 	bl	800011c <__udivsi3>
 8005872:	0003      	movs	r3, r0
 8005874:	637b      	str	r3, [r7, #52]	@ 0x34
      if ((usartdiv >= UART_BRR_MIN) && (usartdiv <= UART_BRR_MAX))
 8005876:	6b7b      	ldr	r3, [r7, #52]	@ 0x34
 8005878:	2b0f      	cmp	r3, #15
 800587a:	d921      	bls.n	80058c0 <UART_SetConfig+0x2d0>
 800587c:	6b7a      	ldr	r2, [r7, #52]	@ 0x34
 800587e:	2380      	movs	r3, #128	@ 0x80
 8005880:	025b      	lsls	r3, r3, #9
 8005882:	429a      	cmp	r2, r3
 8005884:	d21c      	bcs.n	80058c0 <UART_SetConfig+0x2d0>
      {
        brrtemp = (uint16_t)(usartdiv & 0xFFF0U);
 8005886:	6b7b      	ldr	r3, [r7, #52]	@ 0x34
 8005888:	b29a      	uxth	r2, r3
 800588a:	2012      	movs	r0, #18
 800588c:	2420      	movs	r4, #32
 800588e:	1903      	adds	r3, r0, r4
 8005890:	19db      	adds	r3, r3, r7
 8005892:	210f      	movs	r1, #15
 8005894:	438a      	bics	r2, r1
 8005896:	801a      	strh	r2, [r3, #0]
        brrtemp |= (uint16_t)((usartdiv & (uint16_t)0x000FU) >> 1U);
 8005898:	6b7b      	ldr	r3, [r7, #52]	@ 0x34
 800589a:	085b      	lsrs	r3, r3, #1
 800589c:	b29b      	uxth	r3, r3
 800589e:	2207      	movs	r2, #7
 80058a0:	4013      	ands	r3, r2
 80058a2:	b299      	uxth	r1, r3
 80058a4:	1903      	adds	r3, r0, r4
 80058a6:	19db      	adds	r3, r3, r7
 80058a8:	1902      	adds	r2, r0, r4
 80058aa:	19d2      	adds	r2, r2, r7
 80058ac:	8812      	ldrh	r2, [r2, #0]
 80058ae:	430a      	orrs	r2, r1
 80058b0:	801a      	strh	r2, [r3, #0]
        huart->Instance->BRR = brrtemp;
 80058b2:	6a7b      	ldr	r3, [r7, #36]	@ 0x24
 80058b4:	681b      	ldr	r3, [r3, #0]
 80058b6:	1902      	adds	r2, r0, r4
 80058b8:	19d2      	adds	r2, r2, r7
 80058ba:	8812      	ldrh	r2, [r2, #0]
 80058bc:	60da      	str	r2, [r3, #12]
 80058be:	e051      	b.n	8005964 <UART_SetConfig+0x374>
      }
      else
      {
        ret = HAL_ERROR;
 80058c0:	231f      	movs	r3, #31
 80058c2:	2220      	movs	r2, #32
 80058c4:	189b      	adds	r3, r3, r2
 80058c6:	19db      	adds	r3, r3, r7
 80058c8:	2201      	movs	r2, #1
 80058ca:	701a      	strb	r2, [r3, #0]
 80058cc:	e04a      	b.n	8005964 <UART_SetConfig+0x374>
      }
    }
  }
  else
  {
    pclk = HAL_RCCEx_GetPeriphCLKFreq(clocksource);
 80058ce:	6c3b      	ldr	r3, [r7, #64]	@ 0x40
 80058d0:	0018      	movs	r0, r3
 80058d2:	f7fe fe41 	bl	8004558 <HAL_RCCEx_GetPeriphCLKFreq>
 80058d6:	0003      	movs	r3, r0
 80058d8:	63bb      	str	r3, [r7, #56]	@ 0x38

    if (pclk != 0U)
 80058da:	6bbb      	ldr	r3, [r7, #56]	@ 0x38
 80058dc:	2b00      	cmp	r3, #0
 80058de:	d041      	beq.n	8005964 <UART_SetConfig+0x374>
    {
      /* USARTDIV must be greater than or equal to 0d16 */
      usartdiv = (uint32_t)(UART_DIV_SAMPLING16(pclk, huart->Init.BaudRate, huart->Init.ClockPrescaler));
 80058e0:	6a7b      	ldr	r3, [r7, #36]	@ 0x24
 80058e2:	6a5a      	ldr	r2, [r3, #36]	@ 0x24
 80058e4:	4b1b      	ldr	r3, [pc, #108]	@ (8005954 <UART_SetConfig+0x364>)
 80058e6:	0052      	lsls	r2, r2, #1
 80058e8:	5ad3      	ldrh	r3, [r2, r3]
 80058ea:	0019      	movs	r1, r3
 80058ec:	6bb8      	ldr	r0, [r7, #56]	@ 0x38
 80058ee:	f7fa fc15 	bl	800011c <__udivsi3>
 80058f2:	0003      	movs	r3, r0
 80058f4:	001a      	movs	r2, r3
 80058f6:	6a7b      	ldr	r3, [r7, #36]	@ 0x24
 80058f8:	685b      	ldr	r3, [r3, #4]
 80058fa:	085b      	lsrs	r3, r3, #1
 80058fc:	18d2      	adds	r2, r2, r3
 80058fe:	6a7b      	ldr	r3, [r7, #36]	@ 0x24
 8005900:	685b      	ldr	r3, [r3, #4]
 8005902:	0019      	movs	r1, r3
 8005904:	0010      	movs	r0, r2
 8005906:	f7fa fc09 	bl	800011c <__udivsi3>
 800590a:	0003      	movs	r3, r0
 800590c:	637b      	str	r3, [r7, #52]	@ 0x34
      if ((usartdiv >= UART_BRR_MIN) && (usartdiv <= UART_BRR_MAX))
 800590e:	6b7b      	ldr	r3, [r7, #52]	@ 0x34
 8005910:	2b0f      	cmp	r3, #15
 8005912:	d921      	bls.n	8005958 <UART_SetConfig+0x368>
 8005914:	6b7a      	ldr	r2, [r7, #52]	@ 0x34
 8005916:	2380      	movs	r3, #128	@ 0x80
 8005918:	025b      	lsls	r3, r3, #9
 800591a:	429a      	cmp	r2, r3
 800591c:	d21c      	bcs.n	8005958 <UART_SetConfig+0x368>
      {
        huart->Instance->BRR = (uint16_t)usartdiv;
 800591e:	6b7b      	ldr	r3, [r7, #52]	@ 0x34
 8005920:	b29a      	uxth	r2, r3
 8005922:	6a7b      	ldr	r3, [r7, #36]	@ 0x24
 8005924:	681b      	ldr	r3, [r3, #0]
 8005926:	60da      	str	r2, [r3, #12]
 8005928:	e01c      	b.n	8005964 <UART_SetConfig+0x374>
 800592a:	46c0      	nop			@ (mov r8, r8)
 800592c:	40008000 	.word	0x40008000
 8005930:	cfff69f3 	.word	0xcfff69f3
 8005934:	ffffcfff 	.word	0xffffcfff
 8005938:	40008400 	.word	0x40008400
 800593c:	40008c00 	.word	0x40008c00
 8005940:	11fff4ff 	.word	0x11fff4ff
 8005944:	40013800 	.word	0x40013800
 8005948:	40004400 	.word	0x40004400
 800594c:	40004800 	.word	0x40004800
 8005950:	40004c00 	.word	0x40004c00
 8005954:	08006ee4 	.word	0x08006ee4
      }
      else
      {
        ret = HAL_ERROR;
 8005958:	231f      	movs	r3, #31
 800595a:	2220      	movs	r2, #32
 800595c:	189b      	adds	r3, r3, r2
 800595e:	19db      	adds	r3, r3, r7
 8005960:	2201      	movs	r2, #1
 8005962:	701a      	strb	r2, [r3, #0]
      }
    }
  }

  /* Initialize the number of data to process during RX/TX ISR execution */
  huart->NbTxDataToProcess = 1;
 8005964:	6a7b      	ldr	r3, [r7, #36]	@ 0x24
 8005966:	226a      	movs	r2, #106	@ 0x6a
 8005968:	2101      	movs	r1, #1
 800596a:	5299      	strh	r1, [r3, r2]
  huart->NbRxDataToProcess = 1;
 800596c:	6a7b      	ldr	r3, [r7, #36]	@ 0x24
 800596e:	2268      	movs	r2, #104	@ 0x68
 8005970:	2101      	movs	r1, #1
 8005972:	5299      	strh	r1, [r3, r2]

  /* Clear ISR function pointers */
  huart->RxISR = NULL;
 8005974:	6a7b      	ldr	r3, [r7, #36]	@ 0x24
 8005976:	2200      	movs	r2, #0
 8005978:	675a      	str	r2, [r3, #116]	@ 0x74
  huart->TxISR = NULL;
 800597a:	6a7b      	ldr	r3, [r7, #36]	@ 0x24
 800597c:	2200      	movs	r2, #0
 800597e:	679a      	str	r2, [r3, #120]	@ 0x78

  return ret;
 8005980:	231f      	movs	r3, #31
 8005982:	2220      	movs	r2, #32
 8005984:	189b      	adds	r3, r3, r2
 8005986:	19db      	adds	r3, r3, r7
 8005988:	781b      	ldrb	r3, [r3, #0]
}
 800598a:	0018      	movs	r0, r3
 800598c:	46bd      	mov	sp, r7
 800598e:	b012      	add	sp, #72	@ 0x48
 8005990:	bdb0      	pop	{r4, r5, r7, pc}
 8005992:	46c0      	nop			@ (mov r8, r8)

08005994 <UART_AdvFeatureConfig>:
  * @brief Configure the UART peripheral advanced features.
  * @param huart UART handle.
  * @retval None
  */
void UART_AdvFeatureConfig(UART_HandleTypeDef *huart)
{
 8005994:	b580      	push	{r7, lr}
 8005996:	b082      	sub	sp, #8
 8005998:	af00      	add	r7, sp, #0
 800599a:	6078      	str	r0, [r7, #4]
  /* Check whether the set of advanced features to configure is properly set */
  assert_param(IS_UART_ADVFEATURE_INIT(huart->AdvancedInit.AdvFeatureInit));

  /* if required, configure RX/TX pins swap */
  if (HAL_IS_BIT_SET(huart->AdvancedInit.AdvFeatureInit, UART_ADVFEATURE_SWAP_INIT))
 800599c:	687b      	ldr	r3, [r7, #4]
 800599e:	6a9b      	ldr	r3, [r3, #40]	@ 0x28
 80059a0:	2208      	movs	r2, #8
 80059a2:	4013      	ands	r3, r2
 80059a4:	d00b      	beq.n	80059be <UART_AdvFeatureConfig+0x2a>
  {
    assert_param(IS_UART_ADVFEATURE_SWAP(huart->AdvancedInit.Swap));
    MODIFY_REG(huart->Instance->CR2, USART_CR2_SWAP, huart->AdvancedInit.Swap);
 80059a6:	687b      	ldr	r3, [r7, #4]
 80059a8:	681b      	ldr	r3, [r3, #0]
 80059aa:	685b      	ldr	r3, [r3, #4]
 80059ac:	4a4a      	ldr	r2, [pc, #296]	@ (8005ad8 <UART_AdvFeatureConfig+0x144>)
 80059ae:	4013      	ands	r3, r2
 80059b0:	0019      	movs	r1, r3
 80059b2:	687b      	ldr	r3, [r7, #4]
 80059b4:	6b9a      	ldr	r2, [r3, #56]	@ 0x38
 80059b6:	687b      	ldr	r3, [r7, #4]
 80059b8:	681b      	ldr	r3, [r3, #0]
 80059ba:	430a      	orrs	r2, r1
 80059bc:	605a      	str	r2, [r3, #4]
  }

  /* if required, configure TX pin active level inversion */
  if (HAL_IS_BIT_SET(huart->AdvancedInit.AdvFeatureInit, UART_ADVFEATURE_TXINVERT_INIT))
 80059be:	687b      	ldr	r3, [r7, #4]
 80059c0:	6a9b      	ldr	r3, [r3, #40]	@ 0x28
 80059c2:	2201      	movs	r2, #1
 80059c4:	4013      	ands	r3, r2
 80059c6:	d00b      	beq.n	80059e0 <UART_AdvFeatureConfig+0x4c>
  {
    assert_param(IS_UART_ADVFEATURE_TXINV(huart->AdvancedInit.TxPinLevelInvert));
    MODIFY_REG(huart->Instance->CR2, USART_CR2_TXINV, huart->AdvancedInit.TxPinLevelInvert);
 80059c8:	687b      	ldr	r3, [r7, #4]
 80059ca:	681b      	ldr	r3, [r3, #0]
 80059cc:	685b      	ldr	r3, [r3, #4]
 80059ce:	4a43      	ldr	r2, [pc, #268]	@ (8005adc <UART_AdvFeatureConfig+0x148>)
 80059d0:	4013      	ands	r3, r2
 80059d2:	0019      	movs	r1, r3
 80059d4:	687b      	ldr	r3, [r7, #4]
 80059d6:	6ada      	ldr	r2, [r3, #44]	@ 0x2c
 80059d8:	687b      	ldr	r3, [r7, #4]
 80059da:	681b      	ldr	r3, [r3, #0]
 80059dc:	430a      	orrs	r2, r1
 80059de:	605a      	str	r2, [r3, #4]
  }

  /* if required, configure RX pin active level inversion */
  if (HAL_IS_BIT_SET(huart->AdvancedInit.AdvFeatureInit, UART_ADVFEATURE_RXINVERT_INIT))
 80059e0:	687b      	ldr	r3, [r7, #4]
 80059e2:	6a9b      	ldr	r3, [r3, #40]	@ 0x28
 80059e4:	2202      	movs	r2, #2
 80059e6:	4013      	ands	r3, r2
 80059e8:	d00b      	beq.n	8005a02 <UART_AdvFeatureConfig+0x6e>
  {
    assert_param(IS_UART_ADVFEATURE_RXINV(huart->AdvancedInit.RxPinLevelInvert));
    MODIFY_REG(huart->Instance->CR2, USART_CR2_RXINV, huart->AdvancedInit.RxPinLevelInvert);
 80059ea:	687b      	ldr	r3, [r7, #4]
 80059ec:	681b      	ldr	r3, [r3, #0]
 80059ee:	685b      	ldr	r3, [r3, #4]
 80059f0:	4a3b      	ldr	r2, [pc, #236]	@ (8005ae0 <UART_AdvFeatureConfig+0x14c>)
 80059f2:	4013      	ands	r3, r2
 80059f4:	0019      	movs	r1, r3
 80059f6:	687b      	ldr	r3, [r7, #4]
 80059f8:	6b1a      	ldr	r2, [r3, #48]	@ 0x30
 80059fa:	687b      	ldr	r3, [r7, #4]
 80059fc:	681b      	ldr	r3, [r3, #0]
 80059fe:	430a      	orrs	r2, r1
 8005a00:	605a      	str	r2, [r3, #4]
  }

  /* if required, configure data inversion */
  if (HAL_IS_BIT_SET(huart->AdvancedInit.AdvFeatureInit, UART_ADVFEATURE_DATAINVERT_INIT))
 8005a02:	687b      	ldr	r3, [r7, #4]
 8005a04:	6a9b      	ldr	r3, [r3, #40]	@ 0x28
 8005a06:	2204      	movs	r2, #4
 8005a08:	4013      	ands	r3, r2
 8005a0a:	d00b      	beq.n	8005a24 <UART_AdvFeatureConfig+0x90>
  {
    assert_param(IS_UART_ADVFEATURE_DATAINV(huart->AdvancedInit.DataInvert));
    MODIFY_REG(huart->Instance->CR2, USART_CR2_DATAINV, huart->AdvancedInit.DataInvert);
 8005a0c:	687b      	ldr	r3, [r7, #4]
 8005a0e:	681b      	ldr	r3, [r3, #0]
 8005a10:	685b      	ldr	r3, [r3, #4]
 8005a12:	4a34      	ldr	r2, [pc, #208]	@ (8005ae4 <UART_AdvFeatureConfig+0x150>)
 8005a14:	4013      	ands	r3, r2
 8005a16:	0019      	movs	r1, r3
 8005a18:	687b      	ldr	r3, [r7, #4]
 8005a1a:	6b5a      	ldr	r2, [r3, #52]	@ 0x34
 8005a1c:	687b      	ldr	r3, [r7, #4]
 8005a1e:	681b      	ldr	r3, [r3, #0]
 8005a20:	430a      	orrs	r2, r1
 8005a22:	605a      	str	r2, [r3, #4]
  }

  /* if required, configure RX overrun detection disabling */
  if (HAL_IS_BIT_SET(huart->AdvancedInit.AdvFeatureInit, UART_ADVFEATURE_RXOVERRUNDISABLE_INIT))
 8005a24:	687b      	ldr	r3, [r7, #4]
 8005a26:	6a9b      	ldr	r3, [r3, #40]	@ 0x28
 8005a28:	2210      	movs	r2, #16
 8005a2a:	4013      	ands	r3, r2
 8005a2c:	d00b      	beq.n	8005a46 <UART_AdvFeatureConfig+0xb2>
  {
    assert_param(IS_UART_OVERRUN(huart->AdvancedInit.OverrunDisable));
    MODIFY_REG(huart->Instance->CR3, USART_CR3_OVRDIS, huart->AdvancedInit.OverrunDisable);
 8005a2e:	687b      	ldr	r3, [r7, #4]
 8005a30:	681b      	ldr	r3, [r3, #0]
 8005a32:	689b      	ldr	r3, [r3, #8]
 8005a34:	4a2c      	ldr	r2, [pc, #176]	@ (8005ae8 <UART_AdvFeatureConfig+0x154>)
 8005a36:	4013      	ands	r3, r2
 8005a38:	0019      	movs	r1, r3
 8005a3a:	687b      	ldr	r3, [r7, #4]
 8005a3c:	6bda      	ldr	r2, [r3, #60]	@ 0x3c
 8005a3e:	687b      	ldr	r3, [r7, #4]
 8005a40:	681b      	ldr	r3, [r3, #0]
 8005a42:	430a      	orrs	r2, r1
 8005a44:	609a      	str	r2, [r3, #8]
  }

#if defined(HAL_DMA_MODULE_ENABLED)
  /* if required, configure DMA disabling on reception error */
  if (HAL_IS_BIT_SET(huart->AdvancedInit.AdvFeatureInit, UART_ADVFEATURE_DMADISABLEONERROR_INIT))
 8005a46:	687b      	ldr	r3, [r7, #4]
 8005a48:	6a9b      	ldr	r3, [r3, #40]	@ 0x28
 8005a4a:	2220      	movs	r2, #32
 8005a4c:	4013      	ands	r3, r2
 8005a4e:	d00b      	beq.n	8005a68 <UART_AdvFeatureConfig+0xd4>
  {
    assert_param(IS_UART_ADVFEATURE_DMAONRXERROR(huart->AdvancedInit.DMADisableonRxError));
    MODIFY_REG(huart->Instance->CR3, USART_CR3_DDRE, huart->AdvancedInit.DMADisableonRxError);
 8005a50:	687b      	ldr	r3, [r7, #4]
 8005a52:	681b      	ldr	r3, [r3, #0]
 8005a54:	689b      	ldr	r3, [r3, #8]
 8005a56:	4a25      	ldr	r2, [pc, #148]	@ (8005aec <UART_AdvFeatureConfig+0x158>)
 8005a58:	4013      	ands	r3, r2
 8005a5a:	0019      	movs	r1, r3
 8005a5c:	687b      	ldr	r3, [r7, #4]
 8005a5e:	6c1a      	ldr	r2, [r3, #64]	@ 0x40
 8005a60:	687b      	ldr	r3, [r7, #4]
 8005a62:	681b      	ldr	r3, [r3, #0]
 8005a64:	430a      	orrs	r2, r1
 8005a66:	609a      	str	r2, [r3, #8]
  }
#endif /* HAL_DMA_MODULE_ENABLED */

  /* if required, configure auto Baud rate detection scheme */
  if (HAL_IS_BIT_SET(huart->AdvancedInit.AdvFeatureInit, UART_ADVFEATURE_AUTOBAUDRATE_INIT))
 8005a68:	687b      	ldr	r3, [r7, #4]
 8005a6a:	6a9b      	ldr	r3, [r3, #40]	@ 0x28
 8005a6c:	2240      	movs	r2, #64	@ 0x40
 8005a6e:	4013      	ands	r3, r2
 8005a70:	d01d      	beq.n	8005aae <UART_AdvFeatureConfig+0x11a>
  {
    assert_param(IS_USART_AUTOBAUDRATE_DETECTION_INSTANCE(huart->Instance));
    assert_param(IS_UART_ADVFEATURE_AUTOBAUDRATE(huart->AdvancedInit.AutoBaudRateEnable));
    MODIFY_REG(huart->Instance->CR2, USART_CR2_ABREN, huart->AdvancedInit.AutoBaudRateEnable);
 8005a72:	687b      	ldr	r3, [r7, #4]
 8005a74:	681b      	ldr	r3, [r3, #0]
 8005a76:	685b      	ldr	r3, [r3, #4]
 8005a78:	4a1d      	ldr	r2, [pc, #116]	@ (8005af0 <UART_AdvFeatureConfig+0x15c>)
 8005a7a:	4013      	ands	r3, r2
 8005a7c:	0019      	movs	r1, r3
 8005a7e:	687b      	ldr	r3, [r7, #4]
 8005a80:	6c5a      	ldr	r2, [r3, #68]	@ 0x44
 8005a82:	687b      	ldr	r3, [r7, #4]
 8005a84:	681b      	ldr	r3, [r3, #0]
 8005a86:	430a      	orrs	r2, r1
 8005a88:	605a      	str	r2, [r3, #4]
    /* set auto Baudrate detection parameters if detection is enabled */
    if (huart->AdvancedInit.AutoBaudRateEnable == UART_ADVFEATURE_AUTOBAUDRATE_ENABLE)
 8005a8a:	687b      	ldr	r3, [r7, #4]
 8005a8c:	6c5a      	ldr	r2, [r3, #68]	@ 0x44
 8005a8e:	2380      	movs	r3, #128	@ 0x80
 8005a90:	035b      	lsls	r3, r3, #13
 8005a92:	429a      	cmp	r2, r3
 8005a94:	d10b      	bne.n	8005aae <UART_AdvFeatureConfig+0x11a>
    {
      assert_param(IS_UART_ADVFEATURE_AUTOBAUDRATEMODE(huart->AdvancedInit.AutoBaudRateMode));
      MODIFY_REG(huart->Instance->CR2, USART_CR2_ABRMODE, huart->AdvancedInit.AutoBaudRateMode);
 8005a96:	687b      	ldr	r3, [r7, #4]
 8005a98:	681b      	ldr	r3, [r3, #0]
 8005a9a:	685b      	ldr	r3, [r3, #4]
 8005a9c:	4a15      	ldr	r2, [pc, #84]	@ (8005af4 <UART_AdvFeatureConfig+0x160>)
 8005a9e:	4013      	ands	r3, r2
 8005aa0:	0019      	movs	r1, r3
 8005aa2:	687b      	ldr	r3, [r7, #4]
 8005aa4:	6c9a      	ldr	r2, [r3, #72]	@ 0x48
 8005aa6:	687b      	ldr	r3, [r7, #4]
 8005aa8:	681b      	ldr	r3, [r3, #0]
 8005aaa:	430a      	orrs	r2, r1
 8005aac:	605a      	str	r2, [r3, #4]
    }
  }

  /* if required, configure MSB first on communication line */
  if (HAL_IS_BIT_SET(huart->AdvancedInit.AdvFeatureInit, UART_ADVFEATURE_MSBFIRST_INIT))
 8005aae:	687b      	ldr	r3, [r7, #4]
 8005ab0:	6a9b      	ldr	r3, [r3, #40]	@ 0x28
 8005ab2:	2280      	movs	r2, #128	@ 0x80
 8005ab4:	4013      	ands	r3, r2
 8005ab6:	d00b      	beq.n	8005ad0 <UART_AdvFeatureConfig+0x13c>
  {
    assert_param(IS_UART_ADVFEATURE_MSBFIRST(huart->AdvancedInit.MSBFirst));
    MODIFY_REG(huart->Instance->CR2, USART_CR2_MSBFIRST, huart->AdvancedInit.MSBFirst);
 8005ab8:	687b      	ldr	r3, [r7, #4]
 8005aba:	681b      	ldr	r3, [r3, #0]
 8005abc:	685b      	ldr	r3, [r3, #4]
 8005abe:	4a0e      	ldr	r2, [pc, #56]	@ (8005af8 <UART_AdvFeatureConfig+0x164>)
 8005ac0:	4013      	ands	r3, r2
 8005ac2:	0019      	movs	r1, r3
 8005ac4:	687b      	ldr	r3, [r7, #4]
 8005ac6:	6cda      	ldr	r2, [r3, #76]	@ 0x4c
 8005ac8:	687b      	ldr	r3, [r7, #4]
 8005aca:	681b      	ldr	r3, [r3, #0]
 8005acc:	430a      	orrs	r2, r1
 8005ace:	605a      	str	r2, [r3, #4]
  }
}
 8005ad0:	46c0      	nop			@ (mov r8, r8)
 8005ad2:	46bd      	mov	sp, r7
 8005ad4:	b002      	add	sp, #8
 8005ad6:	bd80      	pop	{r7, pc}
 8005ad8:	ffff7fff 	.word	0xffff7fff
 8005adc:	fffdffff 	.word	0xfffdffff
 8005ae0:	fffeffff 	.word	0xfffeffff
 8005ae4:	fffbffff 	.word	0xfffbffff
 8005ae8:	ffffefff 	.word	0xffffefff
 8005aec:	ffffdfff 	.word	0xffffdfff
 8005af0:	ffefffff 	.word	0xffefffff
 8005af4:	ff9fffff 	.word	0xff9fffff
 8005af8:	fff7ffff 	.word	0xfff7ffff

08005afc <UART_CheckIdleState>:
  * @brief Check the UART Idle State.
  * @param huart UART handle.
  * @retval HAL status
  */
HAL_StatusTypeDef UART_CheckIdleState(UART_HandleTypeDef *huart)
{
 8005afc:	b580      	push	{r7, lr}
 8005afe:	b092      	sub	sp, #72	@ 0x48
 8005b00:	af02      	add	r7, sp, #8
 8005b02:	6078      	str	r0, [r7, #4]
  uint32_t tickstart;

  /* Initialize the UART ErrorCode */
  huart->ErrorCode = HAL_UART_ERROR_NONE;
 8005b04:	687b      	ldr	r3, [r7, #4]
 8005b06:	2290      	movs	r2, #144	@ 0x90
 8005b08:	2100      	movs	r1, #0
 8005b0a:	5099      	str	r1, [r3, r2]

  /* Init tickstart for timeout management */
  tickstart = HAL_GetTick();
 8005b0c:	f7fb fadc 	bl	80010c8 <HAL_GetTick>
 8005b10:	0003      	movs	r3, r0
 8005b12:	63fb      	str	r3, [r7, #60]	@ 0x3c

  /* Check if the Transmitter is enabled */
  if ((huart->Instance->CR1 & USART_CR1_TE) == USART_CR1_TE)
 8005b14:	687b      	ldr	r3, [r7, #4]
 8005b16:	681b      	ldr	r3, [r3, #0]
 8005b18:	681b      	ldr	r3, [r3, #0]
 8005b1a:	2208      	movs	r2, #8
 8005b1c:	4013      	ands	r3, r2
 8005b1e:	2b08      	cmp	r3, #8
 8005b20:	d12d      	bne.n	8005b7e <UART_CheckIdleState+0x82>
  {
    /* Wait until TEACK flag is set */
    if (UART_WaitOnFlagUntilTimeout(huart, USART_ISR_TEACK, RESET, tickstart, HAL_UART_TIMEOUT_VALUE) != HAL_OK)
 8005b22:	6bfb      	ldr	r3, [r7, #60]	@ 0x3c
 8005b24:	2280      	movs	r2, #128	@ 0x80
 8005b26:	0391      	lsls	r1, r2, #14
 8005b28:	6878      	ldr	r0, [r7, #4]
 8005b2a:	4a47      	ldr	r2, [pc, #284]	@ (8005c48 <UART_CheckIdleState+0x14c>)
 8005b2c:	9200      	str	r2, [sp, #0]
 8005b2e:	2200      	movs	r2, #0
 8005b30:	f000 f88e 	bl	8005c50 <UART_WaitOnFlagUntilTimeout>
 8005b34:	1e03      	subs	r3, r0, #0
 8005b36:	d022      	beq.n	8005b7e <UART_CheckIdleState+0x82>
 */
__STATIC_FORCEINLINE uint32_t __get_PRIMASK(void)
{
  uint32_t result;

  __ASM volatile ("MRS %0, primask" : "=r" (result) );
 8005b38:	f3ef 8310 	mrs	r3, PRIMASK
 8005b3c:	627b      	str	r3, [r7, #36]	@ 0x24
  return(result);
 8005b3e:	6a7b      	ldr	r3, [r7, #36]	@ 0x24
    {
      /* Disable TXE interrupt for the interrupt process */
      ATOMIC_CLEAR_BIT(huart->Instance->CR1, (USART_CR1_TXEIE_TXFNFIE));
 8005b40:	63bb      	str	r3, [r7, #56]	@ 0x38
 8005b42:	2301      	movs	r3, #1
 8005b44:	62bb      	str	r3, [r7, #40]	@ 0x28
  \details Assigns the given value to the Priority Mask Register.
  \param [in]    priMask  Priority Mask
 */
__STATIC_FORCEINLINE void __set_PRIMASK(uint32_t priMask)
{
  __ASM volatile ("MSR primask, %0" : : "r" (priMask) : "memory");
 8005b46:	6abb      	ldr	r3, [r7, #40]	@ 0x28
 8005b48:	f383 8810 	msr	PRIMASK, r3
}
 8005b4c:	46c0      	nop			@ (mov r8, r8)
 8005b4e:	687b      	ldr	r3, [r7, #4]
 8005b50:	681b      	ldr	r3, [r3, #0]
 8005b52:	681a      	ldr	r2, [r3, #0]
 8005b54:	687b      	ldr	r3, [r7, #4]
 8005b56:	681b      	ldr	r3, [r3, #0]
 8005b58:	2180      	movs	r1, #128	@ 0x80
 8005b5a:	438a      	bics	r2, r1
 8005b5c:	601a      	str	r2, [r3, #0]
 8005b5e:	6bbb      	ldr	r3, [r7, #56]	@ 0x38
 8005b60:	62fb      	str	r3, [r7, #44]	@ 0x2c
  __ASM volatile ("MSR primask, %0" : : "r" (priMask) : "memory");
 8005b62:	6afb      	ldr	r3, [r7, #44]	@ 0x2c
 8005b64:	f383 8810 	msr	PRIMASK, r3
}
 8005b68:	46c0      	nop			@ (mov r8, r8)

      huart->gState = HAL_UART_STATE_READY;
 8005b6a:	687b      	ldr	r3, [r7, #4]
 8005b6c:	2288      	movs	r2, #136	@ 0x88
 8005b6e:	2120      	movs	r1, #32
 8005b70:	5099      	str	r1, [r3, r2]

      __HAL_UNLOCK(huart);
 8005b72:	687b      	ldr	r3, [r7, #4]
 8005b74:	2284      	movs	r2, #132	@ 0x84
 8005b76:	2100      	movs	r1, #0
 8005b78:	5499      	strb	r1, [r3, r2]

      /* Timeout occurred */
      return HAL_TIMEOUT;
 8005b7a:	2303      	movs	r3, #3
 8005b7c:	e060      	b.n	8005c40 <UART_CheckIdleState+0x144>
    }
  }

  /* Check if the Receiver is enabled */
  if ((huart->Instance->CR1 & USART_CR1_RE) == USART_CR1_RE)
 8005b7e:	687b      	ldr	r3, [r7, #4]
 8005b80:	681b      	ldr	r3, [r3, #0]
 8005b82:	681b      	ldr	r3, [r3, #0]
 8005b84:	2204      	movs	r2, #4
 8005b86:	4013      	ands	r3, r2
 8005b88:	2b04      	cmp	r3, #4
 8005b8a:	d146      	bne.n	8005c1a <UART_CheckIdleState+0x11e>
  {
    /* Wait until REACK flag is set */
    if (UART_WaitOnFlagUntilTimeout(huart, USART_ISR_REACK, RESET, tickstart, HAL_UART_TIMEOUT_VALUE) != HAL_OK)
 8005b8c:	6bfb      	ldr	r3, [r7, #60]	@ 0x3c
 8005b8e:	2280      	movs	r2, #128	@ 0x80
 8005b90:	03d1      	lsls	r1, r2, #15
 8005b92:	6878      	ldr	r0, [r7, #4]
 8005b94:	4a2c      	ldr	r2, [pc, #176]	@ (8005c48 <UART_CheckIdleState+0x14c>)
 8005b96:	9200      	str	r2, [sp, #0]
 8005b98:	2200      	movs	r2, #0
 8005b9a:	f000 f859 	bl	8005c50 <UART_WaitOnFlagUntilTimeout>
 8005b9e:	1e03      	subs	r3, r0, #0
 8005ba0:	d03b      	beq.n	8005c1a <UART_CheckIdleState+0x11e>
  __ASM volatile ("MRS %0, primask" : "=r" (result) );
 8005ba2:	f3ef 8310 	mrs	r3, PRIMASK
 8005ba6:	60fb      	str	r3, [r7, #12]
  return(result);
 8005ba8:	68fb      	ldr	r3, [r7, #12]
    {
      /* Disable RXNE, PE and ERR (Frame error, noise error, overrun error)
      interrupts for the interrupt process */
      ATOMIC_CLEAR_BIT(huart->Instance->CR1, (USART_CR1_RXNEIE_RXFNEIE | USART_CR1_PEIE));
 8005baa:	637b      	str	r3, [r7, #52]	@ 0x34
 8005bac:	2301      	movs	r3, #1
 8005bae:	613b      	str	r3, [r7, #16]
  __ASM volatile ("MSR primask, %0" : : "r" (priMask) : "memory");
 8005bb0:	693b      	ldr	r3, [r7, #16]
 8005bb2:	f383 8810 	msr	PRIMASK, r3
}
 8005bb6:	46c0      	nop			@ (mov r8, r8)
 8005bb8:	687b      	ldr	r3, [r7, #4]
 8005bba:	681b      	ldr	r3, [r3, #0]
 8005bbc:	681a      	ldr	r2, [r3, #0]
 8005bbe:	687b      	ldr	r3, [r7, #4]
 8005bc0:	681b      	ldr	r3, [r3, #0]
 8005bc2:	4922      	ldr	r1, [pc, #136]	@ (8005c4c <UART_CheckIdleState+0x150>)
 8005bc4:	400a      	ands	r2, r1
 8005bc6:	601a      	str	r2, [r3, #0]
 8005bc8:	6b7b      	ldr	r3, [r7, #52]	@ 0x34
 8005bca:	617b      	str	r3, [r7, #20]
  __ASM volatile ("MSR primask, %0" : : "r" (priMask) : "memory");
 8005bcc:	697b      	ldr	r3, [r7, #20]
 8005bce:	f383 8810 	msr	PRIMASK, r3
}
 8005bd2:	46c0      	nop			@ (mov r8, r8)
  __ASM volatile ("MRS %0, primask" : "=r" (result) );
 8005bd4:	f3ef 8310 	mrs	r3, PRIMASK
 8005bd8:	61bb      	str	r3, [r7, #24]
  return(result);
 8005bda:	69bb      	ldr	r3, [r7, #24]
      ATOMIC_CLEAR_BIT(huart->Instance->CR3, USART_CR3_EIE);
 8005bdc:	633b      	str	r3, [r7, #48]	@ 0x30
 8005bde:	2301      	movs	r3, #1
 8005be0:	61fb      	str	r3, [r7, #28]
  __ASM volatile ("MSR primask, %0" : : "r" (priMask) : "memory");
 8005be2:	69fb      	ldr	r3, [r7, #28]
 8005be4:	f383 8810 	msr	PRIMASK, r3
}
 8005be8:	46c0      	nop			@ (mov r8, r8)
 8005bea:	687b      	ldr	r3, [r7, #4]
 8005bec:	681b      	ldr	r3, [r3, #0]
 8005bee:	689a      	ldr	r2, [r3, #8]
 8005bf0:	687b      	ldr	r3, [r7, #4]
 8005bf2:	681b      	ldr	r3, [r3, #0]
 8005bf4:	2101      	movs	r1, #1
 8005bf6:	438a      	bics	r2, r1
 8005bf8:	609a      	str	r2, [r3, #8]
 8005bfa:	6b3b      	ldr	r3, [r7, #48]	@ 0x30
 8005bfc:	623b      	str	r3, [r7, #32]
  __ASM volatile ("MSR primask, %0" : : "r" (priMask) : "memory");
 8005bfe:	6a3b      	ldr	r3, [r7, #32]
 8005c00:	f383 8810 	msr	PRIMASK, r3
}
 8005c04:	46c0      	nop			@ (mov r8, r8)

      huart->RxState = HAL_UART_STATE_READY;
 8005c06:	687b      	ldr	r3, [r7, #4]
 8005c08:	228c      	movs	r2, #140	@ 0x8c
 8005c0a:	2120      	movs	r1, #32
 8005c0c:	5099      	str	r1, [r3, r2]

      __HAL_UNLOCK(huart);
 8005c0e:	687b      	ldr	r3, [r7, #4]
 8005c10:	2284      	movs	r2, #132	@ 0x84
 8005c12:	2100      	movs	r1, #0
 8005c14:	5499      	strb	r1, [r3, r2]

      /* Timeout occurred */
      return HAL_TIMEOUT;
 8005c16:	2303      	movs	r3, #3
 8005c18:	e012      	b.n	8005c40 <UART_CheckIdleState+0x144>
    }
  }

  /* Initialize the UART State */
  huart->gState = HAL_UART_STATE_READY;
 8005c1a:	687b      	ldr	r3, [r7, #4]
 8005c1c:	2288      	movs	r2, #136	@ 0x88
 8005c1e:	2120      	movs	r1, #32
 8005c20:	5099      	str	r1, [r3, r2]
  huart->RxState = HAL_UART_STATE_READY;
 8005c22:	687b      	ldr	r3, [r7, #4]
 8005c24:	228c      	movs	r2, #140	@ 0x8c
 8005c26:	2120      	movs	r1, #32
 8005c28:	5099      	str	r1, [r3, r2]
  huart->ReceptionType = HAL_UART_RECEPTION_STANDARD;
 8005c2a:	687b      	ldr	r3, [r7, #4]
 8005c2c:	2200      	movs	r2, #0
 8005c2e:	66da      	str	r2, [r3, #108]	@ 0x6c
  huart->RxEventType = HAL_UART_RXEVENT_TC;
 8005c30:	687b      	ldr	r3, [r7, #4]
 8005c32:	2200      	movs	r2, #0
 8005c34:	671a      	str	r2, [r3, #112]	@ 0x70

  __HAL_UNLOCK(huart);
 8005c36:	687b      	ldr	r3, [r7, #4]
 8005c38:	2284      	movs	r2, #132	@ 0x84
 8005c3a:	2100      	movs	r1, #0
 8005c3c:	5499      	strb	r1, [r3, r2]

  return HAL_OK;
 8005c3e:	2300      	movs	r3, #0
}
 8005c40:	0018      	movs	r0, r3
 8005c42:	46bd      	mov	sp, r7
 8005c44:	b010      	add	sp, #64	@ 0x40
 8005c46:	bd80      	pop	{r7, pc}
 8005c48:	01ffffff 	.word	0x01ffffff
 8005c4c:	fffffedf 	.word	0xfffffedf

08005c50 <UART_WaitOnFlagUntilTimeout>:
  * @param Timeout   Timeout duration
  * @retval HAL status
  */
HAL_StatusTypeDef UART_WaitOnFlagUntilTimeout(UART_HandleTypeDef *huart, uint32_t Flag, FlagStatus Status,
                                              uint32_t Tickstart, uint32_t Timeout)
{
 8005c50:	b580      	push	{r7, lr}
 8005c52:	b084      	sub	sp, #16
 8005c54:	af00      	add	r7, sp, #0
 8005c56:	60f8      	str	r0, [r7, #12]
 8005c58:	60b9      	str	r1, [r7, #8]
 8005c5a:	603b      	str	r3, [r7, #0]
 8005c5c:	1dfb      	adds	r3, r7, #7
 8005c5e:	701a      	strb	r2, [r3, #0]
  /* Wait until flag is set */
  while ((__HAL_UART_GET_FLAG(huart, Flag) ? SET : RESET) == Status)
 8005c60:	e051      	b.n	8005d06 <UART_WaitOnFlagUntilTimeout+0xb6>
  {
    /* Check for the Timeout */
    if (Timeout != HAL_MAX_DELAY)
 8005c62:	69bb      	ldr	r3, [r7, #24]
 8005c64:	3301      	adds	r3, #1
 8005c66:	d04e      	beq.n	8005d06 <UART_WaitOnFlagUntilTimeout+0xb6>
    {
      if (((HAL_GetTick() - Tickstart) > Timeout) || (Timeout == 0U))
 8005c68:	f7fb fa2e 	bl	80010c8 <HAL_GetTick>
 8005c6c:	0002      	movs	r2, r0
 8005c6e:	683b      	ldr	r3, [r7, #0]
 8005c70:	1ad3      	subs	r3, r2, r3
 8005c72:	69ba      	ldr	r2, [r7, #24]
 8005c74:	429a      	cmp	r2, r3
 8005c76:	d302      	bcc.n	8005c7e <UART_WaitOnFlagUntilTimeout+0x2e>
 8005c78:	69bb      	ldr	r3, [r7, #24]
 8005c7a:	2b00      	cmp	r3, #0
 8005c7c:	d101      	bne.n	8005c82 <UART_WaitOnFlagUntilTimeout+0x32>
      {

        return HAL_TIMEOUT;
 8005c7e:	2303      	movs	r3, #3
 8005c80:	e051      	b.n	8005d26 <UART_WaitOnFlagUntilTimeout+0xd6>
      }

      if ((READ_BIT(huart->Instance->CR1, USART_CR1_RE) != 0U) && (Flag != UART_FLAG_TXE) && (Flag != UART_FLAG_TC))
 8005c82:	68fb      	ldr	r3, [r7, #12]
 8005c84:	681b      	ldr	r3, [r3, #0]
 8005c86:	681b      	ldr	r3, [r3, #0]
 8005c88:	2204      	movs	r2, #4
 8005c8a:	4013      	ands	r3, r2
 8005c8c:	d03b      	beq.n	8005d06 <UART_WaitOnFlagUntilTimeout+0xb6>
 8005c8e:	68bb      	ldr	r3, [r7, #8]
 8005c90:	2b80      	cmp	r3, #128	@ 0x80
 8005c92:	d038      	beq.n	8005d06 <UART_WaitOnFlagUntilTimeout+0xb6>
 8005c94:	68bb      	ldr	r3, [r7, #8]
 8005c96:	2b40      	cmp	r3, #64	@ 0x40
 8005c98:	d035      	beq.n	8005d06 <UART_WaitOnFlagUntilTimeout+0xb6>
      {
        if (__HAL_UART_GET_FLAG(huart, UART_FLAG_ORE) == SET)
 8005c9a:	68fb      	ldr	r3, [r7, #12]
 8005c9c:	681b      	ldr	r3, [r3, #0]
 8005c9e:	69db      	ldr	r3, [r3, #28]
 8005ca0:	2208      	movs	r2, #8
 8005ca2:	4013      	ands	r3, r2
 8005ca4:	2b08      	cmp	r3, #8
 8005ca6:	d111      	bne.n	8005ccc <UART_WaitOnFlagUntilTimeout+0x7c>
        {
          /* Clear Overrun Error flag*/
          __HAL_UART_CLEAR_FLAG(huart, UART_CLEAR_OREF);
 8005ca8:	68fb      	ldr	r3, [r7, #12]
 8005caa:	681b      	ldr	r3, [r3, #0]
 8005cac:	2208      	movs	r2, #8
 8005cae:	621a      	str	r2, [r3, #32]

          /* Blocking error : transfer is aborted
          Set the UART state ready to be able to start again the process,
          Disable Rx Interrupts if ongoing */
          UART_EndRxTransfer(huart);
 8005cb0:	68fb      	ldr	r3, [r7, #12]
 8005cb2:	0018      	movs	r0, r3
 8005cb4:	f000 f83c 	bl	8005d30 <UART_EndRxTransfer>

          huart->ErrorCode = HAL_UART_ERROR_ORE;
 8005cb8:	68fb      	ldr	r3, [r7, #12]
 8005cba:	2290      	movs	r2, #144	@ 0x90
 8005cbc:	2108      	movs	r1, #8
 8005cbe:	5099      	str	r1, [r3, r2]

          /* Process Unlocked */
          __HAL_UNLOCK(huart);
 8005cc0:	68fb      	ldr	r3, [r7, #12]
 8005cc2:	2284      	movs	r2, #132	@ 0x84
 8005cc4:	2100      	movs	r1, #0
 8005cc6:	5499      	strb	r1, [r3, r2]

          return HAL_ERROR;
 8005cc8:	2301      	movs	r3, #1
 8005cca:	e02c      	b.n	8005d26 <UART_WaitOnFlagUntilTimeout+0xd6>
        }
        if (__HAL_UART_GET_FLAG(huart, UART_FLAG_RTOF) == SET)
 8005ccc:	68fb      	ldr	r3, [r7, #12]
 8005cce:	681b      	ldr	r3, [r3, #0]
 8005cd0:	69da      	ldr	r2, [r3, #28]
 8005cd2:	2380      	movs	r3, #128	@ 0x80
 8005cd4:	011b      	lsls	r3, r3, #4
 8005cd6:	401a      	ands	r2, r3
 8005cd8:	2380      	movs	r3, #128	@ 0x80
 8005cda:	011b      	lsls	r3, r3, #4
 8005cdc:	429a      	cmp	r2, r3
 8005cde:	d112      	bne.n	8005d06 <UART_WaitOnFlagUntilTimeout+0xb6>
        {
          /* Clear Receiver Timeout flag*/
          __HAL_UART_CLEAR_FLAG(huart, UART_CLEAR_RTOF);
 8005ce0:	68fb      	ldr	r3, [r7, #12]
 8005ce2:	681b      	ldr	r3, [r3, #0]
 8005ce4:	2280      	movs	r2, #128	@ 0x80
 8005ce6:	0112      	lsls	r2, r2, #4
 8005ce8:	621a      	str	r2, [r3, #32]

          /* Blocking error : transfer is aborted
          Set the UART state ready to be able to start again the process,
          Disable Rx Interrupts if ongoing */
          UART_EndRxTransfer(huart);
 8005cea:	68fb      	ldr	r3, [r7, #12]
 8005cec:	0018      	movs	r0, r3
 8005cee:	f000 f81f 	bl	8005d30 <UART_EndRxTransfer>

          huart->ErrorCode = HAL_UART_ERROR_RTO;
 8005cf2:	68fb      	ldr	r3, [r7, #12]
 8005cf4:	2290      	movs	r2, #144	@ 0x90
 8005cf6:	2120      	movs	r1, #32
 8005cf8:	5099      	str	r1, [r3, r2]

          /* Process Unlocked */
          __HAL_UNLOCK(huart);
 8005cfa:	68fb      	ldr	r3, [r7, #12]
 8005cfc:	2284      	movs	r2, #132	@ 0x84
 8005cfe:	2100      	movs	r1, #0
 8005d00:	5499      	strb	r1, [r3, r2]

          return HAL_TIMEOUT;
 8005d02:	2303      	movs	r3, #3
 8005d04:	e00f      	b.n	8005d26 <UART_WaitOnFlagUntilTimeout+0xd6>
  while ((__HAL_UART_GET_FLAG(huart, Flag) ? SET : RESET) == Status)
 8005d06:	68fb      	ldr	r3, [r7, #12]
 8005d08:	681b      	ldr	r3, [r3, #0]
 8005d0a:	69db      	ldr	r3, [r3, #28]
 8005d0c:	68ba      	ldr	r2, [r7, #8]
 8005d0e:	4013      	ands	r3, r2
 8005d10:	68ba      	ldr	r2, [r7, #8]
 8005d12:	1ad3      	subs	r3, r2, r3
 8005d14:	425a      	negs	r2, r3
 8005d16:	4153      	adcs	r3, r2
 8005d18:	b2db      	uxtb	r3, r3
 8005d1a:	001a      	movs	r2, r3
 8005d1c:	1dfb      	adds	r3, r7, #7
 8005d1e:	781b      	ldrb	r3, [r3, #0]
 8005d20:	429a      	cmp	r2, r3
 8005d22:	d09e      	beq.n	8005c62 <UART_WaitOnFlagUntilTimeout+0x12>
        }
      }
    }
  }
  return HAL_OK;
 8005d24:	2300      	movs	r3, #0
}
 8005d26:	0018      	movs	r0, r3
 8005d28:	46bd      	mov	sp, r7
 8005d2a:	b004      	add	sp, #16
 8005d2c:	bd80      	pop	{r7, pc}
	...

08005d30 <UART_EndRxTransfer>:
  * @brief  End ongoing Rx transfer on UART peripheral (following error detection or Reception completion).
  * @param  huart UART handle.
  * @retval None
  */
static void UART_EndRxTransfer(UART_HandleTypeDef *huart)
{
 8005d30:	b580      	push	{r7, lr}
 8005d32:	b08e      	sub	sp, #56	@ 0x38
 8005d34:	af00      	add	r7, sp, #0
 8005d36:	6078      	str	r0, [r7, #4]
  __ASM volatile ("MRS %0, primask" : "=r" (result) );
 8005d38:	f3ef 8310 	mrs	r3, PRIMASK
 8005d3c:	617b      	str	r3, [r7, #20]
  return(result);
 8005d3e:	697b      	ldr	r3, [r7, #20]
  /* Disable RXNE, PE and ERR (Frame error, noise error, overrun error) interrupts */
  ATOMIC_CLEAR_BIT(huart->Instance->CR1, (USART_CR1_RXNEIE_RXFNEIE | USART_CR1_PEIE));
 8005d40:	637b      	str	r3, [r7, #52]	@ 0x34
 8005d42:	2301      	movs	r3, #1
 8005d44:	61bb      	str	r3, [r7, #24]
  __ASM volatile ("MSR primask, %0" : : "r" (priMask) : "memory");
 8005d46:	69bb      	ldr	r3, [r7, #24]
 8005d48:	f383 8810 	msr	PRIMASK, r3
}
 8005d4c:	46c0      	nop			@ (mov r8, r8)
 8005d4e:	687b      	ldr	r3, [r7, #4]
 8005d50:	681b      	ldr	r3, [r3, #0]
 8005d52:	681a      	ldr	r2, [r3, #0]
 8005d54:	687b      	ldr	r3, [r7, #4]
 8005d56:	681b      	ldr	r3, [r3, #0]
 8005d58:	4926      	ldr	r1, [pc, #152]	@ (8005df4 <UART_EndRxTransfer+0xc4>)
 8005d5a:	400a      	ands	r2, r1
 8005d5c:	601a      	str	r2, [r3, #0]
 8005d5e:	6b7b      	ldr	r3, [r7, #52]	@ 0x34
 8005d60:	61fb      	str	r3, [r7, #28]
  __ASM volatile ("MSR primask, %0" : : "r" (priMask) : "memory");
 8005d62:	69fb      	ldr	r3, [r7, #28]
 8005d64:	f383 8810 	msr	PRIMASK, r3
}
 8005d68:	46c0      	nop			@ (mov r8, r8)
  __ASM volatile ("MRS %0, primask" : "=r" (result) );
 8005d6a:	f3ef 8310 	mrs	r3, PRIMASK
 8005d6e:	623b      	str	r3, [r7, #32]
  return(result);
 8005d70:	6a3b      	ldr	r3, [r7, #32]
  ATOMIC_CLEAR_BIT(huart->Instance->CR3, (USART_CR3_EIE | USART_CR3_RXFTIE));
 8005d72:	633b      	str	r3, [r7, #48]	@ 0x30
 8005d74:	2301      	movs	r3, #1
 8005d76:	627b      	str	r3, [r7, #36]	@ 0x24
  __ASM volatile ("MSR primask, %0" : : "r" (priMask) : "memory");
 8005d78:	6a7b      	ldr	r3, [r7, #36]	@ 0x24
 8005d7a:	f383 8810 	msr	PRIMASK, r3
}
 8005d7e:	46c0      	nop			@ (mov r8, r8)
 8005d80:	687b      	ldr	r3, [r7, #4]
 8005d82:	681b      	ldr	r3, [r3, #0]
 8005d84:	689a      	ldr	r2, [r3, #8]
 8005d86:	687b      	ldr	r3, [r7, #4]
 8005d88:	681b      	ldr	r3, [r3, #0]
 8005d8a:	491b      	ldr	r1, [pc, #108]	@ (8005df8 <UART_EndRxTransfer+0xc8>)
 8005d8c:	400a      	ands	r2, r1
 8005d8e:	609a      	str	r2, [r3, #8]
 8005d90:	6b3b      	ldr	r3, [r7, #48]	@ 0x30
 8005d92:	62bb      	str	r3, [r7, #40]	@ 0x28
  __ASM volatile ("MSR primask, %0" : : "r" (priMask) : "memory");
 8005d94:	6abb      	ldr	r3, [r7, #40]	@ 0x28
 8005d96:	f383 8810 	msr	PRIMASK, r3
}
 8005d9a:	46c0      	nop			@ (mov r8, r8)

  /* In case of reception waiting for IDLE event, disable also the IDLE IE interrupt source */
  if (huart->ReceptionType == HAL_UART_RECEPTION_TOIDLE)
 8005d9c:	687b      	ldr	r3, [r7, #4]
 8005d9e:	6edb      	ldr	r3, [r3, #108]	@ 0x6c
 8005da0:	2b01      	cmp	r3, #1
 8005da2:	d118      	bne.n	8005dd6 <UART_EndRxTransfer+0xa6>
  __ASM volatile ("MRS %0, primask" : "=r" (result) );
 8005da4:	f3ef 8310 	mrs	r3, PRIMASK
 8005da8:	60bb      	str	r3, [r7, #8]
  return(result);
 8005daa:	68bb      	ldr	r3, [r7, #8]
  {
    ATOMIC_CLEAR_BIT(huart->Instance->CR1, USART_CR1_IDLEIE);
 8005dac:	62fb      	str	r3, [r7, #44]	@ 0x2c
 8005dae:	2301      	movs	r3, #1
 8005db0:	60fb      	str	r3, [r7, #12]
  __ASM volatile ("MSR primask, %0" : : "r" (priMask) : "memory");
 8005db2:	68fb      	ldr	r3, [r7, #12]
 8005db4:	f383 8810 	msr	PRIMASK, r3
}
 8005db8:	46c0      	nop			@ (mov r8, r8)
 8005dba:	687b      	ldr	r3, [r7, #4]
 8005dbc:	681b      	ldr	r3, [r3, #0]
 8005dbe:	681a      	ldr	r2, [r3, #0]
 8005dc0:	687b      	ldr	r3, [r7, #4]
 8005dc2:	681b      	ldr	r3, [r3, #0]
 8005dc4:	2110      	movs	r1, #16
 8005dc6:	438a      	bics	r2, r1
 8005dc8:	601a      	str	r2, [r3, #0]
 8005dca:	6afb      	ldr	r3, [r7, #44]	@ 0x2c
 8005dcc:	613b      	str	r3, [r7, #16]
  __ASM volatile ("MSR primask, %0" : : "r" (priMask) : "memory");
 8005dce:	693b      	ldr	r3, [r7, #16]
 8005dd0:	f383 8810 	msr	PRIMASK, r3
}
 8005dd4:	46c0      	nop			@ (mov r8, r8)
  }

  /* At end of Rx process, restore huart->RxState to Ready */
  huart->RxState = HAL_UART_STATE_READY;
 8005dd6:	687b      	ldr	r3, [r7, #4]
 8005dd8:	228c      	movs	r2, #140	@ 0x8c
 8005dda:	2120      	movs	r1, #32
 8005ddc:	5099      	str	r1, [r3, r2]
  huart->ReceptionType = HAL_UART_RECEPTION_STANDARD;
 8005dde:	687b      	ldr	r3, [r7, #4]
 8005de0:	2200      	movs	r2, #0
 8005de2:	66da      	str	r2, [r3, #108]	@ 0x6c

  /* Reset RxIsr function pointer */
  huart->RxISR = NULL;
 8005de4:	687b      	ldr	r3, [r7, #4]
 8005de6:	2200      	movs	r2, #0
 8005de8:	675a      	str	r2, [r3, #116]	@ 0x74
}
 8005dea:	46c0      	nop			@ (mov r8, r8)
 8005dec:	46bd      	mov	sp, r7
 8005dee:	b00e      	add	sp, #56	@ 0x38
 8005df0:	bd80      	pop	{r7, pc}
 8005df2:	46c0      	nop			@ (mov r8, r8)
 8005df4:	fffffedf 	.word	0xfffffedf
 8005df8:	effffffe 	.word	0xeffffffe

08005dfc <std>:
 8005dfc:	2300      	movs	r3, #0
 8005dfe:	b510      	push	{r4, lr}
 8005e00:	0004      	movs	r4, r0
 8005e02:	6003      	str	r3, [r0, #0]
 8005e04:	6043      	str	r3, [r0, #4]
 8005e06:	6083      	str	r3, [r0, #8]
 8005e08:	8181      	strh	r1, [r0, #12]
 8005e0a:	6643      	str	r3, [r0, #100]	@ 0x64
 8005e0c:	81c2      	strh	r2, [r0, #14]
 8005e0e:	6103      	str	r3, [r0, #16]
 8005e10:	6143      	str	r3, [r0, #20]
 8005e12:	6183      	str	r3, [r0, #24]
 8005e14:	0019      	movs	r1, r3
 8005e16:	2208      	movs	r2, #8
 8005e18:	305c      	adds	r0, #92	@ 0x5c
 8005e1a:	f000 fa0b 	bl	8006234 <memset>
 8005e1e:	4b0b      	ldr	r3, [pc, #44]	@ (8005e4c <std+0x50>)
 8005e20:	6224      	str	r4, [r4, #32]
 8005e22:	6263      	str	r3, [r4, #36]	@ 0x24
 8005e24:	4b0a      	ldr	r3, [pc, #40]	@ (8005e50 <std+0x54>)
 8005e26:	62a3      	str	r3, [r4, #40]	@ 0x28
 8005e28:	4b0a      	ldr	r3, [pc, #40]	@ (8005e54 <std+0x58>)
 8005e2a:	62e3      	str	r3, [r4, #44]	@ 0x2c
 8005e2c:	4b0a      	ldr	r3, [pc, #40]	@ (8005e58 <std+0x5c>)
 8005e2e:	6323      	str	r3, [r4, #48]	@ 0x30
 8005e30:	4b0a      	ldr	r3, [pc, #40]	@ (8005e5c <std+0x60>)
 8005e32:	429c      	cmp	r4, r3
 8005e34:	d005      	beq.n	8005e42 <std+0x46>
 8005e36:	4b0a      	ldr	r3, [pc, #40]	@ (8005e60 <std+0x64>)
 8005e38:	429c      	cmp	r4, r3
 8005e3a:	d002      	beq.n	8005e42 <std+0x46>
 8005e3c:	4b09      	ldr	r3, [pc, #36]	@ (8005e64 <std+0x68>)
 8005e3e:	429c      	cmp	r4, r3
 8005e40:	d103      	bne.n	8005e4a <std+0x4e>
 8005e42:	0020      	movs	r0, r4
 8005e44:	3058      	adds	r0, #88	@ 0x58
 8005e46:	f000 fa75 	bl	8006334 <__retarget_lock_init_recursive>
 8005e4a:	bd10      	pop	{r4, pc}
 8005e4c:	08006065 	.word	0x08006065
 8005e50:	0800608d 	.word	0x0800608d
 8005e54:	080060c5 	.word	0x080060c5
 8005e58:	080060f1 	.word	0x080060f1
 8005e5c:	20000228 	.word	0x20000228
 8005e60:	20000290 	.word	0x20000290
 8005e64:	200002f8 	.word	0x200002f8

08005e68 <stdio_exit_handler>:
 8005e68:	b510      	push	{r4, lr}
 8005e6a:	4a03      	ldr	r2, [pc, #12]	@ (8005e78 <stdio_exit_handler+0x10>)
 8005e6c:	4903      	ldr	r1, [pc, #12]	@ (8005e7c <stdio_exit_handler+0x14>)
 8005e6e:	4804      	ldr	r0, [pc, #16]	@ (8005e80 <stdio_exit_handler+0x18>)
 8005e70:	f000 f86c 	bl	8005f4c <_fwalk_sglue>
 8005e74:	bd10      	pop	{r4, pc}
 8005e76:	46c0      	nop			@ (mov r8, r8)
 8005e78:	20000054 	.word	0x20000054
 8005e7c:	08006bc1 	.word	0x08006bc1
 8005e80:	20000064 	.word	0x20000064

08005e84 <cleanup_stdio>:
 8005e84:	6841      	ldr	r1, [r0, #4]
 8005e86:	4b0b      	ldr	r3, [pc, #44]	@ (8005eb4 <cleanup_stdio+0x30>)
 8005e88:	b510      	push	{r4, lr}
 8005e8a:	0004      	movs	r4, r0
 8005e8c:	4299      	cmp	r1, r3
 8005e8e:	d001      	beq.n	8005e94 <cleanup_stdio+0x10>
 8005e90:	f000 fe96 	bl	8006bc0 <_fflush_r>
 8005e94:	68a1      	ldr	r1, [r4, #8]
 8005e96:	4b08      	ldr	r3, [pc, #32]	@ (8005eb8 <cleanup_stdio+0x34>)
 8005e98:	4299      	cmp	r1, r3
 8005e9a:	d002      	beq.n	8005ea2 <cleanup_stdio+0x1e>
 8005e9c:	0020      	movs	r0, r4
 8005e9e:	f000 fe8f 	bl	8006bc0 <_fflush_r>
 8005ea2:	68e1      	ldr	r1, [r4, #12]
 8005ea4:	4b05      	ldr	r3, [pc, #20]	@ (8005ebc <cleanup_stdio+0x38>)
 8005ea6:	4299      	cmp	r1, r3
 8005ea8:	d002      	beq.n	8005eb0 <cleanup_stdio+0x2c>
 8005eaa:	0020      	movs	r0, r4
 8005eac:	f000 fe88 	bl	8006bc0 <_fflush_r>
 8005eb0:	bd10      	pop	{r4, pc}
 8005eb2:	46c0      	nop			@ (mov r8, r8)
 8005eb4:	20000228 	.word	0x20000228
 8005eb8:	20000290 	.word	0x20000290
 8005ebc:	200002f8 	.word	0x200002f8

08005ec0 <global_stdio_init.part.0>:
 8005ec0:	b510      	push	{r4, lr}
 8005ec2:	4b09      	ldr	r3, [pc, #36]	@ (8005ee8 <global_stdio_init.part.0+0x28>)
 8005ec4:	4a09      	ldr	r2, [pc, #36]	@ (8005eec <global_stdio_init.part.0+0x2c>)
 8005ec6:	2104      	movs	r1, #4
 8005ec8:	601a      	str	r2, [r3, #0]
 8005eca:	4809      	ldr	r0, [pc, #36]	@ (8005ef0 <global_stdio_init.part.0+0x30>)
 8005ecc:	2200      	movs	r2, #0
 8005ece:	f7ff ff95 	bl	8005dfc <std>
 8005ed2:	2201      	movs	r2, #1
 8005ed4:	2109      	movs	r1, #9
 8005ed6:	4807      	ldr	r0, [pc, #28]	@ (8005ef4 <global_stdio_init.part.0+0x34>)
 8005ed8:	f7ff ff90 	bl	8005dfc <std>
 8005edc:	2202      	movs	r2, #2
 8005ede:	2112      	movs	r1, #18
 8005ee0:	4805      	ldr	r0, [pc, #20]	@ (8005ef8 <global_stdio_init.part.0+0x38>)
 8005ee2:	f7ff ff8b 	bl	8005dfc <std>
 8005ee6:	bd10      	pop	{r4, pc}
 8005ee8:	20000360 	.word	0x20000360
 8005eec:	08005e69 	.word	0x08005e69
 8005ef0:	20000228 	.word	0x20000228
 8005ef4:	20000290 	.word	0x20000290
 8005ef8:	200002f8 	.word	0x200002f8

08005efc <__sfp_lock_acquire>:
 8005efc:	b510      	push	{r4, lr}
 8005efe:	4802      	ldr	r0, [pc, #8]	@ (8005f08 <__sfp_lock_acquire+0xc>)
 8005f00:	f000 fa19 	bl	8006336 <__retarget_lock_acquire_recursive>
 8005f04:	bd10      	pop	{r4, pc}
 8005f06:	46c0      	nop			@ (mov r8, r8)
 8005f08:	20000369 	.word	0x20000369

08005f0c <__sfp_lock_release>:
 8005f0c:	b510      	push	{r4, lr}
 8005f0e:	4802      	ldr	r0, [pc, #8]	@ (8005f18 <__sfp_lock_release+0xc>)
 8005f10:	f000 fa12 	bl	8006338 <__retarget_lock_release_recursive>
 8005f14:	bd10      	pop	{r4, pc}
 8005f16:	46c0      	nop			@ (mov r8, r8)
 8005f18:	20000369 	.word	0x20000369

08005f1c <__sinit>:
 8005f1c:	b510      	push	{r4, lr}
 8005f1e:	0004      	movs	r4, r0
 8005f20:	f7ff ffec 	bl	8005efc <__sfp_lock_acquire>
 8005f24:	6a23      	ldr	r3, [r4, #32]
 8005f26:	2b00      	cmp	r3, #0
 8005f28:	d002      	beq.n	8005f30 <__sinit+0x14>
 8005f2a:	f7ff ffef 	bl	8005f0c <__sfp_lock_release>
 8005f2e:	bd10      	pop	{r4, pc}
 8005f30:	4b04      	ldr	r3, [pc, #16]	@ (8005f44 <__sinit+0x28>)
 8005f32:	6223      	str	r3, [r4, #32]
 8005f34:	4b04      	ldr	r3, [pc, #16]	@ (8005f48 <__sinit+0x2c>)
 8005f36:	681b      	ldr	r3, [r3, #0]
 8005f38:	2b00      	cmp	r3, #0
 8005f3a:	d1f6      	bne.n	8005f2a <__sinit+0xe>
 8005f3c:	f7ff ffc0 	bl	8005ec0 <global_stdio_init.part.0>
 8005f40:	e7f3      	b.n	8005f2a <__sinit+0xe>
 8005f42:	46c0      	nop			@ (mov r8, r8)
 8005f44:	08005e85 	.word	0x08005e85
 8005f48:	20000360 	.word	0x20000360

08005f4c <_fwalk_sglue>:
 8005f4c:	b5f7      	push	{r0, r1, r2, r4, r5, r6, r7, lr}
 8005f4e:	0014      	movs	r4, r2
 8005f50:	2600      	movs	r6, #0
 8005f52:	9000      	str	r0, [sp, #0]
 8005f54:	9101      	str	r1, [sp, #4]
 8005f56:	68a5      	ldr	r5, [r4, #8]
 8005f58:	6867      	ldr	r7, [r4, #4]
 8005f5a:	3f01      	subs	r7, #1
 8005f5c:	d504      	bpl.n	8005f68 <_fwalk_sglue+0x1c>
 8005f5e:	6824      	ldr	r4, [r4, #0]
 8005f60:	2c00      	cmp	r4, #0
 8005f62:	d1f8      	bne.n	8005f56 <_fwalk_sglue+0xa>
 8005f64:	0030      	movs	r0, r6
 8005f66:	bdfe      	pop	{r1, r2, r3, r4, r5, r6, r7, pc}
 8005f68:	89ab      	ldrh	r3, [r5, #12]
 8005f6a:	2b01      	cmp	r3, #1
 8005f6c:	d908      	bls.n	8005f80 <_fwalk_sglue+0x34>
 8005f6e:	220e      	movs	r2, #14
 8005f70:	5eab      	ldrsh	r3, [r5, r2]
 8005f72:	3301      	adds	r3, #1
 8005f74:	d004      	beq.n	8005f80 <_fwalk_sglue+0x34>
 8005f76:	0029      	movs	r1, r5
 8005f78:	9800      	ldr	r0, [sp, #0]
 8005f7a:	9b01      	ldr	r3, [sp, #4]
 8005f7c:	4798      	blx	r3
 8005f7e:	4306      	orrs	r6, r0
 8005f80:	3568      	adds	r5, #104	@ 0x68
 8005f82:	e7ea      	b.n	8005f5a <_fwalk_sglue+0xe>

08005f84 <iprintf>:
 8005f84:	b40f      	push	{r0, r1, r2, r3}
 8005f86:	b507      	push	{r0, r1, r2, lr}
 8005f88:	4905      	ldr	r1, [pc, #20]	@ (8005fa0 <iprintf+0x1c>)
 8005f8a:	ab04      	add	r3, sp, #16
 8005f8c:	6808      	ldr	r0, [r1, #0]
 8005f8e:	cb04      	ldmia	r3!, {r2}
 8005f90:	6881      	ldr	r1, [r0, #8]
 8005f92:	9301      	str	r3, [sp, #4]
 8005f94:	f000 faf6 	bl	8006584 <_vfiprintf_r>
 8005f98:	b003      	add	sp, #12
 8005f9a:	bc08      	pop	{r3}
 8005f9c:	b004      	add	sp, #16
 8005f9e:	4718      	bx	r3
 8005fa0:	20000060 	.word	0x20000060

08005fa4 <_puts_r>:
 8005fa4:	6a03      	ldr	r3, [r0, #32]
 8005fa6:	b570      	push	{r4, r5, r6, lr}
 8005fa8:	0005      	movs	r5, r0
 8005faa:	000e      	movs	r6, r1
 8005fac:	6884      	ldr	r4, [r0, #8]
 8005fae:	2b00      	cmp	r3, #0
 8005fb0:	d101      	bne.n	8005fb6 <_puts_r+0x12>
 8005fb2:	f7ff ffb3 	bl	8005f1c <__sinit>
 8005fb6:	6e63      	ldr	r3, [r4, #100]	@ 0x64
 8005fb8:	07db      	lsls	r3, r3, #31
 8005fba:	d405      	bmi.n	8005fc8 <_puts_r+0x24>
 8005fbc:	89a3      	ldrh	r3, [r4, #12]
 8005fbe:	059b      	lsls	r3, r3, #22
 8005fc0:	d402      	bmi.n	8005fc8 <_puts_r+0x24>
 8005fc2:	6da0      	ldr	r0, [r4, #88]	@ 0x58
 8005fc4:	f000 f9b7 	bl	8006336 <__retarget_lock_acquire_recursive>
 8005fc8:	89a3      	ldrh	r3, [r4, #12]
 8005fca:	071b      	lsls	r3, r3, #28
 8005fcc:	d502      	bpl.n	8005fd4 <_puts_r+0x30>
 8005fce:	6923      	ldr	r3, [r4, #16]
 8005fd0:	2b00      	cmp	r3, #0
 8005fd2:	d11f      	bne.n	8006014 <_puts_r+0x70>
 8005fd4:	0021      	movs	r1, r4
 8005fd6:	0028      	movs	r0, r5
 8005fd8:	f000 f8d2 	bl	8006180 <__swsetup_r>
 8005fdc:	2800      	cmp	r0, #0
 8005fde:	d019      	beq.n	8006014 <_puts_r+0x70>
 8005fe0:	2501      	movs	r5, #1
 8005fe2:	426d      	negs	r5, r5
 8005fe4:	6e63      	ldr	r3, [r4, #100]	@ 0x64
 8005fe6:	07db      	lsls	r3, r3, #31
 8005fe8:	d405      	bmi.n	8005ff6 <_puts_r+0x52>
 8005fea:	89a3      	ldrh	r3, [r4, #12]
 8005fec:	059b      	lsls	r3, r3, #22
 8005fee:	d402      	bmi.n	8005ff6 <_puts_r+0x52>
 8005ff0:	6da0      	ldr	r0, [r4, #88]	@ 0x58
 8005ff2:	f000 f9a1 	bl	8006338 <__retarget_lock_release_recursive>
 8005ff6:	0028      	movs	r0, r5
 8005ff8:	bd70      	pop	{r4, r5, r6, pc}
 8005ffa:	3601      	adds	r6, #1
 8005ffc:	60a3      	str	r3, [r4, #8]
 8005ffe:	2b00      	cmp	r3, #0
 8006000:	da04      	bge.n	800600c <_puts_r+0x68>
 8006002:	69a2      	ldr	r2, [r4, #24]
 8006004:	4293      	cmp	r3, r2
 8006006:	db16      	blt.n	8006036 <_puts_r+0x92>
 8006008:	290a      	cmp	r1, #10
 800600a:	d014      	beq.n	8006036 <_puts_r+0x92>
 800600c:	6823      	ldr	r3, [r4, #0]
 800600e:	1c5a      	adds	r2, r3, #1
 8006010:	6022      	str	r2, [r4, #0]
 8006012:	7019      	strb	r1, [r3, #0]
 8006014:	68a3      	ldr	r3, [r4, #8]
 8006016:	7831      	ldrb	r1, [r6, #0]
 8006018:	3b01      	subs	r3, #1
 800601a:	2900      	cmp	r1, #0
 800601c:	d1ed      	bne.n	8005ffa <_puts_r+0x56>
 800601e:	60a3      	str	r3, [r4, #8]
 8006020:	2b00      	cmp	r3, #0
 8006022:	da0f      	bge.n	8006044 <_puts_r+0xa0>
 8006024:	0022      	movs	r2, r4
 8006026:	0028      	movs	r0, r5
 8006028:	310a      	adds	r1, #10
 800602a:	f000 f867 	bl	80060fc <__swbuf_r>
 800602e:	3001      	adds	r0, #1
 8006030:	d0d6      	beq.n	8005fe0 <_puts_r+0x3c>
 8006032:	250a      	movs	r5, #10
 8006034:	e7d6      	b.n	8005fe4 <_puts_r+0x40>
 8006036:	0022      	movs	r2, r4
 8006038:	0028      	movs	r0, r5
 800603a:	f000 f85f 	bl	80060fc <__swbuf_r>
 800603e:	3001      	adds	r0, #1
 8006040:	d1e8      	bne.n	8006014 <_puts_r+0x70>
 8006042:	e7cd      	b.n	8005fe0 <_puts_r+0x3c>
 8006044:	6823      	ldr	r3, [r4, #0]
 8006046:	1c5a      	adds	r2, r3, #1
 8006048:	6022      	str	r2, [r4, #0]
 800604a:	220a      	movs	r2, #10
 800604c:	701a      	strb	r2, [r3, #0]
 800604e:	e7f0      	b.n	8006032 <_puts_r+0x8e>

08006050 <puts>:
 8006050:	b510      	push	{r4, lr}
 8006052:	4b03      	ldr	r3, [pc, #12]	@ (8006060 <puts+0x10>)
 8006054:	0001      	movs	r1, r0
 8006056:	6818      	ldr	r0, [r3, #0]
 8006058:	f7ff ffa4 	bl	8005fa4 <_puts_r>
 800605c:	bd10      	pop	{r4, pc}
 800605e:	46c0      	nop			@ (mov r8, r8)
 8006060:	20000060 	.word	0x20000060

08006064 <__sread>:
 8006064:	b570      	push	{r4, r5, r6, lr}
 8006066:	000c      	movs	r4, r1
 8006068:	250e      	movs	r5, #14
 800606a:	5f49      	ldrsh	r1, [r1, r5]
 800606c:	f000 f910 	bl	8006290 <_read_r>
 8006070:	2800      	cmp	r0, #0
 8006072:	db03      	blt.n	800607c <__sread+0x18>
 8006074:	6d63      	ldr	r3, [r4, #84]	@ 0x54
 8006076:	181b      	adds	r3, r3, r0
 8006078:	6563      	str	r3, [r4, #84]	@ 0x54
 800607a:	bd70      	pop	{r4, r5, r6, pc}
 800607c:	89a3      	ldrh	r3, [r4, #12]
 800607e:	4a02      	ldr	r2, [pc, #8]	@ (8006088 <__sread+0x24>)
 8006080:	4013      	ands	r3, r2
 8006082:	81a3      	strh	r3, [r4, #12]
 8006084:	e7f9      	b.n	800607a <__sread+0x16>
 8006086:	46c0      	nop			@ (mov r8, r8)
 8006088:	ffffefff 	.word	0xffffefff

0800608c <__swrite>:
 800608c:	b5f8      	push	{r3, r4, r5, r6, r7, lr}
 800608e:	001f      	movs	r7, r3
 8006090:	898b      	ldrh	r3, [r1, #12]
 8006092:	0005      	movs	r5, r0
 8006094:	000c      	movs	r4, r1
 8006096:	0016      	movs	r6, r2
 8006098:	05db      	lsls	r3, r3, #23
 800609a:	d505      	bpl.n	80060a8 <__swrite+0x1c>
 800609c:	230e      	movs	r3, #14
 800609e:	5ec9      	ldrsh	r1, [r1, r3]
 80060a0:	2200      	movs	r2, #0
 80060a2:	2302      	movs	r3, #2
 80060a4:	f000 f8e0 	bl	8006268 <_lseek_r>
 80060a8:	89a3      	ldrh	r3, [r4, #12]
 80060aa:	4a05      	ldr	r2, [pc, #20]	@ (80060c0 <__swrite+0x34>)
 80060ac:	0028      	movs	r0, r5
 80060ae:	4013      	ands	r3, r2
 80060b0:	81a3      	strh	r3, [r4, #12]
 80060b2:	0032      	movs	r2, r6
 80060b4:	230e      	movs	r3, #14
 80060b6:	5ee1      	ldrsh	r1, [r4, r3]
 80060b8:	003b      	movs	r3, r7
 80060ba:	f000 f8fd 	bl	80062b8 <_write_r>
 80060be:	bdf8      	pop	{r3, r4, r5, r6, r7, pc}
 80060c0:	ffffefff 	.word	0xffffefff

080060c4 <__sseek>:
 80060c4:	b570      	push	{r4, r5, r6, lr}
 80060c6:	000c      	movs	r4, r1
 80060c8:	250e      	movs	r5, #14
 80060ca:	5f49      	ldrsh	r1, [r1, r5]
 80060cc:	f000 f8cc 	bl	8006268 <_lseek_r>
 80060d0:	220c      	movs	r2, #12
 80060d2:	5ea3      	ldrsh	r3, [r4, r2]
 80060d4:	1c42      	adds	r2, r0, #1
 80060d6:	d103      	bne.n	80060e0 <__sseek+0x1c>
 80060d8:	4a04      	ldr	r2, [pc, #16]	@ (80060ec <__sseek+0x28>)
 80060da:	4013      	ands	r3, r2
 80060dc:	81a3      	strh	r3, [r4, #12]
 80060de:	bd70      	pop	{r4, r5, r6, pc}
 80060e0:	2280      	movs	r2, #128	@ 0x80
 80060e2:	0152      	lsls	r2, r2, #5
 80060e4:	4313      	orrs	r3, r2
 80060e6:	81a3      	strh	r3, [r4, #12]
 80060e8:	6560      	str	r0, [r4, #84]	@ 0x54
 80060ea:	e7f8      	b.n	80060de <__sseek+0x1a>
 80060ec:	ffffefff 	.word	0xffffefff

080060f0 <__sclose>:
 80060f0:	b510      	push	{r4, lr}
 80060f2:	230e      	movs	r3, #14
 80060f4:	5ec9      	ldrsh	r1, [r1, r3]
 80060f6:	f000 f8a5 	bl	8006244 <_close_r>
 80060fa:	bd10      	pop	{r4, pc}

080060fc <__swbuf_r>:
 80060fc:	b5f8      	push	{r3, r4, r5, r6, r7, lr}
 80060fe:	0006      	movs	r6, r0
 8006100:	000d      	movs	r5, r1
 8006102:	0014      	movs	r4, r2
 8006104:	2800      	cmp	r0, #0
 8006106:	d004      	beq.n	8006112 <__swbuf_r+0x16>
 8006108:	6a03      	ldr	r3, [r0, #32]
 800610a:	2b00      	cmp	r3, #0
 800610c:	d101      	bne.n	8006112 <__swbuf_r+0x16>
 800610e:	f7ff ff05 	bl	8005f1c <__sinit>
 8006112:	69a3      	ldr	r3, [r4, #24]
 8006114:	60a3      	str	r3, [r4, #8]
 8006116:	89a3      	ldrh	r3, [r4, #12]
 8006118:	071b      	lsls	r3, r3, #28
 800611a:	d502      	bpl.n	8006122 <__swbuf_r+0x26>
 800611c:	6923      	ldr	r3, [r4, #16]
 800611e:	2b00      	cmp	r3, #0
 8006120:	d109      	bne.n	8006136 <__swbuf_r+0x3a>
 8006122:	0021      	movs	r1, r4
 8006124:	0030      	movs	r0, r6
 8006126:	f000 f82b 	bl	8006180 <__swsetup_r>
 800612a:	2800      	cmp	r0, #0
 800612c:	d003      	beq.n	8006136 <__swbuf_r+0x3a>
 800612e:	2501      	movs	r5, #1
 8006130:	426d      	negs	r5, r5
 8006132:	0028      	movs	r0, r5
 8006134:	bdf8      	pop	{r3, r4, r5, r6, r7, pc}
 8006136:	6923      	ldr	r3, [r4, #16]
 8006138:	6820      	ldr	r0, [r4, #0]
 800613a:	b2ef      	uxtb	r7, r5
 800613c:	1ac0      	subs	r0, r0, r3
 800613e:	6963      	ldr	r3, [r4, #20]
 8006140:	b2ed      	uxtb	r5, r5
 8006142:	4283      	cmp	r3, r0
 8006144:	dc05      	bgt.n	8006152 <__swbuf_r+0x56>
 8006146:	0021      	movs	r1, r4
 8006148:	0030      	movs	r0, r6
 800614a:	f000 fd39 	bl	8006bc0 <_fflush_r>
 800614e:	2800      	cmp	r0, #0
 8006150:	d1ed      	bne.n	800612e <__swbuf_r+0x32>
 8006152:	68a3      	ldr	r3, [r4, #8]
 8006154:	3001      	adds	r0, #1
 8006156:	3b01      	subs	r3, #1
 8006158:	60a3      	str	r3, [r4, #8]
 800615a:	6823      	ldr	r3, [r4, #0]
 800615c:	1c5a      	adds	r2, r3, #1
 800615e:	6022      	str	r2, [r4, #0]
 8006160:	701f      	strb	r7, [r3, #0]
 8006162:	6963      	ldr	r3, [r4, #20]
 8006164:	4283      	cmp	r3, r0
 8006166:	d004      	beq.n	8006172 <__swbuf_r+0x76>
 8006168:	89a3      	ldrh	r3, [r4, #12]
 800616a:	07db      	lsls	r3, r3, #31
 800616c:	d5e1      	bpl.n	8006132 <__swbuf_r+0x36>
 800616e:	2d0a      	cmp	r5, #10
 8006170:	d1df      	bne.n	8006132 <__swbuf_r+0x36>
 8006172:	0021      	movs	r1, r4
 8006174:	0030      	movs	r0, r6
 8006176:	f000 fd23 	bl	8006bc0 <_fflush_r>
 800617a:	2800      	cmp	r0, #0
 800617c:	d0d9      	beq.n	8006132 <__swbuf_r+0x36>
 800617e:	e7d6      	b.n	800612e <__swbuf_r+0x32>

08006180 <__swsetup_r>:
 8006180:	4b2b      	ldr	r3, [pc, #172]	@ (8006230 <__swsetup_r+0xb0>)
 8006182:	b570      	push	{r4, r5, r6, lr}
 8006184:	0005      	movs	r5, r0
 8006186:	6818      	ldr	r0, [r3, #0]
 8006188:	000c      	movs	r4, r1
 800618a:	2800      	cmp	r0, #0
 800618c:	d004      	beq.n	8006198 <__swsetup_r+0x18>
 800618e:	6a03      	ldr	r3, [r0, #32]
 8006190:	2b00      	cmp	r3, #0
 8006192:	d101      	bne.n	8006198 <__swsetup_r+0x18>
 8006194:	f7ff fec2 	bl	8005f1c <__sinit>
 8006198:	220c      	movs	r2, #12
 800619a:	5ea3      	ldrsh	r3, [r4, r2]
 800619c:	071a      	lsls	r2, r3, #28
 800619e:	d422      	bmi.n	80061e6 <__swsetup_r+0x66>
 80061a0:	06da      	lsls	r2, r3, #27
 80061a2:	d407      	bmi.n	80061b4 <__swsetup_r+0x34>
 80061a4:	2209      	movs	r2, #9
 80061a6:	602a      	str	r2, [r5, #0]
 80061a8:	3237      	adds	r2, #55	@ 0x37
 80061aa:	2001      	movs	r0, #1
 80061ac:	4313      	orrs	r3, r2
 80061ae:	81a3      	strh	r3, [r4, #12]
 80061b0:	4240      	negs	r0, r0
 80061b2:	bd70      	pop	{r4, r5, r6, pc}
 80061b4:	075a      	lsls	r2, r3, #29
 80061b6:	d513      	bpl.n	80061e0 <__swsetup_r+0x60>
 80061b8:	6b61      	ldr	r1, [r4, #52]	@ 0x34
 80061ba:	2900      	cmp	r1, #0
 80061bc:	d008      	beq.n	80061d0 <__swsetup_r+0x50>
 80061be:	0023      	movs	r3, r4
 80061c0:	3344      	adds	r3, #68	@ 0x44
 80061c2:	4299      	cmp	r1, r3
 80061c4:	d002      	beq.n	80061cc <__swsetup_r+0x4c>
 80061c6:	0028      	movs	r0, r5
 80061c8:	f000 f8b8 	bl	800633c <_free_r>
 80061cc:	2300      	movs	r3, #0
 80061ce:	6363      	str	r3, [r4, #52]	@ 0x34
 80061d0:	2224      	movs	r2, #36	@ 0x24
 80061d2:	89a3      	ldrh	r3, [r4, #12]
 80061d4:	4393      	bics	r3, r2
 80061d6:	2200      	movs	r2, #0
 80061d8:	6062      	str	r2, [r4, #4]
 80061da:	6922      	ldr	r2, [r4, #16]
 80061dc:	b21b      	sxth	r3, r3
 80061de:	6022      	str	r2, [r4, #0]
 80061e0:	2208      	movs	r2, #8
 80061e2:	4313      	orrs	r3, r2
 80061e4:	81a3      	strh	r3, [r4, #12]
 80061e6:	6922      	ldr	r2, [r4, #16]
 80061e8:	2a00      	cmp	r2, #0
 80061ea:	d107      	bne.n	80061fc <__swsetup_r+0x7c>
 80061ec:	059a      	lsls	r2, r3, #22
 80061ee:	d501      	bpl.n	80061f4 <__swsetup_r+0x74>
 80061f0:	061b      	lsls	r3, r3, #24
 80061f2:	d503      	bpl.n	80061fc <__swsetup_r+0x7c>
 80061f4:	0021      	movs	r1, r4
 80061f6:	0028      	movs	r0, r5
 80061f8:	f000 fd38 	bl	8006c6c <__smakebuf_r>
 80061fc:	230c      	movs	r3, #12
 80061fe:	5ee2      	ldrsh	r2, [r4, r3]
 8006200:	2101      	movs	r1, #1
 8006202:	0013      	movs	r3, r2
 8006204:	400b      	ands	r3, r1
 8006206:	420a      	tst	r2, r1
 8006208:	d00c      	beq.n	8006224 <__swsetup_r+0xa4>
 800620a:	2300      	movs	r3, #0
 800620c:	60a3      	str	r3, [r4, #8]
 800620e:	6963      	ldr	r3, [r4, #20]
 8006210:	425b      	negs	r3, r3
 8006212:	61a3      	str	r3, [r4, #24]
 8006214:	2000      	movs	r0, #0
 8006216:	6923      	ldr	r3, [r4, #16]
 8006218:	4283      	cmp	r3, r0
 800621a:	d1ca      	bne.n	80061b2 <__swsetup_r+0x32>
 800621c:	0613      	lsls	r3, r2, #24
 800621e:	d5c8      	bpl.n	80061b2 <__swsetup_r+0x32>
 8006220:	2340      	movs	r3, #64	@ 0x40
 8006222:	e7c2      	b.n	80061aa <__swsetup_r+0x2a>
 8006224:	0791      	lsls	r1, r2, #30
 8006226:	d400      	bmi.n	800622a <__swsetup_r+0xaa>
 8006228:	6963      	ldr	r3, [r4, #20]
 800622a:	60a3      	str	r3, [r4, #8]
 800622c:	e7f2      	b.n	8006214 <__swsetup_r+0x94>
 800622e:	46c0      	nop			@ (mov r8, r8)
 8006230:	20000060 	.word	0x20000060

08006234 <memset>:
 8006234:	0003      	movs	r3, r0
 8006236:	1882      	adds	r2, r0, r2
 8006238:	4293      	cmp	r3, r2
 800623a:	d100      	bne.n	800623e <memset+0xa>
 800623c:	4770      	bx	lr
 800623e:	7019      	strb	r1, [r3, #0]
 8006240:	3301      	adds	r3, #1
 8006242:	e7f9      	b.n	8006238 <memset+0x4>

08006244 <_close_r>:
 8006244:	2300      	movs	r3, #0
 8006246:	b570      	push	{r4, r5, r6, lr}
 8006248:	4d06      	ldr	r5, [pc, #24]	@ (8006264 <_close_r+0x20>)
 800624a:	0004      	movs	r4, r0
 800624c:	0008      	movs	r0, r1
 800624e:	602b      	str	r3, [r5, #0]
 8006250:	f7fa fc0f 	bl	8000a72 <_close>
 8006254:	1c43      	adds	r3, r0, #1
 8006256:	d103      	bne.n	8006260 <_close_r+0x1c>
 8006258:	682b      	ldr	r3, [r5, #0]
 800625a:	2b00      	cmp	r3, #0
 800625c:	d000      	beq.n	8006260 <_close_r+0x1c>
 800625e:	6023      	str	r3, [r4, #0]
 8006260:	bd70      	pop	{r4, r5, r6, pc}
 8006262:	46c0      	nop			@ (mov r8, r8)
 8006264:	20000364 	.word	0x20000364

08006268 <_lseek_r>:
 8006268:	b570      	push	{r4, r5, r6, lr}
 800626a:	0004      	movs	r4, r0
 800626c:	0008      	movs	r0, r1
 800626e:	0011      	movs	r1, r2
 8006270:	001a      	movs	r2, r3
 8006272:	2300      	movs	r3, #0
 8006274:	4d05      	ldr	r5, [pc, #20]	@ (800628c <_lseek_r+0x24>)
 8006276:	602b      	str	r3, [r5, #0]
 8006278:	f7fa fc1c 	bl	8000ab4 <_lseek>
 800627c:	1c43      	adds	r3, r0, #1
 800627e:	d103      	bne.n	8006288 <_lseek_r+0x20>
 8006280:	682b      	ldr	r3, [r5, #0]
 8006282:	2b00      	cmp	r3, #0
 8006284:	d000      	beq.n	8006288 <_lseek_r+0x20>
 8006286:	6023      	str	r3, [r4, #0]
 8006288:	bd70      	pop	{r4, r5, r6, pc}
 800628a:	46c0      	nop			@ (mov r8, r8)
 800628c:	20000364 	.word	0x20000364

08006290 <_read_r>:
 8006290:	b570      	push	{r4, r5, r6, lr}
 8006292:	0004      	movs	r4, r0
 8006294:	0008      	movs	r0, r1
 8006296:	0011      	movs	r1, r2
 8006298:	001a      	movs	r2, r3
 800629a:	2300      	movs	r3, #0
 800629c:	4d05      	ldr	r5, [pc, #20]	@ (80062b4 <_read_r+0x24>)
 800629e:	602b      	str	r3, [r5, #0]
 80062a0:	f7fa fbae 	bl	8000a00 <_read>
 80062a4:	1c43      	adds	r3, r0, #1
 80062a6:	d103      	bne.n	80062b0 <_read_r+0x20>
 80062a8:	682b      	ldr	r3, [r5, #0]
 80062aa:	2b00      	cmp	r3, #0
 80062ac:	d000      	beq.n	80062b0 <_read_r+0x20>
 80062ae:	6023      	str	r3, [r4, #0]
 80062b0:	bd70      	pop	{r4, r5, r6, pc}
 80062b2:	46c0      	nop			@ (mov r8, r8)
 80062b4:	20000364 	.word	0x20000364

080062b8 <_write_r>:
 80062b8:	b570      	push	{r4, r5, r6, lr}
 80062ba:	0004      	movs	r4, r0
 80062bc:	0008      	movs	r0, r1
 80062be:	0011      	movs	r1, r2
 80062c0:	001a      	movs	r2, r3
 80062c2:	2300      	movs	r3, #0
 80062c4:	4d05      	ldr	r5, [pc, #20]	@ (80062dc <_write_r+0x24>)
 80062c6:	602b      	str	r3, [r5, #0]
 80062c8:	f7fa fbb7 	bl	8000a3a <_write>
 80062cc:	1c43      	adds	r3, r0, #1
 80062ce:	d103      	bne.n	80062d8 <_write_r+0x20>
 80062d0:	682b      	ldr	r3, [r5, #0]
 80062d2:	2b00      	cmp	r3, #0
 80062d4:	d000      	beq.n	80062d8 <_write_r+0x20>
 80062d6:	6023      	str	r3, [r4, #0]
 80062d8:	bd70      	pop	{r4, r5, r6, pc}
 80062da:	46c0      	nop			@ (mov r8, r8)
 80062dc:	20000364 	.word	0x20000364

080062e0 <__errno>:
 80062e0:	4b01      	ldr	r3, [pc, #4]	@ (80062e8 <__errno+0x8>)
 80062e2:	6818      	ldr	r0, [r3, #0]
 80062e4:	4770      	bx	lr
 80062e6:	46c0      	nop			@ (mov r8, r8)
 80062e8:	20000060 	.word	0x20000060

080062ec <__libc_init_array>:
 80062ec:	b570      	push	{r4, r5, r6, lr}
 80062ee:	2600      	movs	r6, #0
 80062f0:	4c0c      	ldr	r4, [pc, #48]	@ (8006324 <__libc_init_array+0x38>)
 80062f2:	4d0d      	ldr	r5, [pc, #52]	@ (8006328 <__libc_init_array+0x3c>)
 80062f4:	1b64      	subs	r4, r4, r5
 80062f6:	10a4      	asrs	r4, r4, #2
 80062f8:	42a6      	cmp	r6, r4
 80062fa:	d109      	bne.n	8006310 <__libc_init_array+0x24>
 80062fc:	2600      	movs	r6, #0
 80062fe:	f000 fd31 	bl	8006d64 <_init>
 8006302:	4c0a      	ldr	r4, [pc, #40]	@ (800632c <__libc_init_array+0x40>)
 8006304:	4d0a      	ldr	r5, [pc, #40]	@ (8006330 <__libc_init_array+0x44>)
 8006306:	1b64      	subs	r4, r4, r5
 8006308:	10a4      	asrs	r4, r4, #2
 800630a:	42a6      	cmp	r6, r4
 800630c:	d105      	bne.n	800631a <__libc_init_array+0x2e>
 800630e:	bd70      	pop	{r4, r5, r6, pc}
 8006310:	00b3      	lsls	r3, r6, #2
 8006312:	58eb      	ldr	r3, [r5, r3]
 8006314:	4798      	blx	r3
 8006316:	3601      	adds	r6, #1
 8006318:	e7ee      	b.n	80062f8 <__libc_init_array+0xc>
 800631a:	00b3      	lsls	r3, r6, #2
 800631c:	58eb      	ldr	r3, [r5, r3]
 800631e:	4798      	blx	r3
 8006320:	3601      	adds	r6, #1
 8006322:	e7f2      	b.n	800630a <__libc_init_array+0x1e>
 8006324:	08006f38 	.word	0x08006f38
 8006328:	08006f38 	.word	0x08006f38
 800632c:	08006f3c 	.word	0x08006f3c
 8006330:	08006f38 	.word	0x08006f38

08006334 <__retarget_lock_init_recursive>:
 8006334:	4770      	bx	lr

08006336 <__retarget_lock_acquire_recursive>:
 8006336:	4770      	bx	lr

08006338 <__retarget_lock_release_recursive>:
 8006338:	4770      	bx	lr
	...

0800633c <_free_r>:
 800633c:	b570      	push	{r4, r5, r6, lr}
 800633e:	0005      	movs	r5, r0
 8006340:	1e0c      	subs	r4, r1, #0
 8006342:	d010      	beq.n	8006366 <_free_r+0x2a>
 8006344:	3c04      	subs	r4, #4
 8006346:	6823      	ldr	r3, [r4, #0]
 8006348:	2b00      	cmp	r3, #0
 800634a:	da00      	bge.n	800634e <_free_r+0x12>
 800634c:	18e4      	adds	r4, r4, r3
 800634e:	0028      	movs	r0, r5
 8006350:	f000 f8e0 	bl	8006514 <__malloc_lock>
 8006354:	4a1d      	ldr	r2, [pc, #116]	@ (80063cc <_free_r+0x90>)
 8006356:	6813      	ldr	r3, [r2, #0]
 8006358:	2b00      	cmp	r3, #0
 800635a:	d105      	bne.n	8006368 <_free_r+0x2c>
 800635c:	6063      	str	r3, [r4, #4]
 800635e:	6014      	str	r4, [r2, #0]
 8006360:	0028      	movs	r0, r5
 8006362:	f000 f8df 	bl	8006524 <__malloc_unlock>
 8006366:	bd70      	pop	{r4, r5, r6, pc}
 8006368:	42a3      	cmp	r3, r4
 800636a:	d908      	bls.n	800637e <_free_r+0x42>
 800636c:	6820      	ldr	r0, [r4, #0]
 800636e:	1821      	adds	r1, r4, r0
 8006370:	428b      	cmp	r3, r1
 8006372:	d1f3      	bne.n	800635c <_free_r+0x20>
 8006374:	6819      	ldr	r1, [r3, #0]
 8006376:	685b      	ldr	r3, [r3, #4]
 8006378:	1809      	adds	r1, r1, r0
 800637a:	6021      	str	r1, [r4, #0]
 800637c:	e7ee      	b.n	800635c <_free_r+0x20>
 800637e:	001a      	movs	r2, r3
 8006380:	685b      	ldr	r3, [r3, #4]
 8006382:	2b00      	cmp	r3, #0
 8006384:	d001      	beq.n	800638a <_free_r+0x4e>
 8006386:	42a3      	cmp	r3, r4
 8006388:	d9f9      	bls.n	800637e <_free_r+0x42>
 800638a:	6811      	ldr	r1, [r2, #0]
 800638c:	1850      	adds	r0, r2, r1
 800638e:	42a0      	cmp	r0, r4
 8006390:	d10b      	bne.n	80063aa <_free_r+0x6e>
 8006392:	6820      	ldr	r0, [r4, #0]
 8006394:	1809      	adds	r1, r1, r0
 8006396:	1850      	adds	r0, r2, r1
 8006398:	6011      	str	r1, [r2, #0]
 800639a:	4283      	cmp	r3, r0
 800639c:	d1e0      	bne.n	8006360 <_free_r+0x24>
 800639e:	6818      	ldr	r0, [r3, #0]
 80063a0:	685b      	ldr	r3, [r3, #4]
 80063a2:	1841      	adds	r1, r0, r1
 80063a4:	6011      	str	r1, [r2, #0]
 80063a6:	6053      	str	r3, [r2, #4]
 80063a8:	e7da      	b.n	8006360 <_free_r+0x24>
 80063aa:	42a0      	cmp	r0, r4
 80063ac:	d902      	bls.n	80063b4 <_free_r+0x78>
 80063ae:	230c      	movs	r3, #12
 80063b0:	602b      	str	r3, [r5, #0]
 80063b2:	e7d5      	b.n	8006360 <_free_r+0x24>
 80063b4:	6820      	ldr	r0, [r4, #0]
 80063b6:	1821      	adds	r1, r4, r0
 80063b8:	428b      	cmp	r3, r1
 80063ba:	d103      	bne.n	80063c4 <_free_r+0x88>
 80063bc:	6819      	ldr	r1, [r3, #0]
 80063be:	685b      	ldr	r3, [r3, #4]
 80063c0:	1809      	adds	r1, r1, r0
 80063c2:	6021      	str	r1, [r4, #0]
 80063c4:	6063      	str	r3, [r4, #4]
 80063c6:	6054      	str	r4, [r2, #4]
 80063c8:	e7ca      	b.n	8006360 <_free_r+0x24>
 80063ca:	46c0      	nop			@ (mov r8, r8)
 80063cc:	20000370 	.word	0x20000370

080063d0 <sbrk_aligned>:
 80063d0:	b570      	push	{r4, r5, r6, lr}
 80063d2:	4e0f      	ldr	r6, [pc, #60]	@ (8006410 <sbrk_aligned+0x40>)
 80063d4:	000d      	movs	r5, r1
 80063d6:	6831      	ldr	r1, [r6, #0]
 80063d8:	0004      	movs	r4, r0
 80063da:	2900      	cmp	r1, #0
 80063dc:	d102      	bne.n	80063e4 <sbrk_aligned+0x14>
 80063de:	f000 fca3 	bl	8006d28 <_sbrk_r>
 80063e2:	6030      	str	r0, [r6, #0]
 80063e4:	0029      	movs	r1, r5
 80063e6:	0020      	movs	r0, r4
 80063e8:	f000 fc9e 	bl	8006d28 <_sbrk_r>
 80063ec:	1c43      	adds	r3, r0, #1
 80063ee:	d103      	bne.n	80063f8 <sbrk_aligned+0x28>
 80063f0:	2501      	movs	r5, #1
 80063f2:	426d      	negs	r5, r5
 80063f4:	0028      	movs	r0, r5
 80063f6:	bd70      	pop	{r4, r5, r6, pc}
 80063f8:	2303      	movs	r3, #3
 80063fa:	1cc5      	adds	r5, r0, #3
 80063fc:	439d      	bics	r5, r3
 80063fe:	42a8      	cmp	r0, r5
 8006400:	d0f8      	beq.n	80063f4 <sbrk_aligned+0x24>
 8006402:	1a29      	subs	r1, r5, r0
 8006404:	0020      	movs	r0, r4
 8006406:	f000 fc8f 	bl	8006d28 <_sbrk_r>
 800640a:	3001      	adds	r0, #1
 800640c:	d1f2      	bne.n	80063f4 <sbrk_aligned+0x24>
 800640e:	e7ef      	b.n	80063f0 <sbrk_aligned+0x20>
 8006410:	2000036c 	.word	0x2000036c

08006414 <_malloc_r>:
 8006414:	b5f7      	push	{r0, r1, r2, r4, r5, r6, r7, lr}
 8006416:	2203      	movs	r2, #3
 8006418:	1ccb      	adds	r3, r1, #3
 800641a:	4393      	bics	r3, r2
 800641c:	3308      	adds	r3, #8
 800641e:	0005      	movs	r5, r0
 8006420:	001f      	movs	r7, r3
 8006422:	2b0c      	cmp	r3, #12
 8006424:	d234      	bcs.n	8006490 <_malloc_r+0x7c>
 8006426:	270c      	movs	r7, #12
 8006428:	42b9      	cmp	r1, r7
 800642a:	d833      	bhi.n	8006494 <_malloc_r+0x80>
 800642c:	0028      	movs	r0, r5
 800642e:	f000 f871 	bl	8006514 <__malloc_lock>
 8006432:	4e37      	ldr	r6, [pc, #220]	@ (8006510 <_malloc_r+0xfc>)
 8006434:	6833      	ldr	r3, [r6, #0]
 8006436:	001c      	movs	r4, r3
 8006438:	2c00      	cmp	r4, #0
 800643a:	d12f      	bne.n	800649c <_malloc_r+0x88>
 800643c:	0039      	movs	r1, r7
 800643e:	0028      	movs	r0, r5
 8006440:	f7ff ffc6 	bl	80063d0 <sbrk_aligned>
 8006444:	0004      	movs	r4, r0
 8006446:	1c43      	adds	r3, r0, #1
 8006448:	d15f      	bne.n	800650a <_malloc_r+0xf6>
 800644a:	6834      	ldr	r4, [r6, #0]
 800644c:	9400      	str	r4, [sp, #0]
 800644e:	9b00      	ldr	r3, [sp, #0]
 8006450:	2b00      	cmp	r3, #0
 8006452:	d14a      	bne.n	80064ea <_malloc_r+0xd6>
 8006454:	2c00      	cmp	r4, #0
 8006456:	d052      	beq.n	80064fe <_malloc_r+0xea>
 8006458:	6823      	ldr	r3, [r4, #0]
 800645a:	0028      	movs	r0, r5
 800645c:	18e3      	adds	r3, r4, r3
 800645e:	9900      	ldr	r1, [sp, #0]
 8006460:	9301      	str	r3, [sp, #4]
 8006462:	f000 fc61 	bl	8006d28 <_sbrk_r>
 8006466:	9b01      	ldr	r3, [sp, #4]
 8006468:	4283      	cmp	r3, r0
 800646a:	d148      	bne.n	80064fe <_malloc_r+0xea>
 800646c:	6823      	ldr	r3, [r4, #0]
 800646e:	0028      	movs	r0, r5
 8006470:	1aff      	subs	r7, r7, r3
 8006472:	0039      	movs	r1, r7
 8006474:	f7ff ffac 	bl	80063d0 <sbrk_aligned>
 8006478:	3001      	adds	r0, #1
 800647a:	d040      	beq.n	80064fe <_malloc_r+0xea>
 800647c:	6823      	ldr	r3, [r4, #0]
 800647e:	19db      	adds	r3, r3, r7
 8006480:	6023      	str	r3, [r4, #0]
 8006482:	6833      	ldr	r3, [r6, #0]
 8006484:	685a      	ldr	r2, [r3, #4]
 8006486:	2a00      	cmp	r2, #0
 8006488:	d133      	bne.n	80064f2 <_malloc_r+0xde>
 800648a:	9b00      	ldr	r3, [sp, #0]
 800648c:	6033      	str	r3, [r6, #0]
 800648e:	e019      	b.n	80064c4 <_malloc_r+0xb0>
 8006490:	2b00      	cmp	r3, #0
 8006492:	dac9      	bge.n	8006428 <_malloc_r+0x14>
 8006494:	230c      	movs	r3, #12
 8006496:	602b      	str	r3, [r5, #0]
 8006498:	2000      	movs	r0, #0
 800649a:	bdfe      	pop	{r1, r2, r3, r4, r5, r6, r7, pc}
 800649c:	6821      	ldr	r1, [r4, #0]
 800649e:	1bc9      	subs	r1, r1, r7
 80064a0:	d420      	bmi.n	80064e4 <_malloc_r+0xd0>
 80064a2:	290b      	cmp	r1, #11
 80064a4:	d90a      	bls.n	80064bc <_malloc_r+0xa8>
 80064a6:	19e2      	adds	r2, r4, r7
 80064a8:	6027      	str	r7, [r4, #0]
 80064aa:	42a3      	cmp	r3, r4
 80064ac:	d104      	bne.n	80064b8 <_malloc_r+0xa4>
 80064ae:	6032      	str	r2, [r6, #0]
 80064b0:	6863      	ldr	r3, [r4, #4]
 80064b2:	6011      	str	r1, [r2, #0]
 80064b4:	6053      	str	r3, [r2, #4]
 80064b6:	e005      	b.n	80064c4 <_malloc_r+0xb0>
 80064b8:	605a      	str	r2, [r3, #4]
 80064ba:	e7f9      	b.n	80064b0 <_malloc_r+0x9c>
 80064bc:	6862      	ldr	r2, [r4, #4]
 80064be:	42a3      	cmp	r3, r4
 80064c0:	d10e      	bne.n	80064e0 <_malloc_r+0xcc>
 80064c2:	6032      	str	r2, [r6, #0]
 80064c4:	0028      	movs	r0, r5
 80064c6:	f000 f82d 	bl	8006524 <__malloc_unlock>
 80064ca:	0020      	movs	r0, r4
 80064cc:	2207      	movs	r2, #7
 80064ce:	300b      	adds	r0, #11
 80064d0:	1d23      	adds	r3, r4, #4
 80064d2:	4390      	bics	r0, r2
 80064d4:	1ac2      	subs	r2, r0, r3
 80064d6:	4298      	cmp	r0, r3
 80064d8:	d0df      	beq.n	800649a <_malloc_r+0x86>
 80064da:	1a1b      	subs	r3, r3, r0
 80064dc:	50a3      	str	r3, [r4, r2]
 80064de:	e7dc      	b.n	800649a <_malloc_r+0x86>
 80064e0:	605a      	str	r2, [r3, #4]
 80064e2:	e7ef      	b.n	80064c4 <_malloc_r+0xb0>
 80064e4:	0023      	movs	r3, r4
 80064e6:	6864      	ldr	r4, [r4, #4]
 80064e8:	e7a6      	b.n	8006438 <_malloc_r+0x24>
 80064ea:	9c00      	ldr	r4, [sp, #0]
 80064ec:	6863      	ldr	r3, [r4, #4]
 80064ee:	9300      	str	r3, [sp, #0]
 80064f0:	e7ad      	b.n	800644e <_malloc_r+0x3a>
 80064f2:	001a      	movs	r2, r3
 80064f4:	685b      	ldr	r3, [r3, #4]
 80064f6:	42a3      	cmp	r3, r4
 80064f8:	d1fb      	bne.n	80064f2 <_malloc_r+0xde>
 80064fa:	2300      	movs	r3, #0
 80064fc:	e7da      	b.n	80064b4 <_malloc_r+0xa0>
 80064fe:	230c      	movs	r3, #12
 8006500:	0028      	movs	r0, r5
 8006502:	602b      	str	r3, [r5, #0]
 8006504:	f000 f80e 	bl	8006524 <__malloc_unlock>
 8006508:	e7c6      	b.n	8006498 <_malloc_r+0x84>
 800650a:	6007      	str	r7, [r0, #0]
 800650c:	e7da      	b.n	80064c4 <_malloc_r+0xb0>
 800650e:	46c0      	nop			@ (mov r8, r8)
 8006510:	20000370 	.word	0x20000370

08006514 <__malloc_lock>:
 8006514:	b510      	push	{r4, lr}
 8006516:	4802      	ldr	r0, [pc, #8]	@ (8006520 <__malloc_lock+0xc>)
 8006518:	f7ff ff0d 	bl	8006336 <__retarget_lock_acquire_recursive>
 800651c:	bd10      	pop	{r4, pc}
 800651e:	46c0      	nop			@ (mov r8, r8)
 8006520:	20000368 	.word	0x20000368

08006524 <__malloc_unlock>:
 8006524:	b510      	push	{r4, lr}
 8006526:	4802      	ldr	r0, [pc, #8]	@ (8006530 <__malloc_unlock+0xc>)
 8006528:	f7ff ff06 	bl	8006338 <__retarget_lock_release_recursive>
 800652c:	bd10      	pop	{r4, pc}
 800652e:	46c0      	nop			@ (mov r8, r8)
 8006530:	20000368 	.word	0x20000368

08006534 <__sfputc_r>:
 8006534:	6893      	ldr	r3, [r2, #8]
 8006536:	b510      	push	{r4, lr}
 8006538:	3b01      	subs	r3, #1
 800653a:	6093      	str	r3, [r2, #8]
 800653c:	2b00      	cmp	r3, #0
 800653e:	da04      	bge.n	800654a <__sfputc_r+0x16>
 8006540:	6994      	ldr	r4, [r2, #24]
 8006542:	42a3      	cmp	r3, r4
 8006544:	db07      	blt.n	8006556 <__sfputc_r+0x22>
 8006546:	290a      	cmp	r1, #10
 8006548:	d005      	beq.n	8006556 <__sfputc_r+0x22>
 800654a:	6813      	ldr	r3, [r2, #0]
 800654c:	1c58      	adds	r0, r3, #1
 800654e:	6010      	str	r0, [r2, #0]
 8006550:	7019      	strb	r1, [r3, #0]
 8006552:	0008      	movs	r0, r1
 8006554:	bd10      	pop	{r4, pc}
 8006556:	f7ff fdd1 	bl	80060fc <__swbuf_r>
 800655a:	0001      	movs	r1, r0
 800655c:	e7f9      	b.n	8006552 <__sfputc_r+0x1e>

0800655e <__sfputs_r>:
 800655e:	b5f8      	push	{r3, r4, r5, r6, r7, lr}
 8006560:	0006      	movs	r6, r0
 8006562:	000f      	movs	r7, r1
 8006564:	0014      	movs	r4, r2
 8006566:	18d5      	adds	r5, r2, r3
 8006568:	42ac      	cmp	r4, r5
 800656a:	d101      	bne.n	8006570 <__sfputs_r+0x12>
 800656c:	2000      	movs	r0, #0
 800656e:	e007      	b.n	8006580 <__sfputs_r+0x22>
 8006570:	7821      	ldrb	r1, [r4, #0]
 8006572:	003a      	movs	r2, r7
 8006574:	0030      	movs	r0, r6
 8006576:	f7ff ffdd 	bl	8006534 <__sfputc_r>
 800657a:	3401      	adds	r4, #1
 800657c:	1c43      	adds	r3, r0, #1
 800657e:	d1f3      	bne.n	8006568 <__sfputs_r+0xa>
 8006580:	bdf8      	pop	{r3, r4, r5, r6, r7, pc}
	...

08006584 <_vfiprintf_r>:
 8006584:	b5f0      	push	{r4, r5, r6, r7, lr}
 8006586:	b09f      	sub	sp, #124	@ 0x7c
 8006588:	000d      	movs	r5, r1
 800658a:	0017      	movs	r7, r2
 800658c:	001e      	movs	r6, r3
 800658e:	9002      	str	r0, [sp, #8]
 8006590:	2800      	cmp	r0, #0
 8006592:	d004      	beq.n	800659e <_vfiprintf_r+0x1a>
 8006594:	6a03      	ldr	r3, [r0, #32]
 8006596:	2b00      	cmp	r3, #0
 8006598:	d101      	bne.n	800659e <_vfiprintf_r+0x1a>
 800659a:	f7ff fcbf 	bl	8005f1c <__sinit>
 800659e:	6e6b      	ldr	r3, [r5, #100]	@ 0x64
 80065a0:	07db      	lsls	r3, r3, #31
 80065a2:	d405      	bmi.n	80065b0 <_vfiprintf_r+0x2c>
 80065a4:	89ab      	ldrh	r3, [r5, #12]
 80065a6:	059b      	lsls	r3, r3, #22
 80065a8:	d402      	bmi.n	80065b0 <_vfiprintf_r+0x2c>
 80065aa:	6da8      	ldr	r0, [r5, #88]	@ 0x58
 80065ac:	f7ff fec3 	bl	8006336 <__retarget_lock_acquire_recursive>
 80065b0:	89ab      	ldrh	r3, [r5, #12]
 80065b2:	071b      	lsls	r3, r3, #28
 80065b4:	d502      	bpl.n	80065bc <_vfiprintf_r+0x38>
 80065b6:	692b      	ldr	r3, [r5, #16]
 80065b8:	2b00      	cmp	r3, #0
 80065ba:	d113      	bne.n	80065e4 <_vfiprintf_r+0x60>
 80065bc:	0029      	movs	r1, r5
 80065be:	9802      	ldr	r0, [sp, #8]
 80065c0:	f7ff fdde 	bl	8006180 <__swsetup_r>
 80065c4:	2800      	cmp	r0, #0
 80065c6:	d00d      	beq.n	80065e4 <_vfiprintf_r+0x60>
 80065c8:	6e6b      	ldr	r3, [r5, #100]	@ 0x64
 80065ca:	07db      	lsls	r3, r3, #31
 80065cc:	d503      	bpl.n	80065d6 <_vfiprintf_r+0x52>
 80065ce:	2001      	movs	r0, #1
 80065d0:	4240      	negs	r0, r0
 80065d2:	b01f      	add	sp, #124	@ 0x7c
 80065d4:	bdf0      	pop	{r4, r5, r6, r7, pc}
 80065d6:	89ab      	ldrh	r3, [r5, #12]
 80065d8:	059b      	lsls	r3, r3, #22
 80065da:	d4f8      	bmi.n	80065ce <_vfiprintf_r+0x4a>
 80065dc:	6da8      	ldr	r0, [r5, #88]	@ 0x58
 80065de:	f7ff feab 	bl	8006338 <__retarget_lock_release_recursive>
 80065e2:	e7f4      	b.n	80065ce <_vfiprintf_r+0x4a>
 80065e4:	2300      	movs	r3, #0
 80065e6:	ac06      	add	r4, sp, #24
 80065e8:	6163      	str	r3, [r4, #20]
 80065ea:	3320      	adds	r3, #32
 80065ec:	7663      	strb	r3, [r4, #25]
 80065ee:	3310      	adds	r3, #16
 80065f0:	76a3      	strb	r3, [r4, #26]
 80065f2:	9605      	str	r6, [sp, #20]
 80065f4:	003e      	movs	r6, r7
 80065f6:	7833      	ldrb	r3, [r6, #0]
 80065f8:	2b00      	cmp	r3, #0
 80065fa:	d001      	beq.n	8006600 <_vfiprintf_r+0x7c>
 80065fc:	2b25      	cmp	r3, #37	@ 0x25
 80065fe:	d148      	bne.n	8006692 <_vfiprintf_r+0x10e>
 8006600:	1bf3      	subs	r3, r6, r7
 8006602:	9303      	str	r3, [sp, #12]
 8006604:	42be      	cmp	r6, r7
 8006606:	d00b      	beq.n	8006620 <_vfiprintf_r+0x9c>
 8006608:	003a      	movs	r2, r7
 800660a:	0029      	movs	r1, r5
 800660c:	9802      	ldr	r0, [sp, #8]
 800660e:	f7ff ffa6 	bl	800655e <__sfputs_r>
 8006612:	3001      	adds	r0, #1
 8006614:	d100      	bne.n	8006618 <_vfiprintf_r+0x94>
 8006616:	e0aa      	b.n	800676e <_vfiprintf_r+0x1ea>
 8006618:	6963      	ldr	r3, [r4, #20]
 800661a:	9a03      	ldr	r2, [sp, #12]
 800661c:	189b      	adds	r3, r3, r2
 800661e:	6163      	str	r3, [r4, #20]
 8006620:	7833      	ldrb	r3, [r6, #0]
 8006622:	2b00      	cmp	r3, #0
 8006624:	d100      	bne.n	8006628 <_vfiprintf_r+0xa4>
 8006626:	e0a2      	b.n	800676e <_vfiprintf_r+0x1ea>
 8006628:	2201      	movs	r2, #1
 800662a:	2153      	movs	r1, #83	@ 0x53
 800662c:	2300      	movs	r3, #0
 800662e:	4252      	negs	r2, r2
 8006630:	6062      	str	r2, [r4, #4]
 8006632:	aa02      	add	r2, sp, #8
 8006634:	1852      	adds	r2, r2, r1
 8006636:	1c77      	adds	r7, r6, #1
 8006638:	6023      	str	r3, [r4, #0]
 800663a:	60e3      	str	r3, [r4, #12]
 800663c:	60a3      	str	r3, [r4, #8]
 800663e:	7013      	strb	r3, [r2, #0]
 8006640:	65a3      	str	r3, [r4, #88]	@ 0x58
 8006642:	4b57      	ldr	r3, [pc, #348]	@ (80067a0 <_vfiprintf_r+0x21c>)
 8006644:	2205      	movs	r2, #5
 8006646:	0018      	movs	r0, r3
 8006648:	7839      	ldrb	r1, [r7, #0]
 800664a:	9303      	str	r3, [sp, #12]
 800664c:	f000 fb7e 	bl	8006d4c <memchr>
 8006650:	1c7e      	adds	r6, r7, #1
 8006652:	6822      	ldr	r2, [r4, #0]
 8006654:	2800      	cmp	r0, #0
 8006656:	d11e      	bne.n	8006696 <_vfiprintf_r+0x112>
 8006658:	06d3      	lsls	r3, r2, #27
 800665a:	d504      	bpl.n	8006666 <_vfiprintf_r+0xe2>
 800665c:	2320      	movs	r3, #32
 800665e:	a902      	add	r1, sp, #8
 8006660:	3053      	adds	r0, #83	@ 0x53
 8006662:	1809      	adds	r1, r1, r0
 8006664:	700b      	strb	r3, [r1, #0]
 8006666:	0713      	lsls	r3, r2, #28
 8006668:	d504      	bpl.n	8006674 <_vfiprintf_r+0xf0>
 800666a:	2053      	movs	r0, #83	@ 0x53
 800666c:	232b      	movs	r3, #43	@ 0x2b
 800666e:	a902      	add	r1, sp, #8
 8006670:	1809      	adds	r1, r1, r0
 8006672:	700b      	strb	r3, [r1, #0]
 8006674:	783b      	ldrb	r3, [r7, #0]
 8006676:	2b2a      	cmp	r3, #42	@ 0x2a
 8006678:	d015      	beq.n	80066a6 <_vfiprintf_r+0x122>
 800667a:	003e      	movs	r6, r7
 800667c:	2100      	movs	r1, #0
 800667e:	200a      	movs	r0, #10
 8006680:	68e3      	ldr	r3, [r4, #12]
 8006682:	7832      	ldrb	r2, [r6, #0]
 8006684:	1c77      	adds	r7, r6, #1
 8006686:	3a30      	subs	r2, #48	@ 0x30
 8006688:	2a09      	cmp	r2, #9
 800668a:	d94e      	bls.n	800672a <_vfiprintf_r+0x1a6>
 800668c:	2900      	cmp	r1, #0
 800668e:	d110      	bne.n	80066b2 <_vfiprintf_r+0x12e>
 8006690:	e016      	b.n	80066c0 <_vfiprintf_r+0x13c>
 8006692:	3601      	adds	r6, #1
 8006694:	e7af      	b.n	80065f6 <_vfiprintf_r+0x72>
 8006696:	9b03      	ldr	r3, [sp, #12]
 8006698:	0037      	movs	r7, r6
 800669a:	1ac0      	subs	r0, r0, r3
 800669c:	2301      	movs	r3, #1
 800669e:	4083      	lsls	r3, r0
 80066a0:	4313      	orrs	r3, r2
 80066a2:	6023      	str	r3, [r4, #0]
 80066a4:	e7cd      	b.n	8006642 <_vfiprintf_r+0xbe>
 80066a6:	9b05      	ldr	r3, [sp, #20]
 80066a8:	1d19      	adds	r1, r3, #4
 80066aa:	681b      	ldr	r3, [r3, #0]
 80066ac:	9105      	str	r1, [sp, #20]
 80066ae:	2b00      	cmp	r3, #0
 80066b0:	db01      	blt.n	80066b6 <_vfiprintf_r+0x132>
 80066b2:	60e3      	str	r3, [r4, #12]
 80066b4:	e004      	b.n	80066c0 <_vfiprintf_r+0x13c>
 80066b6:	425b      	negs	r3, r3
 80066b8:	60e3      	str	r3, [r4, #12]
 80066ba:	2302      	movs	r3, #2
 80066bc:	4313      	orrs	r3, r2
 80066be:	6023      	str	r3, [r4, #0]
 80066c0:	7833      	ldrb	r3, [r6, #0]
 80066c2:	2b2e      	cmp	r3, #46	@ 0x2e
 80066c4:	d10c      	bne.n	80066e0 <_vfiprintf_r+0x15c>
 80066c6:	7873      	ldrb	r3, [r6, #1]
 80066c8:	2b2a      	cmp	r3, #42	@ 0x2a
 80066ca:	d133      	bne.n	8006734 <_vfiprintf_r+0x1b0>
 80066cc:	9b05      	ldr	r3, [sp, #20]
 80066ce:	3602      	adds	r6, #2
 80066d0:	1d1a      	adds	r2, r3, #4
 80066d2:	681b      	ldr	r3, [r3, #0]
 80066d4:	9205      	str	r2, [sp, #20]
 80066d6:	2b00      	cmp	r3, #0
 80066d8:	da01      	bge.n	80066de <_vfiprintf_r+0x15a>
 80066da:	2301      	movs	r3, #1
 80066dc:	425b      	negs	r3, r3
 80066de:	6063      	str	r3, [r4, #4]
 80066e0:	4f30      	ldr	r7, [pc, #192]	@ (80067a4 <_vfiprintf_r+0x220>)
 80066e2:	2203      	movs	r2, #3
 80066e4:	0038      	movs	r0, r7
 80066e6:	7831      	ldrb	r1, [r6, #0]
 80066e8:	f000 fb30 	bl	8006d4c <memchr>
 80066ec:	2800      	cmp	r0, #0
 80066ee:	d006      	beq.n	80066fe <_vfiprintf_r+0x17a>
 80066f0:	2340      	movs	r3, #64	@ 0x40
 80066f2:	1bc0      	subs	r0, r0, r7
 80066f4:	4083      	lsls	r3, r0
 80066f6:	6822      	ldr	r2, [r4, #0]
 80066f8:	3601      	adds	r6, #1
 80066fa:	4313      	orrs	r3, r2
 80066fc:	6023      	str	r3, [r4, #0]
 80066fe:	7831      	ldrb	r1, [r6, #0]
 8006700:	2206      	movs	r2, #6
 8006702:	4829      	ldr	r0, [pc, #164]	@ (80067a8 <_vfiprintf_r+0x224>)
 8006704:	1c77      	adds	r7, r6, #1
 8006706:	7621      	strb	r1, [r4, #24]
 8006708:	f000 fb20 	bl	8006d4c <memchr>
 800670c:	2800      	cmp	r0, #0
 800670e:	d03d      	beq.n	800678c <_vfiprintf_r+0x208>
 8006710:	4826      	ldr	r0, [pc, #152]	@ (80067ac <_vfiprintf_r+0x228>)
 8006712:	2800      	cmp	r0, #0
 8006714:	d121      	bne.n	800675a <_vfiprintf_r+0x1d6>
 8006716:	2207      	movs	r2, #7
 8006718:	9b05      	ldr	r3, [sp, #20]
 800671a:	3307      	adds	r3, #7
 800671c:	4393      	bics	r3, r2
 800671e:	3308      	adds	r3, #8
 8006720:	9305      	str	r3, [sp, #20]
 8006722:	6963      	ldr	r3, [r4, #20]
 8006724:	181b      	adds	r3, r3, r0
 8006726:	6163      	str	r3, [r4, #20]
 8006728:	e764      	b.n	80065f4 <_vfiprintf_r+0x70>
 800672a:	4343      	muls	r3, r0
 800672c:	003e      	movs	r6, r7
 800672e:	2101      	movs	r1, #1
 8006730:	189b      	adds	r3, r3, r2
 8006732:	e7a6      	b.n	8006682 <_vfiprintf_r+0xfe>
 8006734:	2300      	movs	r3, #0
 8006736:	200a      	movs	r0, #10
 8006738:	0019      	movs	r1, r3
 800673a:	3601      	adds	r6, #1
 800673c:	6063      	str	r3, [r4, #4]
 800673e:	7832      	ldrb	r2, [r6, #0]
 8006740:	1c77      	adds	r7, r6, #1
 8006742:	3a30      	subs	r2, #48	@ 0x30
 8006744:	2a09      	cmp	r2, #9
 8006746:	d903      	bls.n	8006750 <_vfiprintf_r+0x1cc>
 8006748:	2b00      	cmp	r3, #0
 800674a:	d0c9      	beq.n	80066e0 <_vfiprintf_r+0x15c>
 800674c:	6061      	str	r1, [r4, #4]
 800674e:	e7c7      	b.n	80066e0 <_vfiprintf_r+0x15c>
 8006750:	4341      	muls	r1, r0
 8006752:	003e      	movs	r6, r7
 8006754:	2301      	movs	r3, #1
 8006756:	1889      	adds	r1, r1, r2
 8006758:	e7f1      	b.n	800673e <_vfiprintf_r+0x1ba>
 800675a:	aa05      	add	r2, sp, #20
 800675c:	9200      	str	r2, [sp, #0]
 800675e:	0021      	movs	r1, r4
 8006760:	002a      	movs	r2, r5
 8006762:	4b13      	ldr	r3, [pc, #76]	@ (80067b0 <_vfiprintf_r+0x22c>)
 8006764:	9802      	ldr	r0, [sp, #8]
 8006766:	e000      	b.n	800676a <_vfiprintf_r+0x1e6>
 8006768:	bf00      	nop
 800676a:	1c43      	adds	r3, r0, #1
 800676c:	d1d9      	bne.n	8006722 <_vfiprintf_r+0x19e>
 800676e:	6e6b      	ldr	r3, [r5, #100]	@ 0x64
 8006770:	07db      	lsls	r3, r3, #31
 8006772:	d405      	bmi.n	8006780 <_vfiprintf_r+0x1fc>
 8006774:	89ab      	ldrh	r3, [r5, #12]
 8006776:	059b      	lsls	r3, r3, #22
 8006778:	d402      	bmi.n	8006780 <_vfiprintf_r+0x1fc>
 800677a:	6da8      	ldr	r0, [r5, #88]	@ 0x58
 800677c:	f7ff fddc 	bl	8006338 <__retarget_lock_release_recursive>
 8006780:	89ab      	ldrh	r3, [r5, #12]
 8006782:	065b      	lsls	r3, r3, #25
 8006784:	d500      	bpl.n	8006788 <_vfiprintf_r+0x204>
 8006786:	e722      	b.n	80065ce <_vfiprintf_r+0x4a>
 8006788:	6960      	ldr	r0, [r4, #20]
 800678a:	e722      	b.n	80065d2 <_vfiprintf_r+0x4e>
 800678c:	aa05      	add	r2, sp, #20
 800678e:	9200      	str	r2, [sp, #0]
 8006790:	0021      	movs	r1, r4
 8006792:	002a      	movs	r2, r5
 8006794:	4b06      	ldr	r3, [pc, #24]	@ (80067b0 <_vfiprintf_r+0x22c>)
 8006796:	9802      	ldr	r0, [sp, #8]
 8006798:	f000 f87c 	bl	8006894 <_printf_i>
 800679c:	e7e5      	b.n	800676a <_vfiprintf_r+0x1e6>
 800679e:	46c0      	nop			@ (mov r8, r8)
 80067a0:	08006efc 	.word	0x08006efc
 80067a4:	08006f02 	.word	0x08006f02
 80067a8:	08006f06 	.word	0x08006f06
 80067ac:	00000000 	.word	0x00000000
 80067b0:	0800655f 	.word	0x0800655f

080067b4 <_printf_common>:
 80067b4:	b5f7      	push	{r0, r1, r2, r4, r5, r6, r7, lr}
 80067b6:	0016      	movs	r6, r2
 80067b8:	9301      	str	r3, [sp, #4]
 80067ba:	688a      	ldr	r2, [r1, #8]
 80067bc:	690b      	ldr	r3, [r1, #16]
 80067be:	000c      	movs	r4, r1
 80067c0:	9000      	str	r0, [sp, #0]
 80067c2:	4293      	cmp	r3, r2
 80067c4:	da00      	bge.n	80067c8 <_printf_common+0x14>
 80067c6:	0013      	movs	r3, r2
 80067c8:	0022      	movs	r2, r4
 80067ca:	6033      	str	r3, [r6, #0]
 80067cc:	3243      	adds	r2, #67	@ 0x43
 80067ce:	7812      	ldrb	r2, [r2, #0]
 80067d0:	2a00      	cmp	r2, #0
 80067d2:	d001      	beq.n	80067d8 <_printf_common+0x24>
 80067d4:	3301      	adds	r3, #1
 80067d6:	6033      	str	r3, [r6, #0]
 80067d8:	6823      	ldr	r3, [r4, #0]
 80067da:	069b      	lsls	r3, r3, #26
 80067dc:	d502      	bpl.n	80067e4 <_printf_common+0x30>
 80067de:	6833      	ldr	r3, [r6, #0]
 80067e0:	3302      	adds	r3, #2
 80067e2:	6033      	str	r3, [r6, #0]
 80067e4:	6822      	ldr	r2, [r4, #0]
 80067e6:	2306      	movs	r3, #6
 80067e8:	0015      	movs	r5, r2
 80067ea:	401d      	ands	r5, r3
 80067ec:	421a      	tst	r2, r3
 80067ee:	d027      	beq.n	8006840 <_printf_common+0x8c>
 80067f0:	0023      	movs	r3, r4
 80067f2:	3343      	adds	r3, #67	@ 0x43
 80067f4:	781b      	ldrb	r3, [r3, #0]
 80067f6:	1e5a      	subs	r2, r3, #1
 80067f8:	4193      	sbcs	r3, r2
 80067fa:	6822      	ldr	r2, [r4, #0]
 80067fc:	0692      	lsls	r2, r2, #26
 80067fe:	d430      	bmi.n	8006862 <_printf_common+0xae>
 8006800:	0022      	movs	r2, r4
 8006802:	9901      	ldr	r1, [sp, #4]
 8006804:	9800      	ldr	r0, [sp, #0]
 8006806:	9d08      	ldr	r5, [sp, #32]
 8006808:	3243      	adds	r2, #67	@ 0x43
 800680a:	47a8      	blx	r5
 800680c:	3001      	adds	r0, #1
 800680e:	d025      	beq.n	800685c <_printf_common+0xa8>
 8006810:	2206      	movs	r2, #6
 8006812:	6823      	ldr	r3, [r4, #0]
 8006814:	2500      	movs	r5, #0
 8006816:	4013      	ands	r3, r2
 8006818:	2b04      	cmp	r3, #4
 800681a:	d105      	bne.n	8006828 <_printf_common+0x74>
 800681c:	6833      	ldr	r3, [r6, #0]
 800681e:	68e5      	ldr	r5, [r4, #12]
 8006820:	1aed      	subs	r5, r5, r3
 8006822:	43eb      	mvns	r3, r5
 8006824:	17db      	asrs	r3, r3, #31
 8006826:	401d      	ands	r5, r3
 8006828:	68a3      	ldr	r3, [r4, #8]
 800682a:	6922      	ldr	r2, [r4, #16]
 800682c:	4293      	cmp	r3, r2
 800682e:	dd01      	ble.n	8006834 <_printf_common+0x80>
 8006830:	1a9b      	subs	r3, r3, r2
 8006832:	18ed      	adds	r5, r5, r3
 8006834:	2600      	movs	r6, #0
 8006836:	42b5      	cmp	r5, r6
 8006838:	d120      	bne.n	800687c <_printf_common+0xc8>
 800683a:	2000      	movs	r0, #0
 800683c:	e010      	b.n	8006860 <_printf_common+0xac>
 800683e:	3501      	adds	r5, #1
 8006840:	68e3      	ldr	r3, [r4, #12]
 8006842:	6832      	ldr	r2, [r6, #0]
 8006844:	1a9b      	subs	r3, r3, r2
 8006846:	42ab      	cmp	r3, r5
 8006848:	ddd2      	ble.n	80067f0 <_printf_common+0x3c>
 800684a:	0022      	movs	r2, r4
 800684c:	2301      	movs	r3, #1
 800684e:	9901      	ldr	r1, [sp, #4]
 8006850:	9800      	ldr	r0, [sp, #0]
 8006852:	9f08      	ldr	r7, [sp, #32]
 8006854:	3219      	adds	r2, #25
 8006856:	47b8      	blx	r7
 8006858:	3001      	adds	r0, #1
 800685a:	d1f0      	bne.n	800683e <_printf_common+0x8a>
 800685c:	2001      	movs	r0, #1
 800685e:	4240      	negs	r0, r0
 8006860:	bdfe      	pop	{r1, r2, r3, r4, r5, r6, r7, pc}
 8006862:	2030      	movs	r0, #48	@ 0x30
 8006864:	18e1      	adds	r1, r4, r3
 8006866:	3143      	adds	r1, #67	@ 0x43
 8006868:	7008      	strb	r0, [r1, #0]
 800686a:	0021      	movs	r1, r4
 800686c:	1c5a      	adds	r2, r3, #1
 800686e:	3145      	adds	r1, #69	@ 0x45
 8006870:	7809      	ldrb	r1, [r1, #0]
 8006872:	18a2      	adds	r2, r4, r2
 8006874:	3243      	adds	r2, #67	@ 0x43
 8006876:	3302      	adds	r3, #2
 8006878:	7011      	strb	r1, [r2, #0]
 800687a:	e7c1      	b.n	8006800 <_printf_common+0x4c>
 800687c:	0022      	movs	r2, r4
 800687e:	2301      	movs	r3, #1
 8006880:	9901      	ldr	r1, [sp, #4]
 8006882:	9800      	ldr	r0, [sp, #0]
 8006884:	9f08      	ldr	r7, [sp, #32]
 8006886:	321a      	adds	r2, #26
 8006888:	47b8      	blx	r7
 800688a:	3001      	adds	r0, #1
 800688c:	d0e6      	beq.n	800685c <_printf_common+0xa8>
 800688e:	3601      	adds	r6, #1
 8006890:	e7d1      	b.n	8006836 <_printf_common+0x82>
	...

08006894 <_printf_i>:
 8006894:	b5f0      	push	{r4, r5, r6, r7, lr}
 8006896:	b08b      	sub	sp, #44	@ 0x2c
 8006898:	9206      	str	r2, [sp, #24]
 800689a:	000a      	movs	r2, r1
 800689c:	3243      	adds	r2, #67	@ 0x43
 800689e:	9307      	str	r3, [sp, #28]
 80068a0:	9005      	str	r0, [sp, #20]
 80068a2:	9203      	str	r2, [sp, #12]
 80068a4:	7e0a      	ldrb	r2, [r1, #24]
 80068a6:	000c      	movs	r4, r1
 80068a8:	9b10      	ldr	r3, [sp, #64]	@ 0x40
 80068aa:	2a78      	cmp	r2, #120	@ 0x78
 80068ac:	d809      	bhi.n	80068c2 <_printf_i+0x2e>
 80068ae:	2a62      	cmp	r2, #98	@ 0x62
 80068b0:	d80b      	bhi.n	80068ca <_printf_i+0x36>
 80068b2:	2a00      	cmp	r2, #0
 80068b4:	d100      	bne.n	80068b8 <_printf_i+0x24>
 80068b6:	e0bb      	b.n	8006a30 <_printf_i+0x19c>
 80068b8:	497a      	ldr	r1, [pc, #488]	@ (8006aa4 <_printf_i+0x210>)
 80068ba:	9104      	str	r1, [sp, #16]
 80068bc:	2a58      	cmp	r2, #88	@ 0x58
 80068be:	d100      	bne.n	80068c2 <_printf_i+0x2e>
 80068c0:	e08f      	b.n	80069e2 <_printf_i+0x14e>
 80068c2:	0025      	movs	r5, r4
 80068c4:	3542      	adds	r5, #66	@ 0x42
 80068c6:	702a      	strb	r2, [r5, #0]
 80068c8:	e022      	b.n	8006910 <_printf_i+0x7c>
 80068ca:	0010      	movs	r0, r2
 80068cc:	3863      	subs	r0, #99	@ 0x63
 80068ce:	2815      	cmp	r0, #21
 80068d0:	d8f7      	bhi.n	80068c2 <_printf_i+0x2e>
 80068d2:	f7f9 fc19 	bl	8000108 <__gnu_thumb1_case_shi>
 80068d6:	0016      	.short	0x0016
 80068d8:	fff6001f 	.word	0xfff6001f
 80068dc:	fff6fff6 	.word	0xfff6fff6
 80068e0:	001ffff6 	.word	0x001ffff6
 80068e4:	fff6fff6 	.word	0xfff6fff6
 80068e8:	fff6fff6 	.word	0xfff6fff6
 80068ec:	003600a0 	.word	0x003600a0
 80068f0:	fff6007f 	.word	0xfff6007f
 80068f4:	00b1fff6 	.word	0x00b1fff6
 80068f8:	0036fff6 	.word	0x0036fff6
 80068fc:	fff6fff6 	.word	0xfff6fff6
 8006900:	0083      	.short	0x0083
 8006902:	0025      	movs	r5, r4
 8006904:	681a      	ldr	r2, [r3, #0]
 8006906:	3542      	adds	r5, #66	@ 0x42
 8006908:	1d11      	adds	r1, r2, #4
 800690a:	6019      	str	r1, [r3, #0]
 800690c:	6813      	ldr	r3, [r2, #0]
 800690e:	702b      	strb	r3, [r5, #0]
 8006910:	2301      	movs	r3, #1
 8006912:	e09f      	b.n	8006a54 <_printf_i+0x1c0>
 8006914:	6818      	ldr	r0, [r3, #0]
 8006916:	6809      	ldr	r1, [r1, #0]
 8006918:	1d02      	adds	r2, r0, #4
 800691a:	060d      	lsls	r5, r1, #24
 800691c:	d50b      	bpl.n	8006936 <_printf_i+0xa2>
 800691e:	6806      	ldr	r6, [r0, #0]
 8006920:	601a      	str	r2, [r3, #0]
 8006922:	2e00      	cmp	r6, #0
 8006924:	da03      	bge.n	800692e <_printf_i+0x9a>
 8006926:	232d      	movs	r3, #45	@ 0x2d
 8006928:	9a03      	ldr	r2, [sp, #12]
 800692a:	4276      	negs	r6, r6
 800692c:	7013      	strb	r3, [r2, #0]
 800692e:	4b5d      	ldr	r3, [pc, #372]	@ (8006aa4 <_printf_i+0x210>)
 8006930:	270a      	movs	r7, #10
 8006932:	9304      	str	r3, [sp, #16]
 8006934:	e019      	b.n	800696a <_printf_i+0xd6>
 8006936:	6806      	ldr	r6, [r0, #0]
 8006938:	601a      	str	r2, [r3, #0]
 800693a:	0649      	lsls	r1, r1, #25
 800693c:	d5f1      	bpl.n	8006922 <_printf_i+0x8e>
 800693e:	b236      	sxth	r6, r6
 8006940:	e7ef      	b.n	8006922 <_printf_i+0x8e>
 8006942:	681a      	ldr	r2, [r3, #0]
 8006944:	6809      	ldr	r1, [r1, #0]
 8006946:	ca40      	ldmia	r2!, {r6}
 8006948:	0608      	lsls	r0, r1, #24
 800694a:	d402      	bmi.n	8006952 <_printf_i+0xbe>
 800694c:	0649      	lsls	r1, r1, #25
 800694e:	d500      	bpl.n	8006952 <_printf_i+0xbe>
 8006950:	b2b6      	uxth	r6, r6
 8006952:	601a      	str	r2, [r3, #0]
 8006954:	7e23      	ldrb	r3, [r4, #24]
 8006956:	4a53      	ldr	r2, [pc, #332]	@ (8006aa4 <_printf_i+0x210>)
 8006958:	270a      	movs	r7, #10
 800695a:	9204      	str	r2, [sp, #16]
 800695c:	2b6f      	cmp	r3, #111	@ 0x6f
 800695e:	d100      	bne.n	8006962 <_printf_i+0xce>
 8006960:	3f02      	subs	r7, #2
 8006962:	0023      	movs	r3, r4
 8006964:	2200      	movs	r2, #0
 8006966:	3343      	adds	r3, #67	@ 0x43
 8006968:	701a      	strb	r2, [r3, #0]
 800696a:	6863      	ldr	r3, [r4, #4]
 800696c:	60a3      	str	r3, [r4, #8]
 800696e:	2b00      	cmp	r3, #0
 8006970:	db06      	blt.n	8006980 <_printf_i+0xec>
 8006972:	2104      	movs	r1, #4
 8006974:	6822      	ldr	r2, [r4, #0]
 8006976:	9d03      	ldr	r5, [sp, #12]
 8006978:	438a      	bics	r2, r1
 800697a:	6022      	str	r2, [r4, #0]
 800697c:	4333      	orrs	r3, r6
 800697e:	d00c      	beq.n	800699a <_printf_i+0x106>
 8006980:	9d03      	ldr	r5, [sp, #12]
 8006982:	0030      	movs	r0, r6
 8006984:	0039      	movs	r1, r7
 8006986:	f7f9 fc4f 	bl	8000228 <__aeabi_uidivmod>
 800698a:	9b04      	ldr	r3, [sp, #16]
 800698c:	3d01      	subs	r5, #1
 800698e:	5c5b      	ldrb	r3, [r3, r1]
 8006990:	702b      	strb	r3, [r5, #0]
 8006992:	0033      	movs	r3, r6
 8006994:	0006      	movs	r6, r0
 8006996:	429f      	cmp	r7, r3
 8006998:	d9f3      	bls.n	8006982 <_printf_i+0xee>
 800699a:	2f08      	cmp	r7, #8
 800699c:	d109      	bne.n	80069b2 <_printf_i+0x11e>
 800699e:	6823      	ldr	r3, [r4, #0]
 80069a0:	07db      	lsls	r3, r3, #31
 80069a2:	d506      	bpl.n	80069b2 <_printf_i+0x11e>
 80069a4:	6862      	ldr	r2, [r4, #4]
 80069a6:	6923      	ldr	r3, [r4, #16]
 80069a8:	429a      	cmp	r2, r3
 80069aa:	dc02      	bgt.n	80069b2 <_printf_i+0x11e>
 80069ac:	2330      	movs	r3, #48	@ 0x30
 80069ae:	3d01      	subs	r5, #1
 80069b0:	702b      	strb	r3, [r5, #0]
 80069b2:	9b03      	ldr	r3, [sp, #12]
 80069b4:	1b5b      	subs	r3, r3, r5
 80069b6:	6123      	str	r3, [r4, #16]
 80069b8:	9b07      	ldr	r3, [sp, #28]
 80069ba:	0021      	movs	r1, r4
 80069bc:	9300      	str	r3, [sp, #0]
 80069be:	9805      	ldr	r0, [sp, #20]
 80069c0:	9b06      	ldr	r3, [sp, #24]
 80069c2:	aa09      	add	r2, sp, #36	@ 0x24
 80069c4:	f7ff fef6 	bl	80067b4 <_printf_common>
 80069c8:	3001      	adds	r0, #1
 80069ca:	d148      	bne.n	8006a5e <_printf_i+0x1ca>
 80069cc:	2001      	movs	r0, #1
 80069ce:	4240      	negs	r0, r0
 80069d0:	b00b      	add	sp, #44	@ 0x2c
 80069d2:	bdf0      	pop	{r4, r5, r6, r7, pc}
 80069d4:	2220      	movs	r2, #32
 80069d6:	6809      	ldr	r1, [r1, #0]
 80069d8:	430a      	orrs	r2, r1
 80069da:	6022      	str	r2, [r4, #0]
 80069dc:	2278      	movs	r2, #120	@ 0x78
 80069de:	4932      	ldr	r1, [pc, #200]	@ (8006aa8 <_printf_i+0x214>)
 80069e0:	9104      	str	r1, [sp, #16]
 80069e2:	0021      	movs	r1, r4
 80069e4:	3145      	adds	r1, #69	@ 0x45
 80069e6:	700a      	strb	r2, [r1, #0]
 80069e8:	6819      	ldr	r1, [r3, #0]
 80069ea:	6822      	ldr	r2, [r4, #0]
 80069ec:	c940      	ldmia	r1!, {r6}
 80069ee:	0610      	lsls	r0, r2, #24
 80069f0:	d402      	bmi.n	80069f8 <_printf_i+0x164>
 80069f2:	0650      	lsls	r0, r2, #25
 80069f4:	d500      	bpl.n	80069f8 <_printf_i+0x164>
 80069f6:	b2b6      	uxth	r6, r6
 80069f8:	6019      	str	r1, [r3, #0]
 80069fa:	07d3      	lsls	r3, r2, #31
 80069fc:	d502      	bpl.n	8006a04 <_printf_i+0x170>
 80069fe:	2320      	movs	r3, #32
 8006a00:	4313      	orrs	r3, r2
 8006a02:	6023      	str	r3, [r4, #0]
 8006a04:	2e00      	cmp	r6, #0
 8006a06:	d001      	beq.n	8006a0c <_printf_i+0x178>
 8006a08:	2710      	movs	r7, #16
 8006a0a:	e7aa      	b.n	8006962 <_printf_i+0xce>
 8006a0c:	2220      	movs	r2, #32
 8006a0e:	6823      	ldr	r3, [r4, #0]
 8006a10:	4393      	bics	r3, r2
 8006a12:	6023      	str	r3, [r4, #0]
 8006a14:	e7f8      	b.n	8006a08 <_printf_i+0x174>
 8006a16:	681a      	ldr	r2, [r3, #0]
 8006a18:	680d      	ldr	r5, [r1, #0]
 8006a1a:	1d10      	adds	r0, r2, #4
 8006a1c:	6949      	ldr	r1, [r1, #20]
 8006a1e:	6018      	str	r0, [r3, #0]
 8006a20:	6813      	ldr	r3, [r2, #0]
 8006a22:	062e      	lsls	r6, r5, #24
 8006a24:	d501      	bpl.n	8006a2a <_printf_i+0x196>
 8006a26:	6019      	str	r1, [r3, #0]
 8006a28:	e002      	b.n	8006a30 <_printf_i+0x19c>
 8006a2a:	066d      	lsls	r5, r5, #25
 8006a2c:	d5fb      	bpl.n	8006a26 <_printf_i+0x192>
 8006a2e:	8019      	strh	r1, [r3, #0]
 8006a30:	2300      	movs	r3, #0
 8006a32:	9d03      	ldr	r5, [sp, #12]
 8006a34:	6123      	str	r3, [r4, #16]
 8006a36:	e7bf      	b.n	80069b8 <_printf_i+0x124>
 8006a38:	681a      	ldr	r2, [r3, #0]
 8006a3a:	1d11      	adds	r1, r2, #4
 8006a3c:	6019      	str	r1, [r3, #0]
 8006a3e:	6815      	ldr	r5, [r2, #0]
 8006a40:	2100      	movs	r1, #0
 8006a42:	0028      	movs	r0, r5
 8006a44:	6862      	ldr	r2, [r4, #4]
 8006a46:	f000 f981 	bl	8006d4c <memchr>
 8006a4a:	2800      	cmp	r0, #0
 8006a4c:	d001      	beq.n	8006a52 <_printf_i+0x1be>
 8006a4e:	1b40      	subs	r0, r0, r5
 8006a50:	6060      	str	r0, [r4, #4]
 8006a52:	6863      	ldr	r3, [r4, #4]
 8006a54:	6123      	str	r3, [r4, #16]
 8006a56:	2300      	movs	r3, #0
 8006a58:	9a03      	ldr	r2, [sp, #12]
 8006a5a:	7013      	strb	r3, [r2, #0]
 8006a5c:	e7ac      	b.n	80069b8 <_printf_i+0x124>
 8006a5e:	002a      	movs	r2, r5
 8006a60:	6923      	ldr	r3, [r4, #16]
 8006a62:	9906      	ldr	r1, [sp, #24]
 8006a64:	9805      	ldr	r0, [sp, #20]
 8006a66:	9d07      	ldr	r5, [sp, #28]
 8006a68:	47a8      	blx	r5
 8006a6a:	3001      	adds	r0, #1
 8006a6c:	d0ae      	beq.n	80069cc <_printf_i+0x138>
 8006a6e:	6823      	ldr	r3, [r4, #0]
 8006a70:	079b      	lsls	r3, r3, #30
 8006a72:	d415      	bmi.n	8006aa0 <_printf_i+0x20c>
 8006a74:	9b09      	ldr	r3, [sp, #36]	@ 0x24
 8006a76:	68e0      	ldr	r0, [r4, #12]
 8006a78:	4298      	cmp	r0, r3
 8006a7a:	daa9      	bge.n	80069d0 <_printf_i+0x13c>
 8006a7c:	0018      	movs	r0, r3
 8006a7e:	e7a7      	b.n	80069d0 <_printf_i+0x13c>
 8006a80:	0022      	movs	r2, r4
 8006a82:	2301      	movs	r3, #1
 8006a84:	9906      	ldr	r1, [sp, #24]
 8006a86:	9805      	ldr	r0, [sp, #20]
 8006a88:	9e07      	ldr	r6, [sp, #28]
 8006a8a:	3219      	adds	r2, #25
 8006a8c:	47b0      	blx	r6
 8006a8e:	3001      	adds	r0, #1
 8006a90:	d09c      	beq.n	80069cc <_printf_i+0x138>
 8006a92:	3501      	adds	r5, #1
 8006a94:	68e3      	ldr	r3, [r4, #12]
 8006a96:	9a09      	ldr	r2, [sp, #36]	@ 0x24
 8006a98:	1a9b      	subs	r3, r3, r2
 8006a9a:	42ab      	cmp	r3, r5
 8006a9c:	dcf0      	bgt.n	8006a80 <_printf_i+0x1ec>
 8006a9e:	e7e9      	b.n	8006a74 <_printf_i+0x1e0>
 8006aa0:	2500      	movs	r5, #0
 8006aa2:	e7f7      	b.n	8006a94 <_printf_i+0x200>
 8006aa4:	08006f0d 	.word	0x08006f0d
 8006aa8:	08006f1e 	.word	0x08006f1e

08006aac <__sflush_r>:
 8006aac:	b5f7      	push	{r0, r1, r2, r4, r5, r6, r7, lr}
 8006aae:	220c      	movs	r2, #12
 8006ab0:	5e8b      	ldrsh	r3, [r1, r2]
 8006ab2:	0005      	movs	r5, r0
 8006ab4:	000c      	movs	r4, r1
 8006ab6:	071a      	lsls	r2, r3, #28
 8006ab8:	d45a      	bmi.n	8006b70 <__sflush_r+0xc4>
 8006aba:	684a      	ldr	r2, [r1, #4]
 8006abc:	2a00      	cmp	r2, #0
 8006abe:	dc02      	bgt.n	8006ac6 <__sflush_r+0x1a>
 8006ac0:	6c0a      	ldr	r2, [r1, #64]	@ 0x40
 8006ac2:	2a00      	cmp	r2, #0
 8006ac4:	dd4f      	ble.n	8006b66 <__sflush_r+0xba>
 8006ac6:	6ae7      	ldr	r7, [r4, #44]	@ 0x2c
 8006ac8:	2f00      	cmp	r7, #0
 8006aca:	d04c      	beq.n	8006b66 <__sflush_r+0xba>
 8006acc:	2200      	movs	r2, #0
 8006ace:	2180      	movs	r1, #128	@ 0x80
 8006ad0:	682e      	ldr	r6, [r5, #0]
 8006ad2:	602a      	str	r2, [r5, #0]
 8006ad4:	001a      	movs	r2, r3
 8006ad6:	0149      	lsls	r1, r1, #5
 8006ad8:	400a      	ands	r2, r1
 8006ada:	420b      	tst	r3, r1
 8006adc:	d034      	beq.n	8006b48 <__sflush_r+0x9c>
 8006ade:	6d62      	ldr	r2, [r4, #84]	@ 0x54
 8006ae0:	89a3      	ldrh	r3, [r4, #12]
 8006ae2:	075b      	lsls	r3, r3, #29
 8006ae4:	d506      	bpl.n	8006af4 <__sflush_r+0x48>
 8006ae6:	6863      	ldr	r3, [r4, #4]
 8006ae8:	1ad2      	subs	r2, r2, r3
 8006aea:	6b63      	ldr	r3, [r4, #52]	@ 0x34
 8006aec:	2b00      	cmp	r3, #0
 8006aee:	d001      	beq.n	8006af4 <__sflush_r+0x48>
 8006af0:	6c23      	ldr	r3, [r4, #64]	@ 0x40
 8006af2:	1ad2      	subs	r2, r2, r3
 8006af4:	2300      	movs	r3, #0
 8006af6:	0028      	movs	r0, r5
 8006af8:	6ae7      	ldr	r7, [r4, #44]	@ 0x2c
 8006afa:	6a21      	ldr	r1, [r4, #32]
 8006afc:	47b8      	blx	r7
 8006afe:	230c      	movs	r3, #12
 8006b00:	5ee2      	ldrsh	r2, [r4, r3]
 8006b02:	1c43      	adds	r3, r0, #1
 8006b04:	d106      	bne.n	8006b14 <__sflush_r+0x68>
 8006b06:	6829      	ldr	r1, [r5, #0]
 8006b08:	291d      	cmp	r1, #29
 8006b0a:	d82e      	bhi.n	8006b6a <__sflush_r+0xbe>
 8006b0c:	4b2b      	ldr	r3, [pc, #172]	@ (8006bbc <__sflush_r+0x110>)
 8006b0e:	40cb      	lsrs	r3, r1
 8006b10:	07db      	lsls	r3, r3, #31
 8006b12:	d52a      	bpl.n	8006b6a <__sflush_r+0xbe>
 8006b14:	2300      	movs	r3, #0
 8006b16:	6063      	str	r3, [r4, #4]
 8006b18:	6923      	ldr	r3, [r4, #16]
 8006b1a:	6023      	str	r3, [r4, #0]
 8006b1c:	04d2      	lsls	r2, r2, #19
 8006b1e:	d505      	bpl.n	8006b2c <__sflush_r+0x80>
 8006b20:	1c43      	adds	r3, r0, #1
 8006b22:	d102      	bne.n	8006b2a <__sflush_r+0x7e>
 8006b24:	682b      	ldr	r3, [r5, #0]
 8006b26:	2b00      	cmp	r3, #0
 8006b28:	d100      	bne.n	8006b2c <__sflush_r+0x80>
 8006b2a:	6560      	str	r0, [r4, #84]	@ 0x54
 8006b2c:	6b61      	ldr	r1, [r4, #52]	@ 0x34
 8006b2e:	602e      	str	r6, [r5, #0]
 8006b30:	2900      	cmp	r1, #0
 8006b32:	d018      	beq.n	8006b66 <__sflush_r+0xba>
 8006b34:	0023      	movs	r3, r4
 8006b36:	3344      	adds	r3, #68	@ 0x44
 8006b38:	4299      	cmp	r1, r3
 8006b3a:	d002      	beq.n	8006b42 <__sflush_r+0x96>
 8006b3c:	0028      	movs	r0, r5
 8006b3e:	f7ff fbfd 	bl	800633c <_free_r>
 8006b42:	2300      	movs	r3, #0
 8006b44:	6363      	str	r3, [r4, #52]	@ 0x34
 8006b46:	e00e      	b.n	8006b66 <__sflush_r+0xba>
 8006b48:	2301      	movs	r3, #1
 8006b4a:	0028      	movs	r0, r5
 8006b4c:	6a21      	ldr	r1, [r4, #32]
 8006b4e:	47b8      	blx	r7
 8006b50:	0002      	movs	r2, r0
 8006b52:	1c43      	adds	r3, r0, #1
 8006b54:	d1c4      	bne.n	8006ae0 <__sflush_r+0x34>
 8006b56:	682b      	ldr	r3, [r5, #0]
 8006b58:	2b00      	cmp	r3, #0
 8006b5a:	d0c1      	beq.n	8006ae0 <__sflush_r+0x34>
 8006b5c:	2b1d      	cmp	r3, #29
 8006b5e:	d001      	beq.n	8006b64 <__sflush_r+0xb8>
 8006b60:	2b16      	cmp	r3, #22
 8006b62:	d11d      	bne.n	8006ba0 <__sflush_r+0xf4>
 8006b64:	602e      	str	r6, [r5, #0]
 8006b66:	2000      	movs	r0, #0
 8006b68:	e021      	b.n	8006bae <__sflush_r+0x102>
 8006b6a:	2340      	movs	r3, #64	@ 0x40
 8006b6c:	4313      	orrs	r3, r2
 8006b6e:	e01b      	b.n	8006ba8 <__sflush_r+0xfc>
 8006b70:	690e      	ldr	r6, [r1, #16]
 8006b72:	2e00      	cmp	r6, #0
 8006b74:	d0f7      	beq.n	8006b66 <__sflush_r+0xba>
 8006b76:	680f      	ldr	r7, [r1, #0]
 8006b78:	600e      	str	r6, [r1, #0]
 8006b7a:	1bba      	subs	r2, r7, r6
 8006b7c:	9201      	str	r2, [sp, #4]
 8006b7e:	2200      	movs	r2, #0
 8006b80:	079b      	lsls	r3, r3, #30
 8006b82:	d100      	bne.n	8006b86 <__sflush_r+0xda>
 8006b84:	694a      	ldr	r2, [r1, #20]
 8006b86:	60a2      	str	r2, [r4, #8]
 8006b88:	9b01      	ldr	r3, [sp, #4]
 8006b8a:	2b00      	cmp	r3, #0
 8006b8c:	ddeb      	ble.n	8006b66 <__sflush_r+0xba>
 8006b8e:	6aa3      	ldr	r3, [r4, #40]	@ 0x28
 8006b90:	0032      	movs	r2, r6
 8006b92:	001f      	movs	r7, r3
 8006b94:	0028      	movs	r0, r5
 8006b96:	9b01      	ldr	r3, [sp, #4]
 8006b98:	6a21      	ldr	r1, [r4, #32]
 8006b9a:	47b8      	blx	r7
 8006b9c:	2800      	cmp	r0, #0
 8006b9e:	dc07      	bgt.n	8006bb0 <__sflush_r+0x104>
 8006ba0:	2340      	movs	r3, #64	@ 0x40
 8006ba2:	89a2      	ldrh	r2, [r4, #12]
 8006ba4:	4313      	orrs	r3, r2
 8006ba6:	b21b      	sxth	r3, r3
 8006ba8:	2001      	movs	r0, #1
 8006baa:	81a3      	strh	r3, [r4, #12]
 8006bac:	4240      	negs	r0, r0
 8006bae:	bdfe      	pop	{r1, r2, r3, r4, r5, r6, r7, pc}
 8006bb0:	9b01      	ldr	r3, [sp, #4]
 8006bb2:	1836      	adds	r6, r6, r0
 8006bb4:	1a1b      	subs	r3, r3, r0
 8006bb6:	9301      	str	r3, [sp, #4]
 8006bb8:	e7e6      	b.n	8006b88 <__sflush_r+0xdc>
 8006bba:	46c0      	nop			@ (mov r8, r8)
 8006bbc:	20400001 	.word	0x20400001

08006bc0 <_fflush_r>:
 8006bc0:	690b      	ldr	r3, [r1, #16]
 8006bc2:	b570      	push	{r4, r5, r6, lr}
 8006bc4:	0005      	movs	r5, r0
 8006bc6:	000c      	movs	r4, r1
 8006bc8:	2b00      	cmp	r3, #0
 8006bca:	d102      	bne.n	8006bd2 <_fflush_r+0x12>
 8006bcc:	2500      	movs	r5, #0
 8006bce:	0028      	movs	r0, r5
 8006bd0:	bd70      	pop	{r4, r5, r6, pc}
 8006bd2:	2800      	cmp	r0, #0
 8006bd4:	d004      	beq.n	8006be0 <_fflush_r+0x20>
 8006bd6:	6a03      	ldr	r3, [r0, #32]
 8006bd8:	2b00      	cmp	r3, #0
 8006bda:	d101      	bne.n	8006be0 <_fflush_r+0x20>
 8006bdc:	f7ff f99e 	bl	8005f1c <__sinit>
 8006be0:	220c      	movs	r2, #12
 8006be2:	5ea3      	ldrsh	r3, [r4, r2]
 8006be4:	2b00      	cmp	r3, #0
 8006be6:	d0f1      	beq.n	8006bcc <_fflush_r+0xc>
 8006be8:	6e62      	ldr	r2, [r4, #100]	@ 0x64
 8006bea:	07d2      	lsls	r2, r2, #31
 8006bec:	d404      	bmi.n	8006bf8 <_fflush_r+0x38>
 8006bee:	059b      	lsls	r3, r3, #22
 8006bf0:	d402      	bmi.n	8006bf8 <_fflush_r+0x38>
 8006bf2:	6da0      	ldr	r0, [r4, #88]	@ 0x58
 8006bf4:	f7ff fb9f 	bl	8006336 <__retarget_lock_acquire_recursive>
 8006bf8:	0028      	movs	r0, r5
 8006bfa:	0021      	movs	r1, r4
 8006bfc:	f7ff ff56 	bl	8006aac <__sflush_r>
 8006c00:	6e63      	ldr	r3, [r4, #100]	@ 0x64
 8006c02:	0005      	movs	r5, r0
 8006c04:	07db      	lsls	r3, r3, #31
 8006c06:	d4e2      	bmi.n	8006bce <_fflush_r+0xe>
 8006c08:	89a3      	ldrh	r3, [r4, #12]
 8006c0a:	059b      	lsls	r3, r3, #22
 8006c0c:	d4df      	bmi.n	8006bce <_fflush_r+0xe>
 8006c0e:	6da0      	ldr	r0, [r4, #88]	@ 0x58
 8006c10:	f7ff fb92 	bl	8006338 <__retarget_lock_release_recursive>
 8006c14:	e7db      	b.n	8006bce <_fflush_r+0xe>
	...

08006c18 <__swhatbuf_r>:
 8006c18:	b5f0      	push	{r4, r5, r6, r7, lr}
 8006c1a:	000e      	movs	r6, r1
 8006c1c:	001d      	movs	r5, r3
 8006c1e:	230e      	movs	r3, #14
 8006c20:	5ec9      	ldrsh	r1, [r1, r3]
 8006c22:	0014      	movs	r4, r2
 8006c24:	b097      	sub	sp, #92	@ 0x5c
 8006c26:	2900      	cmp	r1, #0
 8006c28:	da0c      	bge.n	8006c44 <__swhatbuf_r+0x2c>
 8006c2a:	89b2      	ldrh	r2, [r6, #12]
 8006c2c:	2380      	movs	r3, #128	@ 0x80
 8006c2e:	0011      	movs	r1, r2
 8006c30:	4019      	ands	r1, r3
 8006c32:	421a      	tst	r2, r3
 8006c34:	d114      	bne.n	8006c60 <__swhatbuf_r+0x48>
 8006c36:	2380      	movs	r3, #128	@ 0x80
 8006c38:	00db      	lsls	r3, r3, #3
 8006c3a:	2000      	movs	r0, #0
 8006c3c:	6029      	str	r1, [r5, #0]
 8006c3e:	6023      	str	r3, [r4, #0]
 8006c40:	b017      	add	sp, #92	@ 0x5c
 8006c42:	bdf0      	pop	{r4, r5, r6, r7, pc}
 8006c44:	466a      	mov	r2, sp
 8006c46:	f000 f84b 	bl	8006ce0 <_fstat_r>
 8006c4a:	2800      	cmp	r0, #0
 8006c4c:	dbed      	blt.n	8006c2a <__swhatbuf_r+0x12>
 8006c4e:	23f0      	movs	r3, #240	@ 0xf0
 8006c50:	9901      	ldr	r1, [sp, #4]
 8006c52:	021b      	lsls	r3, r3, #8
 8006c54:	4019      	ands	r1, r3
 8006c56:	4b04      	ldr	r3, [pc, #16]	@ (8006c68 <__swhatbuf_r+0x50>)
 8006c58:	18c9      	adds	r1, r1, r3
 8006c5a:	424b      	negs	r3, r1
 8006c5c:	4159      	adcs	r1, r3
 8006c5e:	e7ea      	b.n	8006c36 <__swhatbuf_r+0x1e>
 8006c60:	2100      	movs	r1, #0
 8006c62:	2340      	movs	r3, #64	@ 0x40
 8006c64:	e7e9      	b.n	8006c3a <__swhatbuf_r+0x22>
 8006c66:	46c0      	nop			@ (mov r8, r8)
 8006c68:	ffffe000 	.word	0xffffe000

08006c6c <__smakebuf_r>:
 8006c6c:	b5f7      	push	{r0, r1, r2, r4, r5, r6, r7, lr}
 8006c6e:	2602      	movs	r6, #2
 8006c70:	898b      	ldrh	r3, [r1, #12]
 8006c72:	0005      	movs	r5, r0
 8006c74:	000c      	movs	r4, r1
 8006c76:	4233      	tst	r3, r6
 8006c78:	d006      	beq.n	8006c88 <__smakebuf_r+0x1c>
 8006c7a:	0023      	movs	r3, r4
 8006c7c:	3347      	adds	r3, #71	@ 0x47
 8006c7e:	6023      	str	r3, [r4, #0]
 8006c80:	6123      	str	r3, [r4, #16]
 8006c82:	2301      	movs	r3, #1
 8006c84:	6163      	str	r3, [r4, #20]
 8006c86:	bdf7      	pop	{r0, r1, r2, r4, r5, r6, r7, pc}
 8006c88:	466a      	mov	r2, sp
 8006c8a:	ab01      	add	r3, sp, #4
 8006c8c:	f7ff ffc4 	bl	8006c18 <__swhatbuf_r>
 8006c90:	9f00      	ldr	r7, [sp, #0]
 8006c92:	0028      	movs	r0, r5
 8006c94:	0039      	movs	r1, r7
 8006c96:	f7ff fbbd 	bl	8006414 <_malloc_r>
 8006c9a:	220c      	movs	r2, #12
 8006c9c:	5ea3      	ldrsh	r3, [r4, r2]
 8006c9e:	2800      	cmp	r0, #0
 8006ca0:	d106      	bne.n	8006cb0 <__smakebuf_r+0x44>
 8006ca2:	059a      	lsls	r2, r3, #22
 8006ca4:	d4ef      	bmi.n	8006c86 <__smakebuf_r+0x1a>
 8006ca6:	2203      	movs	r2, #3
 8006ca8:	4393      	bics	r3, r2
 8006caa:	431e      	orrs	r6, r3
 8006cac:	81a6      	strh	r6, [r4, #12]
 8006cae:	e7e4      	b.n	8006c7a <__smakebuf_r+0xe>
 8006cb0:	2280      	movs	r2, #128	@ 0x80
 8006cb2:	4313      	orrs	r3, r2
 8006cb4:	81a3      	strh	r3, [r4, #12]
 8006cb6:	9b01      	ldr	r3, [sp, #4]
 8006cb8:	6020      	str	r0, [r4, #0]
 8006cba:	6120      	str	r0, [r4, #16]
 8006cbc:	6167      	str	r7, [r4, #20]
 8006cbe:	2b00      	cmp	r3, #0
 8006cc0:	d0e1      	beq.n	8006c86 <__smakebuf_r+0x1a>
 8006cc2:	0028      	movs	r0, r5
 8006cc4:	230e      	movs	r3, #14
 8006cc6:	5ee1      	ldrsh	r1, [r4, r3]
 8006cc8:	f000 f81c 	bl	8006d04 <_isatty_r>
 8006ccc:	2800      	cmp	r0, #0
 8006cce:	d0da      	beq.n	8006c86 <__smakebuf_r+0x1a>
 8006cd0:	2303      	movs	r3, #3
 8006cd2:	89a2      	ldrh	r2, [r4, #12]
 8006cd4:	439a      	bics	r2, r3
 8006cd6:	3b02      	subs	r3, #2
 8006cd8:	4313      	orrs	r3, r2
 8006cda:	81a3      	strh	r3, [r4, #12]
 8006cdc:	e7d3      	b.n	8006c86 <__smakebuf_r+0x1a>
	...

08006ce0 <_fstat_r>:
 8006ce0:	2300      	movs	r3, #0
 8006ce2:	b570      	push	{r4, r5, r6, lr}
 8006ce4:	4d06      	ldr	r5, [pc, #24]	@ (8006d00 <_fstat_r+0x20>)
 8006ce6:	0004      	movs	r4, r0
 8006ce8:	0008      	movs	r0, r1
 8006cea:	0011      	movs	r1, r2
 8006cec:	602b      	str	r3, [r5, #0]
 8006cee:	f7f9 feca 	bl	8000a86 <_fstat>
 8006cf2:	1c43      	adds	r3, r0, #1
 8006cf4:	d103      	bne.n	8006cfe <_fstat_r+0x1e>
 8006cf6:	682b      	ldr	r3, [r5, #0]
 8006cf8:	2b00      	cmp	r3, #0
 8006cfa:	d000      	beq.n	8006cfe <_fstat_r+0x1e>
 8006cfc:	6023      	str	r3, [r4, #0]
 8006cfe:	bd70      	pop	{r4, r5, r6, pc}
 8006d00:	20000364 	.word	0x20000364

08006d04 <_isatty_r>:
 8006d04:	2300      	movs	r3, #0
 8006d06:	b570      	push	{r4, r5, r6, lr}
 8006d08:	4d06      	ldr	r5, [pc, #24]	@ (8006d24 <_isatty_r+0x20>)
 8006d0a:	0004      	movs	r4, r0
 8006d0c:	0008      	movs	r0, r1
 8006d0e:	602b      	str	r3, [r5, #0]
 8006d10:	f7f9 fec7 	bl	8000aa2 <_isatty>
 8006d14:	1c43      	adds	r3, r0, #1
 8006d16:	d103      	bne.n	8006d20 <_isatty_r+0x1c>
 8006d18:	682b      	ldr	r3, [r5, #0]
 8006d1a:	2b00      	cmp	r3, #0
 8006d1c:	d000      	beq.n	8006d20 <_isatty_r+0x1c>
 8006d1e:	6023      	str	r3, [r4, #0]
 8006d20:	bd70      	pop	{r4, r5, r6, pc}
 8006d22:	46c0      	nop			@ (mov r8, r8)
 8006d24:	20000364 	.word	0x20000364

08006d28 <_sbrk_r>:
 8006d28:	2300      	movs	r3, #0
 8006d2a:	b570      	push	{r4, r5, r6, lr}
 8006d2c:	4d06      	ldr	r5, [pc, #24]	@ (8006d48 <_sbrk_r+0x20>)
 8006d2e:	0004      	movs	r4, r0
 8006d30:	0008      	movs	r0, r1
 8006d32:	602b      	str	r3, [r5, #0]
 8006d34:	f7f9 feca 	bl	8000acc <_sbrk>
 8006d38:	1c43      	adds	r3, r0, #1
 8006d3a:	d103      	bne.n	8006d44 <_sbrk_r+0x1c>
 8006d3c:	682b      	ldr	r3, [r5, #0]
 8006d3e:	2b00      	cmp	r3, #0
 8006d40:	d000      	beq.n	8006d44 <_sbrk_r+0x1c>
 8006d42:	6023      	str	r3, [r4, #0]
 8006d44:	bd70      	pop	{r4, r5, r6, pc}
 8006d46:	46c0      	nop			@ (mov r8, r8)
 8006d48:	20000364 	.word	0x20000364

08006d4c <memchr>:
 8006d4c:	b2c9      	uxtb	r1, r1
 8006d4e:	1882      	adds	r2, r0, r2
 8006d50:	4290      	cmp	r0, r2
 8006d52:	d101      	bne.n	8006d58 <memchr+0xc>
 8006d54:	2000      	movs	r0, #0
 8006d56:	4770      	bx	lr
 8006d58:	7803      	ldrb	r3, [r0, #0]
 8006d5a:	428b      	cmp	r3, r1
 8006d5c:	d0fb      	beq.n	8006d56 <memchr+0xa>
 8006d5e:	3001      	adds	r0, #1
 8006d60:	e7f6      	b.n	8006d50 <memchr+0x4>
	...

08006d64 <_init>:
 8006d64:	b5f8      	push	{r3, r4, r5, r6, r7, lr}
 8006d66:	46c0      	nop			@ (mov r8, r8)
 8006d68:	bcf8      	pop	{r3, r4, r5, r6, r7}
 8006d6a:	bc08      	pop	{r3}
 8006d6c:	469e      	mov	lr, r3
 8006d6e:	4770      	bx	lr

08006d70 <_fini>:
 8006d70:	b5f8      	push	{r3, r4, r5, r6, r7, lr}
 8006d72:	46c0      	nop			@ (mov r8, r8)
 8006d74:	bcf8      	pop	{r3, r4, r5, r6, r7}
 8006d76:	bc08      	pop	{r3}
 8006d78:	469e      	mov	lr, r3
 8006d7a:	4770      	bx	lr
